L251 LINKER/LOCATER V4.66.93.0                                                          01/25/2026  01:33:53  PAGE 1


L251 LINKER/LOCATER V4.66.93.0, INVOKED BY:
E:\TOOLS\KEIL5\KEIL_V5\C251\BIN\L251.EXE .\out_file\START251.obj, .\out_file\stc32g_isr.obj, .\out_file\zf_common_clock.
>> obj, .\out_file\zf_common_debug.obj, .\out_file\zf_common_fifo.obj, .\out_file\zf_common_font.obj, .\out_file\zf_comm
>> on_function.obj, .\out_file\zf_common_typedef.obj, .\out_file\zf_common_interrupt.obj, .\out_file\zf_driver_adc.obj, 
>> .\out_file\zf_driver_delay.obj, .\out_file\zf_driver_eeprom.obj, .\out_file\zf_driver_encoder.obj, .\out_file\zf_driv
>> er_exti.obj, .\out_file\zf_driver_gpio.obj, .\out_file\zf_driver_pit.obj, .\out_file\zf_driver_pwm.obj, .\out_file\zf
>> _driver_soft_iic.obj, .\out_file\zf_driver_soft_spi.obj, .\out_file\zf_driver_spi.obj, .\out_file\zf_driver_timer.obj
>> , .\out_file\zf_driver_uart.obj, .\out_file\zf_device_ble6a20.obj, .\out_file\zf_device_config.obj, .\out_file\zf_dev
>> ice_dl1a.obj, .\out_file\zf_device_dl1b.obj, .\out_file\zf_device_gps_tau1201.obj, .\out_file\zf_device_icm20602.obj,
>>  .\out_file\zf_device_imu660ra.obj, .\out_file\zf_device_imu660rb.obj, .\out_file\zf_device_imu963ra.obj, .\out_file\
>> zf_device_ips114.obj, .\out_file\zf_device_ips200.obj, .\out_file\zf_device_ips200pro.obj, .\out_file\zf_device_tft18
>> 0.obj, .\out_file\zf_device_tsl1401.obj, .\out_file\zf_device_type.obj, .\out_file\zf_device_wireless_uart.obj, .\out
>> _file\seekfree_assistant.obj, .\out_file\seekfree_assistant_interface.obj, .\out_file\motor.obj, .\out_file\key.obj, 
>> .\out_file\adc.obj, .\out_file\uart.obj, .\out_file\pid.obj, .\out_file\encoder.obj, .\out_file\normalization.obj, .\
>> out_file\control.obj, .\out_file\IMU.obj, .\out_file\task.obj, .\out_file\quaternion.obj, .\out_file\isr.obj, .\out_f
>> ile\main.obj TO .\out_file\SEEKFREE PRINT (.\out_file\SEEKFREE.map) CASE DISABLEWARNING (57, 16) REMOVEUNUSED CLASSES
>>  (EDATA (0X0-0XFFF), HDATA (0X0-0XFFF))


CPU MODE:     251 SOURCE MODE
INTR FRAME:   4 BYTES SAVED ON INTERRUPT
MEMORY MODEL: LARGE WITH FLOATING POINT ARITHMETIC


INPUT MODULES INCLUDED:
  .\out_file\START251.obj (?C_START)
         COMMENT TYPE 0: A251 V4.69.13.0
  .\out_file\stc32g_isr.obj (stc32g_isr)
         COMMENT TYPE 0: A251 V4.69.13.0
  .\out_file\zf_common_clock.obj (zf_common_clock)
         COMMENT TYPE 0: C251 V5.60.0
  .\out_file\zf_common_debug.obj (zf_common_debug)
         COMMENT TYPE 0: C251 V5.60.0
  .\out_file\zf_common_fifo.obj (zf_common_fifo)
         COMMENT TYPE 0: C251 V5.60.0
  .\out_file\zf_common_font.obj (zf_common_font)
         COMMENT TYPE 0: C251 V5.60.0
  .\out_file\zf_common_function.obj (zf_common_function)
         COMMENT TYPE 0: C251 V5.60.0
  .\out_file\zf_common_typedef.obj (zf_common_typedef)
         COMMENT TYPE 0: C251 V5.60.0
  .\out_file\zf_common_interrupt.obj (zf_common_interrupt)
         COMMENT TYPE 0: C251 V5.60.0
  .\out_file\zf_driver_adc.obj (zf_driver_adc)
         COMMENT TYPE 0: C251 V5.60.0
  .\out_file\zf_driver_delay.obj (zf_driver_delay)
         COMMENT TYPE 0: C251 V5.60.0
  .\out_file\zf_driver_eeprom.obj (zf_driver_eeprom)
         COMMENT TYPE 0: C251 V5.60.0
  .\out_file\zf_driver_encoder.obj (zf_driver_encoder)
         COMMENT TYPE 0: C251 V5.60.0
  .\out_file\zf_driver_exti.obj (zf_driver_exti)
         COMMENT TYPE 0: C251 V5.60.0
  .\out_file\zf_driver_gpio.obj (zf_driver_gpio)
         COMMENT TYPE 0: C251 V5.60.0
  .\out_file\zf_driver_pit.obj (zf_driver_pit)
         COMMENT TYPE 0: C251 V5.60.0
  .\out_file\zf_driver_pwm.obj (zf_driver_pwm)
         COMMENT TYPE 0: C251 V5.60.0
  .\out_file\zf_driver_soft_iic.obj (zf_driver_soft_iic)
         COMMENT TYPE 0: C251 V5.60.0
  .\out_file\zf_driver_soft_spi.obj (zf_driver_soft_spi)
         COMMENT TYPE 0: C251 V5.60.0
  .\out_file\zf_driver_spi.obj (zf_driver_spi)
         COMMENT TYPE 0: C251 V5.60.0
  .\out_file\zf_driver_timer.obj (zf_driver_timer)
L251 LINKER/LOCATER V4.66.93.0                                                        01/25/2026  01:33:53  PAGE 2


         COMMENT TYPE 0: C251 V5.60.0
  .\out_file\zf_driver_uart.obj (zf_driver_uart)
         COMMENT TYPE 0: C251 V5.60.0
  .\out_file\zf_device_ble6a20.obj (zf_device_ble6a20)
         COMMENT TYPE 0: C251 V5.60.0
  .\out_file\zf_device_config.obj (zf_device_config)
         COMMENT TYPE 0: C251 V5.60.0
  .\out_file\zf_device_dl1a.obj (zf_device_dl1a)
         COMMENT TYPE 0: C251 V5.60.0
  .\out_file\zf_device_dl1b.obj (zf_device_dl1b)
         COMMENT TYPE 0: C251 V5.60.0
  .\out_file\zf_device_gps_tau1201.obj (zf_device_gps_tau1201)
         COMMENT TYPE 0: C251 V5.60.0
  .\out_file\zf_device_icm20602.obj (zf_device_icm20602)
         COMMENT TYPE 0: C251 V5.60.0
  .\out_file\zf_device_imu660ra.obj (zf_device_imu660ra)
         COMMENT TYPE 0: C251 V5.60.0
  .\out_file\zf_device_imu660rb.obj (zf_device_imu660rb)
         COMMENT TYPE 0: C251 V5.60.0
  .\out_file\zf_device_imu963ra.obj (zf_device_imu963ra)
         COMMENT TYPE 0: C251 V5.60.0
  .\out_file\zf_device_ips114.obj (zf_device_ips114)
         COMMENT TYPE 0: C251 V5.60.0
  .\out_file\zf_device_ips200.obj (zf_device_ips200)
         COMMENT TYPE 0: C251 V5.60.0
  .\out_file\zf_device_ips200pro.obj (zf_device_ips200pro)
         COMMENT TYPE 0: C251 V5.60.0
  .\out_file\zf_device_tft180.obj (zf_device_tft180)
         COMMENT TYPE 0: C251 V5.60.0
  .\out_file\zf_device_tsl1401.obj (zf_device_tsl1401)
         COMMENT TYPE 0: C251 V5.60.0
  .\out_file\zf_device_type.obj (zf_device_type)
         COMMENT TYPE 0: C251 V5.60.0
  .\out_file\zf_device_wireless_uart.obj (zf_device_wireless_uart)
         COMMENT TYPE 0: C251 V5.60.0
  .\out_file\seekfree_assistant.obj (seekfree_assistant)
         COMMENT TYPE 0: C251 V5.60.0
  .\out_file\seekfree_assistant_interface.obj (seekfree_assistant_interface)
         COMMENT TYPE 0: C251 V5.60.0
  .\out_file\motor.obj (motor)
         COMMENT TYPE 0: C251 V5.60.0
  .\out_file\key.obj (key)
         COMMENT TYPE 0: C251 V5.60.0
  .\out_file\adc.obj (adc)
         COMMENT TYPE 0: C251 V5.60.0
  .\out_file\uart.obj (uart)
         COMMENT TYPE 0: C251 V5.60.0
  .\out_file\pid.obj (pid)
         COMMENT TYPE 0: C251 V5.60.0
  .\out_file\encoder.obj (encoder)
         COMMENT TYPE 0: C251 V5.60.0
  .\out_file\normalization.obj (normalization)
         COMMENT TYPE 0: C251 V5.60.0
  .\out_file\control.obj (control)
         COMMENT TYPE 0: C251 V5.60.0
  .\out_file\IMU.obj (IMU)
         COMMENT TYPE 0: C251 V5.60.0
  .\out_file\task.obj (task)
         COMMENT TYPE 0: C251 V5.60.0
  .\out_file\quaternion.obj (quaternion)
         COMMENT TYPE 0: C251 V5.60.0
  .\out_file\isr.obj (isr)
         COMMENT TYPE 0: C251 V5.60.0
  .\out_file\main.obj (main)
         COMMENT TYPE 0: C251 V5.60.0
L251 LINKER/LOCATER V4.66.93.0                                                        01/25/2026  01:33:53  PAGE 3


  E:\TOOLS\KEIL5\KEIL_V5\C251\LIB\C2SFPL.LIB (?C?FPADD)
         COMMENT TYPE 0: A251 V4.69.6.0
  E:\TOOLS\KEIL5\KEIL_V5\C251\LIB\C2SFPL.LIB (?C?FPMUL)
         COMMENT TYPE 0: A251 V4.69.6.0
  E:\TOOLS\KEIL5\KEIL_V5\C251\LIB\C2SFPL.LIB (?C?FPDIV)
         COMMENT TYPE 0: A251 V4.69.6.0
  E:\TOOLS\KEIL5\KEIL_V5\C251\LIB\C2SFPL.LIB (?C?FPCMP)
         COMMENT TYPE 0: A251 V4.69.6.0
  E:\TOOLS\KEIL5\KEIL_V5\C251\LIB\C2SFPL.LIB (?C?FPNEG)
         COMMENT TYPE 0: A251 V4.69.6.0
  E:\TOOLS\KEIL5\KEIL_V5\C251\LIB\C2SFPL.LIB (?C?FCAST)
         COMMENT TYPE 0: A251 V4.69.6.0
  E:\TOOLS\KEIL5\KEIL_V5\C251\LIB\C2SFPL.LIB (?C?CASTF)
         COMMENT TYPE 0: A251 V4.69.6.0
  E:\TOOLS\KEIL5\KEIL_V5\C251\LIB\C2SFPL.LIB (PRINTF)
         COMMENT TYPE 0: A251 V4.69.6.0
  E:\TOOLS\KEIL5\KEIL_V5\C251\LIB\C2SFPL.LIB (SPRINTF)
         COMMENT TYPE 0: A251 V4.69.6.0
  E:\TOOLS\KEIL5\KEIL_V5\C251\LIB\C2SFPL.LIB (SQRT?_)
         COMMENT TYPE 0: A251 V4.69.6.0
  E:\TOOLS\KEIL5\KEIL_V5\C251\LIB\C2SFPL.LIB (pow)
         COMMENT TYPE 0: C251 V5.58.7
  E:\TOOLS\KEIL5\KEIL_V5\C251\LIB\C2SFPL.LIB (SIN?_)
         COMMENT TYPE 0: A251 V4.69.6.0
  E:\TOOLS\KEIL5\KEIL_V5\C251\LIB\C2SFPL.LIB (ATAN?_)
         COMMENT TYPE 0: A251 V4.69.6.0
  E:\TOOLS\KEIL5\KEIL_V5\C251\LIB\C2SFPL.LIB (ASIN?_)
         COMMENT TYPE 0: A251 V4.69.6.0
  E:\TOOLS\KEIL5\KEIL_V5\C251\LIB\C2SFPL.LIB (?C?FPGETOPN)
         COMMENT TYPE 0: A251 V4.69.6.0
  E:\TOOLS\KEIL5\KEIL_V5\C251\LIB\C2SFPL.LIB (_CHKFLOAT_?_)
         COMMENT TYPE 0: A251 V4.69.6.0
  E:\TOOLS\KEIL5\KEIL_V5\C251\LIB\C2SFPL.LIB (?C?PRNFMT)
         COMMENT TYPE 0: A251 V4.69.6.0
  E:\TOOLS\KEIL5\KEIL_V5\C251\LIB\C2SFPL.LIB (?C?FPSERIES)
         COMMENT TYPE 0: A251 V4.69.6.0
  E:\TOOLS\KEIL5\KEIL_V5\C251\LIB\C2SFPL.LIB (EXP?_)
         COMMENT TYPE 0: A251 V4.69.6.0
  E:\TOOLS\KEIL5\KEIL_V5\C251\LIB\C2SFPL.LIB (LOG?_)
         COMMENT TYPE 0: A251 V4.69.6.0
  E:\TOOLS\KEIL5\KEIL_V5\C251\LIB\C2SFPL.LIB (?C?FPCONVERT)
         COMMENT TYPE 0: A251 V4.69.6.0
  E:\TOOLS\KEIL5\KEIL_V5\C251\LIB\C2SFPL.LIB (?C?FTNPWR)
         COMMENT TYPE 0: A251 V4.69.6.0
  E:\TOOLS\KEIL5\KEIL_V5\C251\LIB\C2SL.LIB (?C?INITHDATA)
         COMMENT TYPE 0: A251 V4.69.6.0
  E:\TOOLS\KEIL5\KEIL_V5\C251\LIB\C2SL.LIB (?C?SIDIV)
         COMMENT TYPE 0: A251 V4.69.6.0
  E:\TOOLS\KEIL5\KEIL_V5\C251\LIB\C2SL.LIB (?C?LMUL)
         COMMENT TYPE 0: A251 V4.69.6.0
  E:\TOOLS\KEIL5\KEIL_V5\C251\LIB\C2SL.LIB (?C?LIMUL)
         COMMENT TYPE 0: A251 V4.69.6.0
  E:\TOOLS\KEIL5\KEIL_V5\C251\LIB\C2SL.LIB (?C?ULDIV)
         COMMENT TYPE 0: A251 V4.69.6.0
  E:\TOOLS\KEIL5\KEIL_V5\C251\LIB\C2SL.LIB (?C?SLDIV)
         COMMENT TYPE 0: A251 V4.69.6.0
  E:\TOOLS\KEIL5\KEIL_V5\C251\LIB\C2SL.LIB (?C?BMOVEPP)
         COMMENT TYPE 0: A251 V4.69.6.0
  E:\TOOLS\KEIL5\KEIL_V5\C251\LIB\C2SL.LIB (STRNCMP)
         COMMENT TYPE 0: C251 V5.58.7
  E:\TOOLS\KEIL5\KEIL_V5\C251\LIB\C2SL.LIB (STRNCPY)
         COMMENT TYPE 0: C251 V5.58.7
  E:\TOOLS\KEIL5\KEIL_V5\C251\LIB\C2SL.LIB (STRLEN)
         COMMENT TYPE 0: C251 V5.58.7
  E:\TOOLS\KEIL5\KEIL_V5\C251\LIB\C2SL.LIB (STRCHR)
L251 LINKER/LOCATER V4.66.93.0                                                        01/25/2026  01:33:53  PAGE 4


         COMMENT TYPE 0: C251 V5.58.7
  E:\TOOLS\KEIL5\KEIL_V5\C251\LIB\C2SL.LIB (memcpy)
         COMMENT TYPE 0: C251 V5.58.7
  E:\TOOLS\KEIL5\KEIL_V5\C251\LIB\C2SL.LIB (memset)
         COMMENT TYPE 0: C251 V5.58.7
  E:\TOOLS\KEIL5\KEIL_V5\C251\LIB\C2SL.LIB (?C?INITHDATA_END)
         COMMENT TYPE 0: A251 V4.69.6.0


ACTIVE MEMORY CLASSES OF MODULE:  .\out_file\SEEKFREE (?C_START)

BASE        START       END         USED      MEMORY CLASS
==========================================================
000000H     000000H     000FFFH     000800H   EDATA
000000H     000000H     000FFFH               HDATA
FF0000H     FF0000H     FFFFFFH     00763DH   CODE
010000H     010000H     01FFFFH     0009F2H   XDATA
000000H     FF0000H     FFFFFFH     00108CH   HCONST
000020H.0   000020H.0   00002FH.7             BIT
FF0000H     FF0000H     FFFFFFH     000004H   CONST
000000H     000000H     00007FH     000008H   DATA


MEMORY MAP OF MODULE:  .\out_file\SEEKFREE (?C_START)


START     STOP      LENGTH    ALIGN  RELOC    MEMORY CLASS   SEGMENT NAME
=========================================================================
000000H   000007H   000008H   ---    AT..     DATA           "REG BANK 0"
000008H   000807H   000800H   BYTE   UNIT     EDATA          ?STACK
000808H   00FFFFH   00F7F8H   ---    ---      **GAP**
010000H   010201H   000202H   BYTE   INSEG    XDATA          ?XD?ZF_DEVICE_TSL1401
010202H   0103C9H   0001C8H   BYTE   INSEG    XDATA          ?XD?ZF_DEVICE_GPS_TAU1201
0103CAH   010506H   00013DH   BYTE   INSEG    XDATA          ?XD?SEEKFREE_ASSISTANT
010507H   01063AH   000134H   BYTE   INSEG    XDATA          ?XD?PID
01063BH   0106CBH   000091H   BYTE   UNIT     XDATA          _XDATA_GROUP_
0106CCH   010724H   000059H   BYTE   INSEG    XDATA          ?XD?ZF_COMMON_DEBUG
010725H   01077BH   000057H   BYTE   INSEG    XDATA          ?XD?ZF_DEVICE_BLE6A20
01077CH   0107D2H   000057H   BYTE   INSEG    XDATA          ?XD?ZF_DEVICE_WIRELESS_UART
0107D3H   010823H   000051H   BYTE   INSEG    XDATA          ?XD?IMU
010824H   010870H   00004DH   BYTE   INSEG    XDATA          ?XD?ZF_DEVICE_IPS200PRO
010871H   0108A3H   000033H   BYTE   INSEG    XDATA          ?XD?UART
0108A4H   0108CCH   000029H   BYTE   INSEG    XDATA          ?XD?ADC
0108CDH   0108EAH   00001EH   BYTE   INSEG    XDATA          ?XD?ZF_COMMON_TYPEDEF
0108EBH   010908H   00001EH   BYTE   INSEG    XDATA          ?XD?ZF_DEVICE_IMU963RA
010909H   010920H   000018H   BYTE   INSEG    XDATA          ?XD?CONTROL
010921H   010934H   000014H   BYTE   INSEG    XDATA          ?XD?ZF_DEVICE_ICM20602
010935H   010948H   000014H   BYTE   INSEG    XDATA          ?XD?ZF_DEVICE_IMU660RA
010949H   010955H   00000DH   BYTE   INSEG    XDATA          ?XD?ZF_DEVICE_DL1A
010956H   010962H   00000DH   BYTE   INSEG    XDATA          ?XD?ZF_DEVICE_DL1B
010963H   01096EH   00000CH   BYTE   INSEG    XDATA          ?XD?ZF_DRIVER_TIMER
01096FH   01097AH   00000CH   BYTE   INSEG    XDATA          ?XD?ZF_DRIVER_UART
01097BH   010986H   00000CH   BYTE   INSEG    XDATA          ?XD?ZF_DEVICE_IMU660RB
010987H   010992H   00000CH   BYTE   INSEG    XDATA          ?XD?ENCODER
010993H   01099CH   00000AH   BYTE   INSEG    XDATA          ?XD?ZF_DEVICE_IPS200
01099DH   0109A6H   00000AH   BYTE   INSEG    XDATA          ?XD?NORMALIZATION
0109A7H   0109AFH   000009H   BYTE   INSEG    XDATA          ?XD?MAIN
0109B0H   0109B7H   000008H   BYTE   UNIT     XDATA          ?XD?SOFT_IIC_DELAY?ZF_DRIVER_SOFT_IIC
0109B8H   0109BFH   000008H   BYTE   INSEG    XDATA          ?XD?ZF_DEVICE_IPS114
0109C0H   0109C7H   000008H   BYTE   INSEG    XDATA          ?XD?ZF_DEVICE_TFT180
0109C8H   0109CFH   000008H   BYTE   INSEG    XDATA          ?XD?ZF_DEVICE_TYPE
0109D0H   0109D5H   000006H   BYTE   INSEG    XDATA          ?XD?ZF_DRIVER_ENCODER
0109D6H   0109D9H   000004H   BYTE   INSEG    XDATA          ?XD?ZF_COMMON_CLOCK
0109DAH   0109DDH   000004H   BYTE   INSEG    XDATA          ?XD?ZF_DRIVER_DELAY
0109DEH   0109E1H   000004H   BYTE   INSEG    XDATA          ?XD?SEEKFREE_ASSISTANT_INTERFACE
L251 LINKER/LOCATER V4.66.93.0                                                        01/25/2026  01:33:53  PAGE 5


0109E2H   0109E5H   000004H   BYTE   INSEG    XDATA          ?XD?KEY
0109E6H   0109E8H   000003H   BYTE   UNIT     XDATA          ?XD?SOFT_IIC_READ_DATA?ZF_DRIVER_SOFT_IIC
0109E9H   0109EAH   000002H   BYTE   UNIT     XDATA          ?XD?SOFT_IIC_SEND_DATA?ZF_DRIVER_SOFT_IIC
0109EBH   0109ECH   000002H   BYTE   INSEG    XDATA          ?XD?MOTOR
0109EDH   0109EDH   000001H   BYTE   INSEG    XDATA          ?XD?ZF_DRIVER_ADC
0109EEH   0109EEH   000001H   BYTE   UNIT     XDATA          ?XD?SOFT_IIC_SEND_ACK?ZF_DRIVER_SOFT_IIC
0109EFH   0109EFH   000001H   BYTE   UNIT     XDATA          ?XD?SOFT_IIC_WAIT_ACK?ZF_DRIVER_SOFT_IIC
0109F0H   0109F0H   000001H   BYTE   INSEG    XDATA          ?XD?TASK
0109F1H   0109F1H   000001H   BYTE   INSEG    XDATA          ?XD?ISR
0109F2H   FEFFFFH   FDF60EH   ---    ---      **GAP**
FF0000H   FF0002H   000003H   ---    OFFS..   CODE           ?CO?START251?4
FF0003H   FF000AH   000008H   BYTE   INSEG    CODE           ?PR?IMU660RB_WRITE_REGISTER?ZF_DEVICE_IMU660RB
FF000BH   FF000DH   000003H   ---    OFFS..   CODE           ?PR?IV?1
FF000EH   FF0018H   00000BH   BYTE   INSEG    CODE           ?PR?DELAY_CYCLES?ZF_DRIVER_DELAY
FF0019H   FF001AH   000002H   BYTE   INSEG    CODE           ?PR?GET_CONTROL_MODE?TASK
FF001BH   FF001DH   000003H   ---    OFFS..   CODE           ?PR?IV?3
FF001EH   FF0020H   000003H   BYTE   INSEG    CODE           ?PR?INTERRUPT_GLOBAL_ENABLE?ZF_COMMON_INTERRUPT
FF0021H   FF0022H   000002H   ---    ---      **GAP**
FF0023H   FF0025H   000003H   ---    OFFS..   CODE           ?PR?IV?4
FF0026H   FF0041H   00001CH   BYTE   INSEG    CODE           ?PR?IMU660RB_SIMSPI_R_REG_BYTE?ZF_DEVICE_IMU660RB
FF0042H   FF0042H   000001H   ---    ---      **GAP**
FF0043H   FF0045H   000003H   ---    OFFS..   CODE           ?PR?IV?8
FF0046H   FF005DH   000018H   BYTE   INSEG    CODE           ?PR?SYSTEM_DELAY_MS?ZF_DRIVER_DELAY
FF005EH   FF0060H   000003H   BYTE   INSEG    CODE           ?PR?IMU_UPDATE_TASK?TASK
FF0061H   FF0062H   000002H   ---    ---      **GAP**
FF0063H   FF0065H   000003H   ---    OFFS..   CODE           ?PR?IV?12
FF0066H   FF008AH   000025H   BYTE   INSEG    CODE           ?PR?CONSTRAIN_FLOAT?PID
FF008BH   FF008DH   000003H   ---    OFFS..   CODE           ?PR?IV?17
FF008EH   FF0090H   000003H   BYTE   INSEG    CODE           ?PR?PID_ONLY_CONTROL?TASK
FF0091H   FF0092H   000002H   ---    ---      **GAP**
FF0093H   FF0095H   000003H   ---    OFFS..   CODE           ?PR?IV?18
FF0096H   FF0098H   000003H   BYTE   INSEG    CODE           ?PR?PIT_HANDLER_1?MAIN
FF0099H   FF009AH   000002H   ---    ---      **GAP**
FF009BH   FF009DH   000003H   ---    OFFS..   CODE           ?PR?IV?19
FF009EH   FF00A0H   000003H   BYTE   INSEG    CODE           ?PR?PIT_HANDLER_2?MAIN
FF00A1H   FF00A2H   000002H   ---    ---      **GAP**
FF00A3H   FF00A5H   000003H   ---    OFFS..   CODE           ?PR?IV?20
FF00A6H   FF0198H   0000F3H   BYTE   INSEG    CODE           ?PR?MY_ASIN?QUATERNION
FF0199H   FF019AH   000002H   ---    ---      **GAP**
FF019BH   FF019DH   000003H   ---    OFFS..   CODE           ?CO?stc32g_isr?1
FF019EH   FF01A1H   000004H   BYTE   UNIT     CONST          ?CO?PRINTF
FF01A2H   FF01AAH   000009H   ---    ---      **GAP**
FF01ABH   FF01ADH   000003H   ---    OFFS..   CODE           ?CO?stc32g_isr?2
FF01AEH   FF01BAH   00000DH   ---    ---      **GAP**
FF01BBH   FF01BDH   000003H   ---    OFFS..   CODE           ?CO?stc32g_isr?3
FF01BEH   FF01CAH   00000DH   ---    ---      **GAP**
FF01CBH   FF01CDH   000003H   ---    OFFS..   CODE           ?CO?stc32g_isr?4
FF01CEH   FF21CDH   002000H   BYTE   UNIT     CODE           ?CO?ZF_DEVICE_CONFIG
FF21CEH   FF3070H   000EA3H   BYTE   UNIT     CODE           ?C?LIB_CODE
FF3071H   FF3660H   0005F0H   BYTE   UNIT     CODE           ?CO?ZF_COMMON_FONT
FF3661H   FF3C16H   0005B6H   BYTE   INSEG    CODE           ?PR?MAHONY_UPDATE?QUATERNION
FF3C17H   FF3FE7H   0003D1H   BYTE   INSEG    CODE           ?PR?PWM_INIT?ZF_DRIVER_PWM
FF3FE8H   FF4308H   000321H   BYTE   INSEG    CODE           ?PR?FIFO_WRITE_BUFFER?ZF_COMMON_FIFO
FF4309H   FF45A3H   00029BH   BYTE   INSEG    CODE           ?PR?GPIO_SET_DIR?ZF_DRIVER_GPIO
FF45A4H   FF4832H   00028FH   BYTE   INSEG    CODE           ?PR?_M?MAIN
FF4833H   FF4A28H   0001F6H   BYTE   INSEG    CODE           ?PR?UART_INIT?ZF_DRIVER_UART
FF4A29H   FF4C01H   0001D9H   BYTE   INSEG    CODE           ?PR?QUATERNION_TOEULER?QUATERNION
FF4C02H   FF4DCCH   0001CBH   BYTE   INSEG    CODE           ?PR?IMU_UPDATE?IMU
FF4DCDH   FF4F5CH   000190H   BYTE   INSEG    CODE           ?PR?GPIO_SET_LEVEL?ZF_DRIVER_GPIO
FF4F5DH   FF50CFH   000173H   BYTE   INSEG    CODE           ?PR?GPIO_SET_MODE?ZF_DRIVER_GPIO
FF50D0H   FF522AH   00015BH   BYTE   INSEG    CODE           ?PR?PIT_INIT?ZF_DRIVER_PIT
FF522BH   FF5365H   00013BH   BYTE   INSEG    CODE           ?PR?PID_CALC_POSITION?PID
FF5366H   FF5493H   00012EH   BYTE   INSEG    CODE           ?PR?PID_CALC_INCREMENT?PID
FF5494H   FF55AFH   00011CH   BYTE   INSEG    CODE           ?PR?UART_WRITE_BUFFER?ZF_DRIVER_UART
FF55B0H   FF56C8H   000119H   BYTE   INSEG    CODE           ?PR?PWM_SET_DUTY?ZF_DRIVER_PWM
L251 LINKER/LOCATER V4.66.93.0                                                        01/25/2026  01:33:53  PAGE 6


FF56C9H   FF57D4H   00010CH   BYTE   INSEG    CODE           ?PR?PD_DIRECTION_GYRO_LOOP?PID
FF57D5H   FF58DAH   000106H   BYTE   INSEG    CODE           ?PR?SDSD_CALCULATE?CONTROL
FF58DBH   FF59DBH   000101H   BYTE   INSEG    CODE           ?PR?SET_SYS_CLK?ZF_COMMON_CLOCK
FF59DCH   FF5AD4H   0000F9H   BYTE   INSEG    CODE           ?PR?GPIO_GET_LEVEL?ZF_DRIVER_GPIO
FF5AD5H   FF5BCCH   0000F8H   BYTE   INSEG    CODE           ?PR?MY_ATAN2?QUATERNION
FF5BCDH   FF5CB1H   0000E5H   BYTE   INSEG    CODE           ?PR?GPIO_SET_IMPEDANCE?ZF_DRIVER_GPIO
FF5CB2H   FF5D96H   0000E5H   BYTE   INSEG    CODE           ?PR?MOTOR_PID_CONTROL?PID
FF5D97H   FF5E6FH   0000D9H   BYTE   INSEG    CODE           ?PR?ENCODER_DIR_INIT?ZF_DRIVER_ENCODER
FF5E70H   FF5F26H   0000B7H   BYTE   INSEG    CODE           ?PR?UART_DMA_INIT?ZF_DRIVER_UART
FF5F27H   FF5FDBH   0000B5H   BYTE   INSEG    CODE           ?PR?ENCODER_GET_FILTERED?ENCODER
FF5FDCH   FF608FH   0000B4H   BYTE   INSEG    CODE           ?PR?SOFT_IIC_READ_DATA?ZF_DRIVER_SOFT_IIC
FF6090H   FF613BH   0000ACH   BYTE   INSEG    CODE           ?PR?GPIO_INIT?ZF_DRIVER_GPIO
FF613CH   FF61E5H   0000AAH   BYTE   INSEG    CODE           ?PR?NORMALIZATION?NORMALIZATION
FF61E6H   FF6289H   0000A4H   BYTE   INSEG    CODE           ?PR?PID_INIT?PID
FF628AH   FF6320H   000097H   BYTE   INSEG    CODE           ?PR?DMA_UART1_IRQHANDLER?ISR
FF6321H   FF63ACH   00008CH   BYTE   INSEG    CODE           ?PR?SOFT_IIC_SEND_DATA?ZF_DRIVER_SOFT_IIC
FF63ADH   FF642AH   00007EH   BYTE   INSEG    CODE           ?PR?ADC_SAMPLE?ADC
FF642BH   FF64A3H   000079H   BYTE   INSEG    CODE           ?PR?SOFT_IIC_WAIT_ACK?ZF_DRIVER_SOFT_IIC
FF64A4H   FF651CH   000079H   BYTE   INSEG    CODE           ?PR?IMU_GET_DATA?IMU
FF651DH   FF6595H   000079H   BYTE   INSEG    CODE           ?PR?DMA_UART2_IRQHANDLER?ISR
FF6596H   FF660EH   000079H   BYTE   INSEG    CODE           ?PR?DMA_UART3_IRQHANDLER?ISR
FF660FH   FF6687H   000079H   BYTE   INSEG    CODE           ?PR?DMA_UART4_IRQHANDLER?ISR
FF6688H   FF66FCH   000075H   BYTE   INSEG    CODE           ?PR?FIFO_INIT?ZF_COMMON_FIFO
FF66FDH   FF6771H   000075H   BYTE   INSEG    CODE           ?PR?MOTOR_INIT?MOTOR
FF6772H   FF67E1H   000070H   BYTE   INSEG    CODE           ?PR?SOFT_IIC_SEND_ACK?ZF_DRIVER_SOFT_IIC
FF67E2H   FF684EH   00006DH   BYTE   INSEG    CODE           ?PR?ENCODER_GET_COUNT?ZF_DRIVER_ENCODER
FF684FH   FF68B8H   00006AH   BYTE   INSEG    CODE           ?PR?CLOCK_INIT?ZF_COMMON_CLOCK
FF68B9H   FF6922H   00006AH   BYTE   INSEG    CODE           ?PR?IMU660RB_INIT?ZF_DEVICE_IMU660RB
FF6923H   FF698AH   000068H   BYTE   INSEG    CODE           ?PR?DEBUG_ASSERT_HANDLER?ZF_COMMON_DEBUG
FF698BH   FF69ECH   000062H   BYTE   INSEG    CODE           ?PR?SOFT_IIC_STOP?ZF_DRIVER_SOFT_IIC
FF69EDH   FF6A4DH   000061H   BYTE   INSEG    CODE           ?PR?ADC_INIT?ZF_DRIVER_ADC
FF6A4EH   FF6AADH   000060H   BYTE   INSEG    CODE           ?PR?UART_RX_START_BUFF?ZF_DRIVER_UART
FF6AAEH   FF6B07H   00005AH   BYTE   INSEG    CODE           ?PR?DEBUG_INIT?ZF_COMMON_DEBUG
FF6B08H   FF6B60H   000059H   BYTE   INSEG    CODE           ?PR?MOTOR_CONTROL_TASK?TASK
FF6B61H   FF6BB8H   000058H   BYTE   INSEG    CODE           ?PR?MAHONY_GETEULER?QUATERNION
FF6BB9H   FF6C0FH   000057H   BYTE   INSEG    CODE           ?PR?SOFT_IIC_START?ZF_DRIVER_SOFT_IIC
FF6C10H   FF6C30H   000021H   BYTE   UNIT     CODE           ?C_C51STARTUP
FF6C31H   FF6C61H   000031H   BYTE   UNIT     CODE           ?C_C51STARTUP?2
FF6C62H   FF6C64H   000003H   BYTE   UNIT     CODE           ?C_C51STARTUP?3
FF6C65H   FF6CB5H   000051H   BYTE   INSEG    CODE           ?PR?ENCODER_CLEAR_COUNT?ZF_DRIVER_ENCODER
FF6CB6H   FF6D06H   000051H   BYTE   INSEG    CODE           ?PR?ADC_GETVAL_FAST?ADC
FF6D07H   FF6D56H   000050H   BYTE   INSEG    CODE           ?PR?IMU660RB_GET_GYRO?ZF_DEVICE_IMU660RB
FF6D57H   FF6DA6H   000050H   BYTE   INSEG    CODE           ?PR?IMU660RB_GET_ACC?ZF_DEVICE_IMU660RB
FF6DA7H   FF6DF2H   00004CH   BYTE   INSEG    CODE           ?PR?SENSOR_CHECK_VALID?TASK
FF6DF3H   FF6E3BH   000049H   BYTE   INSEG    CODE           ?PR?UART_QUERY_BYTE?ZF_DRIVER_UART
FF6E3CH   FF6E83H   000048H   BYTE   INSEG    CODE           ?PR?MAHONY_INIT?QUATERNION
FF6E84H   FF6EC9H   000046H   BYTE   INSEG    CODE           ?PR?FIFO_HEAD_OFFSET?ZF_COMMON_FIFO
FF6ECAH   FF6F0DH   000044H   BYTE   INSEG    CODE           ?PR?SYSTEM_DELAY_INIT?ZF_DRIVER_DELAY
FF6F0EH   FF6F51H   000044H   BYTE   INSEG    CODE           ?PR?MY_SQRT?QUATERNION
FF6F52H   FF6F91H   000040H   BYTE   INSEG    CODE           ?PR?PD_INIT?PID
FF6F92H   FF6FD0H   00003FH   BYTE   INSEG    CODE           ?PR?IMU660RB_SIMSPI_R_REG_BYTES?ZF_DEVICE_IMU660RB
FF6FD1H   FF700EH   00003EH   BYTE   INSEG    CODE           ?PR?TM0_IRQHANDLER?ISR
FF700FH   FF704CH   00003EH   BYTE   INSEG    CODE           ?PR?TM1_IRQHANDLER?ISR
FF704DH   FF708AH   00003EH   BYTE   INSEG    CODE           ?PR?TM2_IRQHANDLER?ISR
FF708BH   FF70C8H   00003EH   BYTE   INSEG    CODE           ?PR?TM3_IRQHANDLER?ISR
FF70C9H   FF7106H   00003EH   BYTE   INSEG    CODE           ?PR?TM4_IRQHANDLER?ISR
FF7107H   FF7143H   00003DH   BYTE   INSEG    CODE           ?PR?ANGLE_NORMALIZE?IMU
FF7144H   FF717FH   00003CH   BYTE   INSEG    CODE           ?PR?UART_RX_INTERRUPT?ZF_DRIVER_UART
FF7180H   FF71BBH   00003CH   BYTE   INSEG    CODE           ?PR?KEY_INIT?KEY
FF71BCH   FF71F5H   00003AH   BYTE   INSEG    CODE           ?PR?LIMIT?ADC
FF71F6H   FF722FH   00003AH   BYTE   INSEG    CODE           ?PR?IMU_INIT?IMU
FF7230H   FF7268H   000039H   BYTE   INSEG    CODE           ?PR?DEBUG_INTERRUPR_HANDLER?ZF_COMMON_DEBUG
FF7269H   FF72A0H   000038H   BYTE   INSEG    CODE           ?PR?SOFT_IIC_DELAY?ZF_DRIVER_SOFT_IIC
FF72A1H   FF72D6H   000036H   BYTE   INSEG    CODE           ?PR?PD_CONTROL_WITH_SENSOR_CHECK?TASK
FF72D7H   FF7309H   000033H   BYTE   INSEG    CODE           ?PR?ENCODER_INIT?ENCODER
L251 LINKER/LOCATER V4.66.93.0                                                        01/25/2026  01:33:53  PAGE 7


FF730AH   FF733BH   000032H   BYTE   INSEG    CODE           ?PR?GET_MODE_NAME?TASK
FF733CH   FF736CH   000031H   BYTE   INSEG    CODE           ?PR?TIMER_FUNCITON_CHECK?ZF_DRIVER_TIMER
FF736DH   FF739DH   000031H   BYTE   INSEG    CODE           ?PR?UART_FUNCITON_CHECK?ZF_DRIVER_UART
FF739EH   FF73CDH   000030H   BYTE   INSEG    CODE           ?PR?ADC_CONVERT?ZF_DRIVER_ADC
FF73CEH   FF73FDH   000030H   BYTE   INSEG    CODE           ?PR?SDSD_CONTROL_WITH_SENSOR_CHECK?TASK
FF73FEH   FF742BH   00002EH   BYTE   INSEG    CODE           ?PR?SDSD_INIT?CONTROL
FF742CH   FF7458H   00002DH   BYTE   INSEG    CODE           ?PR?IMU660RB_SELF_CHECK?ZF_DEVICE_IMU660RB
FF7459H   FF7484H   00002CH   BYTE   INSEG    CODE           ?PR?IIR_LOWPASS?ENCODER
FF7485H   FF74AFH   00002BH   BYTE   INSEG    CODE           ?PR?ADC_ALL_INIT?ADC
FF74B0H   FF74D7H   000028H   BYTE   INSEG    CODE           ?PR?MOTOR_RIGHTFORWARD?MOTOR
FF74D8H   FF74FFH   000028H   BYTE   INSEG    CODE           ?PR?MOTOR_LEFTFORWARD?MOTOR
FF7500H   FF7526H   000027H   BYTE   INSEG    CODE           ?PR?MOTOR_RIGHTBACKWARD?MOTOR
FF7527H   FF754DH   000027H   BYTE   INSEG    CODE           ?PR?MOTOR_LEFTBACKWARD?MOTOR
FF754EH   FF7572H   000025H   BYTE   INSEG    CODE           ?PR?MEMCPY?_?MEMCPY
FF7573H   FF7596H   000024H   BYTE   INSEG    CODE           ?PR?MAIN?MAIN
FF7597H   FF75B7H   000021H   BYTE   INSEG    CODE           ?PR?IMU660RB_SIMSPI_WR_BYTE?ZF_DEVICE_IMU660RB
FF75B8H   FF75D5H   00001EH   BYTE   INSEG    CODE           ?PR?FAST_INVSQRT?QUATERNION
FF75D6H   FF75EBH   000016H   BYTE   INSEG    CODE           ?PR?IMU660RB_READ_REGISTER?ZF_DEVICE_IMU660RB
FF75ECH   FF75FEH   000013H   BYTE   INSEG    CODE           ?PR?UART_WRITE_BYTE?ZF_DRIVER_UART
FF75FFH   FF7611H   000013H   BYTE   INSEG    CODE           ?PR?POSITION_ERROR_CALC?TASK
FF7612H   FF7623H   000012H   BYTE   INSEG    CODE           ?PR?IMU660RB_GYRO_TRANSITION?ZF_DEVICE_IMU660RB
FF7624H   FF7635H   000012H   BYTE   INSEG    CODE           ?PR?IMU660RB_ACC_TRANSITION?ZF_DEVICE_IMU660RB
FF7636H   FF7645H   000010H   BYTE   INSEG    CODE           ?PR?IMU660RB_READ_REGISTERS?ZF_DEVICE_IMU660RB
FF7646H   FF7654H   00000FH   BYTE   INSEG    CODE           ?PR?IMU660RB_SIMSPI_W_REG_BYTE?ZF_DEVICE_IMU660RB
FF7655H   FF7662H   00000EH   BYTE   INSEG    CODE           ?PR?PUTCHAR?ZF_COMMON_DEBUG
FF7663H   FF7670H   00000EH   BYTE   INSEG    CODE           ?PR?PID_SET_TARGET?PID
FF7671H   FF7B84H   000514H   BYTE   UNIT     HCONST         ?C_INITHDATA
FF7B85H   FF7D84H   000200H   BYTE   UNIT     HCONST         ?HC?ZF_DRIVER_EEPROM
FF7D85H   FF7EB3H   00012FH   BYTE   UNIT     HCONST         ?HC?ZF_DEVICE_DL1A
FF7EB4H   FF7F83H   0000D0H   BYTE   UNIT     HCONST         ?HC?ZF_DEVICE_IMU963RA
FF7F84H   FF802AH   0000A7H   BYTE   UNIT     HCONST         ?HC?ZF_DEVICE_IMU660RA
FF802BH   FF80CEH   0000A4H   BYTE   UNIT     HCONST         ?HC?SEEKFREE_ASSISTANT
FF80CFH   FF8170H   0000A2H   BYTE   UNIT     HCONST         ?HC?ZF_DEVICE_GPS_TAU1201
FF8171H   FF81FAH   00008AH   BYTE   UNIT     HCONST         ?HC?ZF_DRIVER_PWM
FF81FBH   FF8283H   000089H   BYTE   UNIT     HCONST         ?HC?MAIN
FF8284H   FF830BH   000088H   BYTE   UNIT     HCONST         ?HC?ZF_DEVICE_ICM20602
FF830CH   FF8376H   00006BH   BYTE   UNIT     HCONST         ?HC?ZF_DRIVER_UART
FF8377H   FF83CDH   000057H   BYTE   UNIT     HCONST         ?HC?ZF_COMMON_FUNCTION
FF83CEH   FF8423H   000056H   BYTE   UNIT     HCONST         ?HC?ADC
FF8424H   FF8464H   000041H   BYTE   UNIT     HCONST         ?HC?TASK
FF8465H   FF8498H   000034H   BYTE   UNIT     HCONST         ?HC?ZF_DEVICE_WIRELESS_UART
FF8499H   FF84CBH   000033H   BYTE   UNIT     HCONST         ?HC?ZF_DEVICE_IPS114
FF84CCH   FF84FEH   000033H   BYTE   UNIT     HCONST         ?HC?ZF_DEVICE_IPS200
FF84FFH   FF8531H   000033H   BYTE   UNIT     HCONST         ?HC?ZF_DEVICE_TFT180
FF8532H   FF8560H   00002FH   BYTE   UNIT     HCONST         ?HC?ZF_DRIVER_SOFT_IIC
FF8561H   FF858FH   00002FH   BYTE   UNIT     HCONST         ?HC?ZF_DRIVER_SOFT_SPI
FF8590H   FF85BDH   00002EH   BYTE   UNIT     HCONST         ?HC?ZF_DRIVER_ENCODER
FF85BEH   FF85EBH   00002EH   BYTE   UNIT     HCONST         ?HC?ZF_DEVICE_BLE6A20
FF85ECH   FF8616H   00002BH   BYTE   UNIT     HCONST         ?HC?ZF_COMMON_FIFO
FF8617H   FF8641H   00002BH   BYTE   UNIT     HCONST         ?HC?ZF_DRIVER_GPIO
FF8642H   FF866BH   00002AH   BYTE   UNIT     HCONST         ?HC?ZF_DRIVER_ADC
FF866CH   FF8695H   00002AH   BYTE   UNIT     HCONST         ?HC?ZF_DRIVER_SPI
FF8696H   FF86BCH   000027H   BYTE   UNIT     HCONST         ?HC?IMU
FF86BDH   FF86E1H   000025H   BYTE   UNIT     HCONST         ?HC?ZF_COMMON_DEBUG
FF86E2H   FF86FCH   00001BH   BYTE   UNIT     HCONST         ?HC?ZF_DEVICE_IMU660RB

* * * * * * * * *   R E M O V E D     S E G M E N T S   * * * * * * * *
   *DEL*:           00003EH   BYTE   INSEG    CODE           ?PR?DEBUG_READ_BUFFER?ZF_COMMON_DEBUG
   *DEL*:           00002DH   BYTE   INSEG    CODE           ?PR?DEBUG_SEND_BUFFER?ZF_COMMON_DEBUG
   *DEL*:           000004H   BYTE   UNIT     XDATA          ?XD?DEBUG_READ_BUFFER?ZF_COMMON_DEBUG
   *DEL*:           000361H   BYTE   INSEG    CODE           ?PR?FIFO_READ_BUFFER?ZF_COMMON_FIFO
   *DEL*:           00009DH   BYTE   INSEG    CODE           ?PR?FIFO_CLEAR?ZF_COMMON_FIFO
   *DEL*:           000046H   BYTE   INSEG    CODE           ?PR?FIFO_END_OFFSET?ZF_COMMON_FIFO
   *DEL*:           000033H   BYTE   INSEG    CODE           ?PR?FIFO_USED?ZF_COMMON_FIFO
   *DEL*:           000002H   BYTE   UNIT     XDATA          ?XD?FIFO_CLEAR?ZF_COMMON_FIFO
L251 LINKER/LOCATER V4.66.93.0                                                        01/25/2026  01:33:53  PAGE 8


   *DEL*:           000014H   BYTE   UNIT     XDATA          ?XD?FIFO_READ_BUFFER?ZF_COMMON_FIFO
   *DEL*:           00021AH   BYTE   INSEG    CODE           ?PR?FUNC_DOUBLE_TO_STR?ZF_COMMON_FUNCTION
   *DEL*:           00018AH   BYTE   INSEG    CODE           ?PR?FUNC_STR_TO_DOUBLE?ZF_COMMON_FUNCTION
   *DEL*:           00008AH   BYTE   INSEG    CODE           ?PR?NUMBER_CONVERSION_ASCII?ZF_COMMON_FUNCTION
   *DEL*:           00021AH   BYTE   INSEG    CODE           ?PR?FUNC_FLOAT_TO_STR?ZF_COMMON_FUNCTION
   *DEL*:           00018AH   BYTE   INSEG    CODE           ?PR?FUNC_STR_TO_FLOAT?ZF_COMMON_FUNCTION
   *DEL*:           000024H   BYTE   INSEG    CODE           ?PR?FUNC_SOFT_DELAY?ZF_COMMON_FUNCTION
   *DEL*:           000681H   BYTE   INSEG    CODE           ?PR?ZF_SPRINTF?ZF_COMMON_FUNCTION
   *DEL*:           0000CAH   BYTE   INSEG    CODE           ?PR?FUNC_UINT_TO_STR?ZF_COMMON_FUNCTION
   *DEL*:           000076H   BYTE   INSEG    CODE           ?PR?FUNC_STR_TO_UINT?ZF_COMMON_FUNCTION
   *DEL*:           0000F6H   BYTE   INSEG    CODE           ?PR?FUNC_HEX_TO_STR?ZF_COMMON_FUNCTION
   *DEL*:           0000F5H   BYTE   INSEG    CODE           ?PR?FUNC_STR_TO_HEX?ZF_COMMON_FUNCTION
   *DEL*:           00011FH   BYTE   INSEG    CODE           ?PR?FUNC_INT_TO_STR?ZF_COMMON_FUNCTION
   *DEL*:           0000B8H   BYTE   INSEG    CODE           ?PR?FUNC_STR_TO_INT?ZF_COMMON_FUNCTION
   *DEL*:           000019H   BYTE   INSEG    CODE           ?PR?FUNC_GET_GREATEST_COMMON_DIVISOR?ZF_COMMON_FUNCTION
   *DEL*:           00040AH   BYTE   INSEG    CODE           ?PR?VSNPRINTF?ZF_COMMON_FUNCTION
   *DEL*:           00003EH   BYTE   INSEG    CODE           ?PR?PRINTF_REVERSE_ORDER?ZF_COMMON_FUNCTION
   *DEL*:           000004H   BYTE   UNIT     XDATA          ?XD?FUNC_SOFT_DELAY?ZF_COMMON_FUNCTION
   *DEL*:           000005H   BYTE   UNIT     XDATA          ?XD?FUNC_STR_TO_INT?ZF_COMMON_FUNCTION
   *DEL*:           000019H   BYTE   UNIT     XDATA          ?XD?FUNC_INT_TO_STR?ZF_COMMON_FUNCTION
   *DEL*:           000004H   BYTE   UNIT     XDATA          ?XD?FUNC_STR_TO_UINT?ZF_COMMON_FUNCTION
   *DEL*:           000015H   BYTE   UNIT     XDATA          ?XD?FUNC_UINT_TO_STR?ZF_COMMON_FUNCTION
   *DEL*:           00000DH   BYTE   UNIT     XDATA          ?XD?FUNC_STR_TO_FLOAT?ZF_COMMON_FUNCTION
   *DEL*:           000026H   BYTE   UNIT     XDATA          ?XD?FUNC_FLOAT_TO_STR?ZF_COMMON_FUNCTION
   *DEL*:           00000DH   BYTE   UNIT     XDATA          ?XD?FUNC_STR_TO_DOUBLE?ZF_COMMON_FUNCTION
   *DEL*:           000034H   BYTE   UNIT     XDATA          ?XD?FUNC_DOUBLE_TO_STR?ZF_COMMON_FUNCTION
   *DEL*:           00000AH   BYTE   UNIT     XDATA          ?XD?FUNC_STR_TO_HEX?ZF_COMMON_FUNCTION
   *DEL*:           000021H   BYTE   UNIT     XDATA          ?XD?FUNC_HEX_TO_STR?ZF_COMMON_FUNCTION
   *DEL*:           000001H   BYTE   UNIT     XDATA          ?XD?NUMBER_CONVERSION_ASCII?ZF_COMMON_FUNCTION
   *DEL*:           000041H   BYTE   UNIT     XDATA          ?XD?VSNPRINTF?ZF_COMMON_FUNCTION
   *DEL*:           00005FH   BYTE   UNIT     XDATA          ?XD?ZF_SPRINTF?ZF_COMMON_FUNCTION
   *DEL*:           000003H   BYTE   INSEG    CODE           ?PR?INTERRUPT_GLOBAL_DISABLE?ZF_COMMON_INTERRUPT
   *DEL*:           00006CH   BYTE   INSEG    CODE           ?PR?INTERRUPT_SET_PRIORITY?ZF_COMMON_INTERRUPT
   *DEL*:           000069H   BYTE   INSEG    CODE           ?PR?ADC_MEAN_FILTER_CONVERT?ZF_DRIVER_ADC
   *DEL*:           000004H   BYTE   UNIT     XDATA          ?XD?ADC_MEAN_FILTER_CONVERT?ZF_DRIVER_ADC
   *DEL*:           000018H   BYTE   INSEG    CODE           ?PR?SYSTEM_DELAY_US?ZF_DRIVER_DELAY
   *DEL*:           00001CH   BYTE   INSEG    CODE           ?PR?IAP_SET_TPS?ZF_DRIVER_EEPROM
   *DEL*:           00000BH   BYTE   INSEG    CODE           ?PR?EEPROM_TRIG?ZF_DRIVER_EEPROM
   *DEL*:           000025H   BYTE   INSEG    CODE           ?PR?IAP_ERASE_PAGE?ZF_DRIVER_EEPROM
   *DEL*:           000004H   BYTE   INSEG    CODE           ?PR?IAP_IDLE?ZF_DRIVER_EEPROM
   *DEL*:           000049H   BYTE   INSEG    CODE           ?PR?IAP_READ_BUFF?ZF_DRIVER_EEPROM
   *DEL*:           0000E9H   BYTE   INSEG    CODE           ?PR?EXTERN_IAP_WRITE_BUFF?ZF_DRIVER_EEPROM
   *DEL*:           000049H   BYTE   INSEG    CODE           ?PR?IAP_WRITE_BUFF?ZF_DRIVER_EEPROM
   *DEL*:           000021H   BYTE   INSEG    CODE           ?PR?IAP_READ_BYTE?ZF_DRIVER_EEPROM
   *DEL*:           000006H   BYTE   INSEG    CODE           ?PR?IAP_INIT?ZF_DRIVER_EEPROM
   *DEL*:           000028H   BYTE   INSEG    CODE           ?PR?IAP_WRITE_BYTE?ZF_DRIVER_EEPROM
   *DEL*:           00000CH   BYTE   INSEG    CODE           ?PR?IAP_GET_CMD_STATE?ZF_DRIVER_EEPROM
   *DEL*:           000000H.1 BIT    UNIT     BIT            ?BI?IAP_READ_BYTE?ZF_DRIVER_EEPROM
   *DEL*:           000000H.1 BIT    UNIT     BIT            ?BI?IAP_WRITE_BYTE?ZF_DRIVER_EEPROM
   *DEL*:           000006H   BYTE   UNIT     XDATA          ?XD?IAP_READ_BUFF?ZF_DRIVER_EEPROM
   *DEL*:           000006H   BYTE   UNIT     XDATA          ?XD?IAP_WRITE_BUFF?ZF_DRIVER_EEPROM
   *DEL*:           000000H.1 BIT    UNIT     BIT            ?BI?IAP_ERASE_PAGE?ZF_DRIVER_EEPROM
   *DEL*:           000206H   BYTE   UNIT     XDATA          ?XD?EXTERN_IAP_WRITE_BUFF?ZF_DRIVER_EEPROM
   *DEL*:           000016H   BYTE   INSEG    CODE           ?PR?GPIO_TOGGLE_LEVEL?ZF_DRIVER_GPIO
   *DEL*:           0001DCH   BYTE   INSEG    CODE           ?PR?GPIO_SET_LEVEL_SPEED?ZF_DRIVER_GPIO
   *DEL*:           000188H   BYTE   INSEG    CODE           ?PR?PWM_SET_FREQ?ZF_DRIVER_PWM
   *DEL*:           000010H   BYTE   UNIT     XDATA          ?XD?PWM_SET_FREQ?ZF_DRIVER_PWM
   *DEL*:           000052H   BYTE   INSEG    CODE           ?PR?SOFT_IIC_WRITE_8BIT_REGISTER?ZF_DRIVER_SOFT_IIC
   *DEL*:           0000FBH   BYTE   INSEG    CODE           ?PR?SOFT_IIC_READ_16BIT_REGISTERS?ZF_DRIVER_SOFT_IIC
   *DEL*:           000069H   BYTE   INSEG    CODE           ?PR?SOFT_IIC_SCCB_READ_REGISTER?ZF_DRIVER_SOFT_IIC
   *DEL*:           000095H   BYTE   INSEG    CODE           ?PR?SOFT_IIC_READ_16BIT_REGISTER?ZF_DRIVER_SOFT_IIC
   *DEL*:           000161H   BYTE   INSEG    CODE           ?PR?SOFT_IIC_TRANSFER_16BIT_ARRAY?ZF_DRIVER_SOFT_IIC
   *DEL*:           0000BDH   BYTE   INSEG    CODE           ?PR?SOFT_IIC_WRITE_16BIT_REGISTERS?ZF_DRIVER_SOFT_IIC
   *DEL*:           000052H   BYTE   INSEG    CODE           ?PR?SOFT_IIC_SCCB_WRITE_REGISTER?ZF_DRIVER_SOFT_IIC
   *DEL*:           000047H   BYTE   INSEG    CODE           ?PR?SOFT_IIC_READ_8BIT?ZF_DRIVER_SOFT_IIC
L251 LINKER/LOCATER V4.66.93.0                                                        01/25/2026  01:33:53  PAGE 9


   *DEL*:           0000B0H   BYTE   INSEG    CODE           ?PR?SOFT_IIC_READ_8BIT_ARRAY?ZF_DRIVER_SOFT_IIC
   *DEL*:           000072H   BYTE   INSEG    CODE           ?PR?SOFT_IIC_WRITE_16BIT_REGISTER?ZF_DRIVER_SOFT_IIC
   *DEL*:           000043H   BYTE   INSEG    CODE           ?PR?SOFT_IIC_WRITE_8BIT?ZF_DRIVER_SOFT_IIC
   *DEL*:           000095H   BYTE   INSEG    CODE           ?PR?SOFT_IIC_WRITE_8BIT_ARRAY?ZF_DRIVER_SOFT_IIC
   *DEL*:           000067H   BYTE   INSEG    CODE           ?PR?SOFT_IIC_READ_16BIT?ZF_DRIVER_SOFT_IIC
   *DEL*:           0000D7H   BYTE   INSEG    CODE           ?PR?SOFT_IIC_READ_16BIT_ARRAY?ZF_DRIVER_SOFT_IIC
   *DEL*:           0000A0H   BYTE   INSEG    CODE           ?PR?SOFT_IIC_INIT?ZF_DRIVER_SOFT_IIC
   *DEL*:           0000CDH   BYTE   INSEG    CODE           ?PR?SOFT_IIC_READ_8BIT_REGISTERS?ZF_DRIVER_SOFT_IIC
   *DEL*:           000054H   BYTE   INSEG    CODE           ?PR?SOFT_IIC_WRITE_16BIT?ZF_DRIVER_SOFT_IIC
   *DEL*:           0000A9H   BYTE   INSEG    CODE           ?PR?SOFT_IIC_WRITE_16BIT_ARRAY?ZF_DRIVER_SOFT_IIC
   *DEL*:           000064H   BYTE   INSEG    CODE           ?PR?SOFT_IIC_READ_8BIT_REGISTER?ZF_DRIVER_SOFT_IIC
   *DEL*:           000123H   BYTE   INSEG    CODE           ?PR?SOFT_IIC_TRANSFER_8BIT_ARRAY?ZF_DRIVER_SOFT_IIC
   *DEL*:           0000A2H   BYTE   INSEG    CODE           ?PR?SOFT_IIC_WRITE_8BIT_REGISTERS?ZF_DRIVER_SOFT_IIC
   *DEL*:           000001H   BYTE   UNIT     XDATA          ?XD?SOFT_IIC_WRITE_8BIT?ZF_DRIVER_SOFT_IIC
   *DEL*:           000008H   BYTE   UNIT     XDATA          ?XD?SOFT_IIC_WRITE_8BIT_ARRAY?ZF_DRIVER_SOFT_IIC
   *DEL*:           000002H   BYTE   UNIT     XDATA          ?XD?SOFT_IIC_WRITE_16BIT?ZF_DRIVER_SOFT_IIC
   *DEL*:           000008H   BYTE   UNIT     XDATA          ?XD?SOFT_IIC_WRITE_16BIT_ARRAY?ZF_DRIVER_SOFT_IIC
   *DEL*:           000002H   BYTE   UNIT     XDATA          ?XD?SOFT_IIC_WRITE_8BIT_REGISTER?ZF_DRIVER_SOFT_IIC
   *DEL*:           000009H   BYTE   UNIT     XDATA          ?XD?SOFT_IIC_WRITE_8BIT_REGISTERS?ZF_DRIVER_SOFT_IIC
   *DEL*:           000004H   BYTE   UNIT     XDATA          ?XD?SOFT_IIC_WRITE_16BIT_REGISTER?ZF_DRIVER_SOFT_IIC
   *DEL*:           00000AH   BYTE   UNIT     XDATA          ?XD?SOFT_IIC_WRITE_16BIT_REGISTERS?ZF_DRIVER_SOFT_IIC
   *DEL*:           000001H   BYTE   UNIT     XDATA          ?XD?SOFT_IIC_READ_8BIT?ZF_DRIVER_SOFT_IIC
   *DEL*:           000008H   BYTE   UNIT     XDATA          ?XD?SOFT_IIC_READ_8BIT_ARRAY?ZF_DRIVER_SOFT_IIC
   *DEL*:           000002H   BYTE   UNIT     XDATA          ?XD?SOFT_IIC_READ_16BIT?ZF_DRIVER_SOFT_IIC
   *DEL*:           000008H   BYTE   UNIT     XDATA          ?XD?SOFT_IIC_READ_16BIT_ARRAY?ZF_DRIVER_SOFT_IIC
   *DEL*:           000002H   BYTE   UNIT     XDATA          ?XD?SOFT_IIC_READ_8BIT_REGISTER?ZF_DRIVER_SOFT_IIC
   *DEL*:           000009H   BYTE   UNIT     XDATA          ?XD?SOFT_IIC_READ_8BIT_REGISTERS?ZF_DRIVER_SOFT_IIC
   *DEL*:           000004H   BYTE   UNIT     XDATA          ?XD?SOFT_IIC_READ_16BIT_REGISTER?ZF_DRIVER_SOFT_IIC
   *DEL*:           00000AH   BYTE   UNIT     XDATA          ?XD?SOFT_IIC_READ_16BIT_REGISTERS?ZF_DRIVER_SOFT_IIC
   *DEL*:           000010H   BYTE   UNIT     XDATA          ?XD?SOFT_IIC_TRANSFER_8BIT_ARRAY?ZF_DRIVER_SOFT_IIC
   *DEL*:           000010H   BYTE   UNIT     XDATA          ?XD?SOFT_IIC_TRANSFER_16BIT_ARRAY?ZF_DRIVER_SOFT_IIC
   *DEL*:           000002H   BYTE   UNIT     XDATA          ?XD?SOFT_IIC_SCCB_WRITE_REGISTER?ZF_DRIVER_SOFT_IIC
   *DEL*:           000002H   BYTE   UNIT     XDATA          ?XD?SOFT_IIC_SCCB_READ_REGISTER?ZF_DRIVER_SOFT_IIC
   *DEL*:           000009H   BYTE   UNIT     XDATA          ?XD?SOFT_IIC_INIT?ZF_DRIVER_SOFT_IIC
   *DEL*:           000207H   BYTE   INSEG    CODE           ?PR?SOFT_SPI_INIT?ZF_DRIVER_SOFT_SPI
   *DEL*:           0000B1H   BYTE   INSEG    CODE           ?PR?SOFT_SPI_READ_8BIT_REGISTERS?ZF_DRIVER_SOFT_SPI
   *DEL*:           00004FH   BYTE   INSEG    CODE           ?PR?SOFT_SPI_WRITE_16BIT?ZF_DRIVER_SOFT_SPI
   *DEL*:           0000FDH   BYTE   INSEG    CODE           ?PR?SOFT_SPI_8BIT_DATA_HANDLER?ZF_DRIVER_SOFT_SPI
   *DEL*:           0000A0H   BYTE   INSEG    CODE           ?PR?SOFT_SPI_WRITE_16BIT_ARRAY?ZF_DRIVER_SOFT_SPI
   *DEL*:           00005EH   BYTE   INSEG    CODE           ?PR?SOFT_SPI_READ_8BIT_REGISTER?ZF_DRIVER_SOFT_SPI
   *DEL*:           0000F2H   BYTE   INSEG    CODE           ?PR?SOFT_SPI_TRANSFER_8BIT?ZF_DRIVER_SOFT_SPI
   *DEL*:           0000AAH   BYTE   INSEG    CODE           ?PR?SOFT_SPI_WRITE_8BIT_REGISTERS?ZF_DRIVER_SOFT_SPI
   *DEL*:           00005AH   BYTE   INSEG    CODE           ?PR?SOFT_SPI_WRITE_8BIT_REGISTER?ZF_DRIVER_SOFT_SPI
   *DEL*:           0000AEH   BYTE   INSEG    CODE           ?PR?SOFT_SPI_READ_16BIT_REGISTERS?ZF_DRIVER_SOFT_SPI
   *DEL*:           000123H   BYTE   INSEG    CODE           ?PR?SOFT_SPI_16BIT_DATA_HANDLER?ZF_DRIVER_SOFT_SPI
   *DEL*:           00006AH   BYTE   INSEG    CODE           ?PR?SOFT_SPI_READ_16BIT_REGISTER?ZF_DRIVER_SOFT_SPI
   *DEL*:           0000F4H   BYTE   INSEG    CODE           ?PR?SOFT_SPI_TRANSFER_16BIT?ZF_DRIVER_SOFT_SPI
   *DEL*:           0000A4H   BYTE   INSEG    CODE           ?PR?SOFT_SPI_WRITE_16BIT_REGISTERS?ZF_DRIVER_SOFT_SPI
   *DEL*:           000051H   BYTE   INSEG    CODE           ?PR?SOFT_SPI_READ_8BIT?ZF_DRIVER_SOFT_SPI
   *DEL*:           0000A4H   BYTE   INSEG    CODE           ?PR?SOFT_SPI_READ_8BIT_ARRAY?ZF_DRIVER_SOFT_SPI
   *DEL*:           000060H   BYTE   INSEG    CODE           ?PR?SOFT_SPI_WRITE_16BIT_REGISTER?ZF_DRIVER_SOFT_SPI
   *DEL*:           00004BH   BYTE   INSEG    CODE           ?PR?SOFT_SPI_WRITE_8BIT?ZF_DRIVER_SOFT_SPI
   *DEL*:           0000A0H   BYTE   INSEG    CODE           ?PR?SOFT_SPI_WRITE_8BIT_ARRAY?ZF_DRIVER_SOFT_SPI
   *DEL*:           000024H   BYTE   INSEG    CODE           ?PR?SOFT_SPI_DELAY?ZF_DRIVER_SOFT_SPI
   *DEL*:           000056H   BYTE   INSEG    CODE           ?PR?SOFT_SPI_READ_16BIT?ZF_DRIVER_SOFT_SPI
   *DEL*:           0000A7H   BYTE   INSEG    CODE           ?PR?SOFT_SPI_READ_16BIT_ARRAY?ZF_DRIVER_SOFT_SPI
   *DEL*:           000004H   BYTE   UNIT     XDATA          ?XD?SOFT_SPI_DELAY?ZF_DRIVER_SOFT_SPI
   *DEL*:           000003H   BYTE   UNIT     XDATA          ?XD?SOFT_SPI_8BIT_DATA_HANDLER?ZF_DRIVER_SOFT_SPI
   *DEL*:           000005H   BYTE   UNIT     XDATA          ?XD?SOFT_SPI_16BIT_DATA_HANDLER?ZF_DRIVER_SOFT_SPI
   *DEL*:           000001H   BYTE   UNIT     XDATA          ?XD?SOFT_SPI_WRITE_8BIT?ZF_DRIVER_SOFT_SPI
   *DEL*:           000008H   BYTE   UNIT     XDATA          ?XD?SOFT_SPI_WRITE_8BIT_ARRAY?ZF_DRIVER_SOFT_SPI
   *DEL*:           000002H   BYTE   UNIT     XDATA          ?XD?SOFT_SPI_WRITE_16BIT?ZF_DRIVER_SOFT_SPI
   *DEL*:           000008H   BYTE   UNIT     XDATA          ?XD?SOFT_SPI_WRITE_16BIT_ARRAY?ZF_DRIVER_SOFT_SPI
   *DEL*:           000002H   BYTE   UNIT     XDATA          ?XD?SOFT_SPI_WRITE_8BIT_REGISTER?ZF_DRIVER_SOFT_SPI
   *DEL*:           000009H   BYTE   UNIT     XDATA          ?XD?SOFT_SPI_WRITE_8BIT_REGISTERS?ZF_DRIVER_SOFT_SPI
L251 LINKER/LOCATER V4.66.93.0                                                        01/25/2026  01:33:53  PAGE 10


   *DEL*:           000004H   BYTE   UNIT     XDATA          ?XD?SOFT_SPI_WRITE_16BIT_REGISTER?ZF_DRIVER_SOFT_SPI
   *DEL*:           00000AH   BYTE   UNIT     XDATA          ?XD?SOFT_SPI_WRITE_16BIT_REGISTERS?ZF_DRIVER_SOFT_SPI
   *DEL*:           000001H   BYTE   UNIT     XDATA          ?XD?SOFT_SPI_READ_8BIT?ZF_DRIVER_SOFT_SPI
   *DEL*:           000008H   BYTE   UNIT     XDATA          ?XD?SOFT_SPI_READ_8BIT_ARRAY?ZF_DRIVER_SOFT_SPI
   *DEL*:           000001H   BYTE   UNIT     XDATA          ?XD?SOFT_SPI_READ_16BIT?ZF_DRIVER_SOFT_SPI
   *DEL*:           000008H   BYTE   UNIT     XDATA          ?XD?SOFT_SPI_READ_16BIT_ARRAY?ZF_DRIVER_SOFT_SPI
   *DEL*:           000002H   BYTE   UNIT     XDATA          ?XD?SOFT_SPI_READ_8BIT_REGISTER?ZF_DRIVER_SOFT_SPI
   *DEL*:           000009H   BYTE   UNIT     XDATA          ?XD?SOFT_SPI_READ_8BIT_REGISTERS?ZF_DRIVER_SOFT_SPI
   *DEL*:           000004H   BYTE   UNIT     XDATA          ?XD?SOFT_SPI_READ_16BIT_REGISTER?ZF_DRIVER_SOFT_SPI
   *DEL*:           00000AH   BYTE   UNIT     XDATA          ?XD?SOFT_SPI_READ_16BIT_REGISTERS?ZF_DRIVER_SOFT_SPI
   *DEL*:           00000CH   BYTE   UNIT     XDATA          ?XD?SOFT_SPI_TRANSFER_8BIT?ZF_DRIVER_SOFT_SPI
   *DEL*:           00000CH   BYTE   UNIT     XDATA          ?XD?SOFT_SPI_TRANSFER_16BIT?ZF_DRIVER_SOFT_SPI
   *DEL*:           000011H   BYTE   UNIT     XDATA          ?XD?SOFT_SPI_INIT?ZF_DRIVER_SOFT_SPI
   *DEL*:           000017H   BYTE   INSEG    CODE           ?PR?SPI_WRITE_8BIT_REGISTER?ZF_DRIVER_SPI
   *DEL*:           000077H   BYTE   INSEG    CODE           ?PR?SPI_READ_16BIT_REGISTERS?ZF_DRIVER_SPI
   *DEL*:           00002DH   BYTE   INSEG    CODE           ?PR?SPI_READ_16BIT_REGISTER?ZF_DRIVER_SPI
   *DEL*:           0000ACH   BYTE   INSEG    CODE           ?PR?SPI_TRANSFER_16BIT?ZF_DRIVER_SPI
   *DEL*:           00004EH   BYTE   INSEG    CODE           ?PR?SPI_WRITE_16BIT_REGISTERS?ZF_DRIVER_SPI
   *DEL*:           000004H   BYTE   INSEG    CODE           ?PR?SPI_READ_8BIT?ZF_DRIVER_SPI
   *DEL*:           000037H   BYTE   INSEG    CODE           ?PR?SPI_READ_8BIT_ARRAY?ZF_DRIVER_SPI
   *DEL*:           000033H   BYTE   INSEG    CODE           ?PR?SPI_WRITE_16BIT_REGISTER?ZF_DRIVER_SPI
   *DEL*:           000003H   BYTE   INSEG    CODE           ?PR?SPI_WRITE_8BIT?ZF_DRIVER_SPI
   *DEL*:           000036H   BYTE   INSEG    CODE           ?PR?SPI_WRITE_8BIT_ARRAY?ZF_DRIVER_SPI
   *DEL*:           00001DH   BYTE   INSEG    CODE           ?PR?SPI_READ_16BIT?ZF_DRIVER_SPI
   *DEL*:           000051H   BYTE   INSEG    CODE           ?PR?SPI_READ_16BIT_ARRAY?ZF_DRIVER_SPI
   *DEL*:           0003B5H   BYTE   INSEG    CODE           ?PR?SPI_INIT?ZF_DRIVER_SPI
   *DEL*:           000040H   BYTE   INSEG    CODE           ?PR?SPI_READ_8BIT_REGISTERS?ZF_DRIVER_SPI
   *DEL*:           000015H   BYTE   INSEG    CODE           ?PR?SPI_WRITE_16BIT?ZF_DRIVER_SPI
   *DEL*:           000056H   BYTE   INSEG    CODE           ?PR?SPI_READ_DAT?ZF_DRIVER_SPI
   *DEL*:           000044H   BYTE   INSEG    CODE           ?PR?SPI_WRITE_16BIT_ARRAY?ZF_DRIVER_SPI
   *DEL*:           000010H   BYTE   INSEG    CODE           ?PR?SPI_READ_8BIT_REGISTER?ZF_DRIVER_SPI
   *DEL*:           000077H   BYTE   INSEG    CODE           ?PR?SPI_TRANSFER_8BIT?ZF_DRIVER_SPI
   *DEL*:           00003CH   BYTE   INSEG    CODE           ?PR?SPI_WRITE_8BIT_REGISTERS?ZF_DRIVER_SPI
   *DEL*:           00003EH   BYTE   INSEG    CODE           ?PR?SPI_WRITE_DAT?ZF_DRIVER_SPI
   *DEL*:           000006H   BYTE   UNIT     XDATA          ?XD?SPI_WRITE_8BIT_ARRAY?ZF_DRIVER_SPI
   *DEL*:           000006H   BYTE   UNIT     XDATA          ?XD?SPI_WRITE_16BIT_ARRAY?ZF_DRIVER_SPI
   *DEL*:           000006H   BYTE   UNIT     XDATA          ?XD?SPI_WRITE_8BIT_REGISTERS?ZF_DRIVER_SPI
   *DEL*:           000002H   BYTE   UNIT     XDATA          ?XD?SPI_WRITE_16BIT_REGISTER?ZF_DRIVER_SPI
   *DEL*:           000008H   BYTE   UNIT     XDATA          ?XD?SPI_WRITE_16BIT_REGISTERS?ZF_DRIVER_SPI
   *DEL*:           000006H   BYTE   UNIT     XDATA          ?XD?SPI_READ_8BIT_ARRAY?ZF_DRIVER_SPI
   *DEL*:           000006H   BYTE   UNIT     XDATA          ?XD?SPI_READ_16BIT_ARRAY?ZF_DRIVER_SPI
   *DEL*:           000006H   BYTE   UNIT     XDATA          ?XD?SPI_READ_8BIT_REGISTERS?ZF_DRIVER_SPI
   *DEL*:           000008H   BYTE   UNIT     XDATA          ?XD?SPI_READ_16BIT_REGISTERS?ZF_DRIVER_SPI
   *DEL*:           00000AH   BYTE   UNIT     XDATA          ?XD?SPI_TRANSFER_8BIT?ZF_DRIVER_SPI
   *DEL*:           00000AH   BYTE   UNIT     XDATA          ?XD?SPI_TRANSFER_16BIT?ZF_DRIVER_SPI
   *DEL*:           000010H   BYTE   UNIT     XDATA          ?XD?SPI_INIT?ZF_DRIVER_SPI
   *DEL*:           00001DH   BYTE   INSEG    CODE           ?PR?UART_WRITE_STRING?ZF_DRIVER_UART
   *DEL*:           00003DH   BYTE   INSEG    CODE           ?PR?UART_READ_BYTE?ZF_DRIVER_UART
   *DEL*:           000002H   BYTE   UNIT     XDATA          ?XD?UART_WRITE_STRING?ZF_DRIVER_UART
   *DEL*:           00005CH   BYTE   INSEG    CODE           ?PR?BLE6A20_READ_BUFFER?ZF_DEVICE_BLE6A20
   *DEL*:           0000B5H   BYTE   INSEG    CODE           ?PR?BLE6A20_SEND_BUFFER?ZF_DEVICE_BLE6A20
   *DEL*:           00003FH   BYTE   INSEG    CODE           ?PR?BLE6A20_SEND_STRING?ZF_DEVICE_BLE6A20
   *DEL*:           000025H   BYTE   INSEG    CODE           ?PR?BLE6A20_CALLBACK?ZF_DEVICE_BLE6A20
   *DEL*:           000080H   BYTE   INSEG    CODE           ?PR?BLE6A20_INIT?ZF_DEVICE_BLE6A20
   *DEL*:           000044H   BYTE   INSEG    CODE           ?PR?BLE6A20_SEND_BYTE?ZF_DEVICE_BLE6A20
   *DEL*:           000008H   BYTE   UNIT     XDATA          ?XD?BLE6A20_SEND_BUFFER?ZF_DEVICE_BLE6A20
   *DEL*:           000004H   BYTE   UNIT     XDATA          ?XD?BLE6A20_SEND_STRING?ZF_DEVICE_BLE6A20
   *DEL*:           000004H   BYTE   UNIT     XDATA          ?XD?BLE6A20_READ_BUFFER?ZF_DEVICE_BLE6A20
   *DEL*:           000001H   BYTE   UNIT     XDATA          ?XD?BLE6A20_CALLBACK?ZF_DEVICE_BLE6A20
   *DEL*:           00003CH   BYTE   INSEG    CODE           ?PR?DL1A_TIMEOUT_MICROSECONDS_TO_MCLKS?ZF_DEVICE_DL1A
   *DEL*:           00003EH   BYTE   INSEG    CODE           ?PR?DL1A_TIMEOUT_MCLKS_TO_MICROSECONDS?ZF_DEVICE_DL1A
   *DEL*:           000074H   BYTE   INSEG    CODE           ?PR?DL1A_SET_SIGNAL_RATE_LIMIT?ZF_DEVICE_DL1A
   *DEL*:           000010H   BYTE   INSEG    CODE           ?PR?DL1A_DECODE_TIMEOUT?ZF_DEVICE_DL1A
   *DEL*:           000230H   BYTE   INSEG    CODE           ?PR?DL1A_GET_SPAD_INFO?ZF_DEVICE_DL1A
   *DEL*:           000034H   BYTE   INSEG    CODE           ?PR?DL1A_ENCODE_TIMEOUT?ZF_DEVICE_DL1A
L251 LINKER/LOCATER V4.66.93.0                                                        01/25/2026  01:33:53  PAGE 11


   *DEL*:           000066H   BYTE   INSEG    CODE           ?PR?DL1A_GET_SEQUENCE_STEP_ENABLES?ZF_DEVICE_DL1A
   *DEL*:           0000C4H   BYTE   INSEG    CODE           ?PR?DL1A_GET_DISTANCE?ZF_DEVICE_DL1A
   *DEL*:           0000B9H   BYTE   INSEG    CODE           ?PR?DL1A_PERFORM_SINGLE_REF_CALIBRATION?ZF_DEVICE_DL1A
   *DEL*:           000128H   BYTE   INSEG    CODE           ?PR?DL1A_GET_SEQUENCE_STEP_TIMEOUTS?ZF_DEVICE_DL1A
   *DEL*:           000001H   BYTE   INSEG    CODE           ?PR?DL1A_INT_HANDLER?ZF_DEVICE_DL1A
   *DEL*:           00009DH   BYTE   INSEG    CODE           ?PR?DL1A_GET_MEASUREMENT_TIMING_BUDGET?ZF_DEVICE_DL1A
   *DEL*:           000171H   BYTE   INSEG    CODE           ?PR?DL1A_SET_MEASUREMENT_TIMING_BUDGET?ZF_DEVICE_DL1A
   *DEL*:           0004A9H   BYTE   INSEG    CODE           ?PR?DL1A_INIT?ZF_DEVICE_DL1A
   *DEL*:           000078H   BYTE   INSEG    CODE           ?PR?DL1A_GET_VCSEL_PULSE_PERIOD?ZF_DEVICE_DL1A
   *DEL*:           000008H   BYTE   UNIT     XDATA          ?XD?DL1A_GET_SPAD_INFO?ZF_DEVICE_DL1A
   *DEL*:           000001H   BYTE   UNIT     XDATA          ?XD?DL1A_GET_SEQUENCE_STEP_ENABLES?ZF_DEVICE_DL1A
   *DEL*:           000001H   BYTE   UNIT     XDATA          ?XD?DL1A_GET_VCSEL_PULSE_PERIOD?ZF_DEVICE_DL1A
   *DEL*:           000008H   BYTE   UNIT     XDATA          ?XD?DL1A_GET_SEQUENCE_STEP_TIMEOUTS?ZF_DEVICE_DL1A
   *DEL*:           000003H   BYTE   UNIT     XDATA          ?XD?DL1A_PERFORM_SINGLE_REF_CALIBRATION?ZF_DEVICE_DL1A
   *DEL*:           000025H   BYTE   UNIT     XDATA          ?XD?DL1A_SET_MEASUREMENT_TIMING_BUDGET?ZF_DEVICE_DL1A
   *DEL*:           00001BH   BYTE   UNIT     XDATA          ?XD?DL1A_GET_MEASUREMENT_TIMING_BUDGET?ZF_DEVICE_DL1A
   *DEL*:           000003H   BYTE   UNIT     XDATA          ?XD?DL1A_SET_SIGNAL_RATE_LIMIT?ZF_DEVICE_DL1A
   *DEL*:           000003H   BYTE   UNIT     XDATA          ?XD?DL1A_GET_DISTANCE?ZF_DEVICE_DL1A
   *DEL*:           0000CAH   BYTE   UNIT     XDATA          ?XD?DL1A_INIT?ZF_DEVICE_DL1A
   *DEL*:           000194H   BYTE   INSEG    CODE           ?PR?DL1B_GET_DISTANCE?ZF_DEVICE_DL1B
   *DEL*:           000001H   BYTE   INSEG    CODE           ?PR?DL1B_INT_HANDLER?ZF_DEVICE_DL1B
   *DEL*:           000002H   BYTE   INSEG    CODE           ?PR?DL1B_INIT?ZF_DEVICE_DL1B
   *DEL*:           000003H   BYTE   UNIT     XDATA          ?XD?DL1B_GET_DISTANCE?ZF_DEVICE_DL1B
   *DEL*:           00004FH   BYTE   INSEG    CODE           ?PR?GET_DOUBLE_NUMBER?ZF_DEVICE_GPS_TAU1201
   *DEL*:           00004FH   BYTE   INSEG    CODE           ?PR?GET_FLOAT_NUMBER?ZF_DEVICE_GPS_TAU1201
   *DEL*:           0000B0H   BYTE   INSEG    CODE           ?PR?UTC_TO_BTC?ZF_DEVICE_GPS_TAU1201
   *DEL*:           00010AH   BYTE   INSEG    CODE           ?PR?GET_TWO_POINTS_DISTANCE?ZF_DEVICE_GPS_TAU1201
   *DEL*:           0000C5H   BYTE   INSEG    CODE           ?PR?GPS_GNGGA_PARSE?ZF_DEVICE_GPS_TAU1201
   *DEL*:           0002E0H   BYTE   INSEG    CODE           ?PR?GPS_GNRMC_PARSE?ZF_DEVICE_GPS_TAU1201
   *DEL*:           000185H   BYTE   INSEG    CODE           ?PR?GPS_DATA_PARSE?ZF_DEVICE_GPS_TAU1201
   *DEL*:           00004FH   BYTE   INSEG    CODE           ?PR?GET_INT_NUMBER?ZF_DEVICE_GPS_TAU1201
   *DEL*:           0002ABH   BYTE   INSEG    CODE           ?PR?GPS_INIT?ZF_DEVICE_GPS_TAU1201
   *DEL*:           000071H   BYTE   INSEG    CODE           ?PR?GET_PARAMETER_INDEX?ZF_DEVICE_GPS_TAU1201
   *DEL*:           0002AEH   BYTE   INSEG    CODE           ?PR?GET_TWO_POINTS_AZIMUTH?ZF_DEVICE_GPS_TAU1201
   *DEL*:           000181H   BYTE   INSEG    CODE           ?PR?GPS_UART_CALLBACK?ZF_DEVICE_GPS_TAU1201
   *DEL*:           000003H   BYTE   UNIT     XDATA          ?XD?GET_PARAMETER_INDEX?ZF_DEVICE_GPS_TAU1201
   *DEL*:           00000BH   BYTE   UNIT     XDATA          ?XD?GET_INT_NUMBER?ZF_DEVICE_GPS_TAU1201
   *DEL*:           000010H   BYTE   UNIT     XDATA          ?XD?GET_FLOAT_NUMBER?ZF_DEVICE_GPS_TAU1201
   *DEL*:           000010H   BYTE   UNIT     XDATA          ?XD?GET_DOUBLE_NUMBER?ZF_DEVICE_GPS_TAU1201
   *DEL*:           000009H   BYTE   UNIT     XDATA          ?XD?GPS_GNRMC_PARSE?ZF_DEVICE_GPS_TAU1201
   *DEL*:           000009H   BYTE   UNIT     XDATA          ?XD?GPS_GNGGA_PARSE?ZF_DEVICE_GPS_TAU1201
   *DEL*:           000014H   BYTE   UNIT     XDATA          ?XD?GET_TWO_POINTS_DISTANCE?ZF_DEVICE_GPS_TAU1201
   *DEL*:           00001CH   BYTE   UNIT     XDATA          ?XD?GET_TWO_POINTS_AZIMUTH?ZF_DEVICE_GPS_TAU1201
   *DEL*:           000008H   BYTE   UNIT     XDATA          ?XD?GPS_DATA_PARSE?ZF_DEVICE_GPS_TAU1201
   *DEL*:           00000BH   BYTE   UNIT     XDATA          ?XD?GPS_UART_CALLBACK?ZF_DEVICE_GPS_TAU1201
   *DEL*:           000095H   BYTE   UNIT     XDATA          ?XD?GPS_INIT?ZF_DEVICE_GPS_TAU1201
   *DEL*:           000016H   BYTE   INSEG    CODE           ?PR?ICM20602_READ_REGISTER?ZF_DEVICE_ICM20602
   *DEL*:           000008H   BYTE   INSEG    CODE           ?PR?ICM20602_WRITE_REGISTER?ZF_DEVICE_ICM20602
   *DEL*:           00001FH   BYTE   INSEG    CODE           ?PR?ICM20602_SIMSPI_WR_BYTE?ZF_DEVICE_ICM20602
   *DEL*:           00002DH   BYTE   INSEG    CODE           ?PR?ICM20602_SELF_CHECK?ZF_DEVICE_ICM20602
   *DEL*:           00003FH   BYTE   INSEG    CODE           ?PR?ICM20602_SIMSPI_R_REG_BYTES?ZF_DEVICE_ICM20602
   *DEL*:           000018H   BYTE   INSEG    CODE           ?PR?ICM20602_SIMSPI_R_REG_BYTE?ZF_DEVICE_ICM20602
   *DEL*:           00000FH   BYTE   INSEG    CODE           ?PR?ICM20602_SIMSPI_W_REG_BYTE?ZF_DEVICE_ICM20602
   *DEL*:           0000C5H   BYTE   INSEG    CODE           ?PR?ICM20602_INIT?ZF_DEVICE_ICM20602
   *DEL*:           000050H   BYTE   INSEG    CODE           ?PR?ICM20602_GET_ACC?ZF_DEVICE_ICM20602
   *DEL*:           000010H   BYTE   INSEG    CODE           ?PR?ICM20602_READ_REGISTERS?ZF_DEVICE_ICM20602
   *DEL*:           000050H   BYTE   INSEG    CODE           ?PR?ICM20602_GET_GYRO?ZF_DEVICE_ICM20602
   *DEL*:           000004H   BYTE   UNIT     XDATA          ?XD?ICM20602_SIMSPI_R_REG_BYTES?ZF_DEVICE_ICM20602
   *DEL*:           000001H   BYTE   UNIT     XDATA          ?XD?ICM20602_READ_REGISTER?ZF_DEVICE_ICM20602
   *DEL*:           000006H   BYTE   UNIT     XDATA          ?XD?ICM20602_GET_ACC?ZF_DEVICE_ICM20602
   *DEL*:           000006H   BYTE   UNIT     XDATA          ?XD?ICM20602_GET_GYRO?ZF_DEVICE_ICM20602
   *DEL*:           000050H   BYTE   INSEG    CODE           ?PR?IMU660RA_GET_GYRO?ZF_DEVICE_IMU660RA
   *DEL*:           00001AH   BYTE   INSEG    CODE           ?PR?IMU660RA_READ_REGISTER?ZF_DEVICE_IMU660RA
   *DEL*:           00000EH   BYTE   INSEG    CODE           ?PR?IMU660RA_WRITE_REGISTERS?ZF_DEVICE_IMU660RA
   *DEL*:           000008H   BYTE   INSEG    CODE           ?PR?IMU660RA_WRITE_REGISTER?ZF_DEVICE_IMU660RA
L251 LINKER/LOCATER V4.66.93.0                                                        01/25/2026  01:33:53  PAGE 12


   *DEL*:           000021H   BYTE   INSEG    CODE           ?PR?IMU660RA_SIMSPI_WR_BYTE?ZF_DEVICE_IMU660RA
   *DEL*:           00003FH   BYTE   INSEG    CODE           ?PR?IMU660RA_SELF_CHECK?ZF_DEVICE_IMU660RA
   *DEL*:           00003FH   BYTE   INSEG    CODE           ?PR?IMU660RA_SIMSPI_R_REG_BYTES?ZF_DEVICE_IMU660RA
   *DEL*:           000034H   BYTE   INSEG    CODE           ?PR?IMU660RA_SIMSPI_W_REG_BYTES?ZF_DEVICE_IMU660RA
   *DEL*:           00000FH   BYTE   INSEG    CODE           ?PR?IMU660RA_SIMSPI_W_REG_BYTE?ZF_DEVICE_IMU660RA
   *DEL*:           0000B9H   BYTE   INSEG    CODE           ?PR?IMU660RA_INIT?ZF_DEVICE_IMU660RA
   *DEL*:           000050H   BYTE   INSEG    CODE           ?PR?IMU660RA_GET_ACC?ZF_DEVICE_IMU660RA
   *DEL*:           000073H   BYTE   INSEG    CODE           ?PR?IMU660RA_READ_REGISTERS?ZF_DEVICE_IMU660RA
   *DEL*:           000004H   BYTE   UNIT     XDATA          ?XD?IMU660RA_SIMSPI_W_REG_BYTES?ZF_DEVICE_IMU660RA
   *DEL*:           000004H   BYTE   UNIT     XDATA          ?XD?IMU660RA_SIMSPI_R_REG_BYTES?ZF_DEVICE_IMU660RA
   *DEL*:           000002H   BYTE   UNIT     XDATA          ?XD?IMU660RA_READ_REGISTER?ZF_DEVICE_IMU660RA
   *DEL*:           00000EH   BYTE   UNIT     XDATA          ?XD?IMU660RA_READ_REGISTERS?ZF_DEVICE_IMU660RA
   *DEL*:           000006H   BYTE   UNIT     XDATA          ?XD?IMU660RA_GET_ACC?ZF_DEVICE_IMU660RA
   *DEL*:           000006H   BYTE   UNIT     XDATA          ?XD?IMU660RA_GET_GYRO?ZF_DEVICE_IMU660RA
   *DEL*:           000050H   BYTE   INSEG    CODE           ?PR?IMU963RA_GET_GYRO?ZF_DEVICE_IMU963RA
   *DEL*:           000021H   BYTE   INSEG    CODE           ?PR?IMU963RA_SIMSPI_WR_BYTE?ZF_DEVICE_IMU963RA
   *DEL*:           000052H   BYTE   INSEG    CODE           ?PR?IMU963RA_READ_MAG_REGISTER?ZF_DEVICE_IMU963RA
   *DEL*:           00002CH   BYTE   INSEG    CODE           ?PR?IMU963RA_CONNECT_MAG?ZF_DEVICE_IMU963RA
   *DEL*:           000010H   BYTE   INSEG    CODE           ?PR?IMU963RA_READ_ACC_GYRO_REGISTERS?ZF_DEVICE_IMU963RA
   *DEL*:           000064H   BYTE   INSEG    CODE           ?PR?IMU963RA_WRITE_MAG_REGISTER?ZF_DEVICE_IMU963RA
   *DEL*:           00001FH   BYTE   INSEG    CODE           ?PR?IMU963RA_READ_ACC_GYRO_REGISTER?ZF_DEVICE_IMU963RA
   *DEL*:           00003FH   BYTE   INSEG    CODE           ?PR?IMU963RA_SIMSPI_R_REG_BYTES?ZF_DEVICE_IMU963RA
   *DEL*:           00001CH   BYTE   INSEG    CODE           ?PR?IMU963RA_SIMSPI_R_REG_BYTE?ZF_DEVICE_IMU963RA
   *DEL*:           000030H   BYTE   INSEG    CODE           ?PR?IMU963RA_MAG_SELF_CHECK?ZF_DEVICE_IMU963RA
   *DEL*:           000008H   BYTE   INSEG    CODE           ?PR?IMU963RA_WRITE_ACC_GYRO_REGISTER?ZF_DEVICE_IMU963RA
   *DEL*:           000013H   BYTE   INSEG    CODE           ?PR?IMU963RA_SIMSPI_W_REG_BYTE?ZF_DEVICE_IMU963RA
   *DEL*:           000140H   BYTE   INSEG    CODE           ?PR?IMU963RA_INIT?ZF_DEVICE_IMU963RA
   *DEL*:           000040H   BYTE   INSEG    CODE           ?PR?IMU963RA_ACC_GYRO_SELF_CHECK?ZF_DEVICE_IMU963RA
   *DEL*:           000050H   BYTE   INSEG    CODE           ?PR?IMU963RA_GET_ACC?ZF_DEVICE_IMU963RA
   *DEL*:           000066H   BYTE   INSEG    CODE           ?PR?IMU963RA_GET_MAG?ZF_DEVICE_IMU963RA
   *DEL*:           000004H   BYTE   UNIT     XDATA          ?XD?IMU963RA_SIMSPI_R_REG_BYTES?ZF_DEVICE_IMU963RA
   *DEL*:           000001H   BYTE   UNIT     XDATA          ?XD?IMU963RA_READ_ACC_GYRO_REGISTER?ZF_DEVICE_IMU963RA
   *DEL*:           000002H   BYTE   UNIT     XDATA          ?XD?IMU963RA_WRITE_MAG_REGISTER?ZF_DEVICE_IMU963RA
   *DEL*:           000006H   BYTE   UNIT     XDATA          ?XD?IMU963RA_GET_ACC?ZF_DEVICE_IMU963RA
   *DEL*:           000006H   BYTE   UNIT     XDATA          ?XD?IMU963RA_GET_GYRO?ZF_DEVICE_IMU963RA
   *DEL*:           000006H   BYTE   UNIT     XDATA          ?XD?IMU963RA_GET_MAG?ZF_DEVICE_IMU963RA
   *DEL*:           00017EH   BYTE   INSEG    CODE           ?PR?IPS114_SHOW_FLOAT?ZF_DEVICE_IPS114
   *DEL*:           000063H   BYTE   INSEG    CODE           ?PR?IPS114_DRAW_POINT?ZF_DEVICE_IPS114
   *DEL*:           0000A5H   BYTE   INSEG    CODE           ?PR?IPS114_SHOW_STRING?ZF_DEVICE_IPS114
   *DEL*:           0000CEH   BYTE   INSEG    CODE           ?PR?IPS114_SHOW_CHAR?ZF_DEVICE_IPS114
   *DEL*:           0000CEH   BYTE   INSEG    CODE           ?PR?IPS114_SHOW_UINT16?ZF_DEVICE_IPS114
   *DEL*:           00000DH   BYTE   INSEG    CODE           ?PR?IPS114_SET_COLOR?ZF_DEVICE_IPS114
   *DEL*:           000102H   BYTE   INSEG    CODE           ?PR?IPS114_SHOW_INT32?ZF_DEVICE_IPS114
   *DEL*:           000119H   BYTE   INSEG    CODE           ?PR?IPS114_SHOW_INT16?ZF_DEVICE_IPS114
   *DEL*:           0001A6H   BYTE   INSEG    CODE           ?PR?IPS114_SHOW_WAVE?ZF_DEVICE_IPS114
   *DEL*:           000023H   BYTE   INSEG    CODE           ?PR?IPS114_SET_DIR?ZF_DEVICE_IPS114
   *DEL*:           00019FH   BYTE   INSEG    CODE           ?PR?IPS114_SHOW_CHINESE?ZF_DEVICE_IPS114
   *DEL*:           000059H   BYTE   INSEG    CODE           ?PR?IPS114_CLEAR?ZF_DEVICE_IPS114
   *DEL*:           0000BAH   BYTE   INSEG    CODE           ?PR?IPS114_SHOW_UINT8?ZF_DEVICE_IPS114
   *DEL*:           0000E5H   BYTE   INSEG    CODE           ?PR?IPS114_SHOW_INT8?ZF_DEVICE_IPS114
   *DEL*:           000014H   BYTE   INSEG    CODE           ?PR?IPS114_WRITE_INDEX?ZF_DEVICE_IPS114
   *DEL*:           0001B3H   BYTE   INSEG    CODE           ?PR?IPS114_SET_REGION?ZF_DEVICE_IPS114
   *DEL*:           0002A5H   BYTE   INSEG    CODE           ?PR?IPS114_INIT?ZF_DEVICE_IPS114
   *DEL*:           000004H   BYTE   UNIT     XDATA          ?XD?IPS114_SET_REGION?ZF_DEVICE_IPS114
   *DEL*:           000002H   BYTE   UNIT     XDATA          ?XD?IPS114_CLEAR?ZF_DEVICE_IPS114
   *DEL*:           000002H   BYTE   UNIT     XDATA          ?XD?IPS114_DRAW_POINT?ZF_DEVICE_IPS114
   *DEL*:           000004H   BYTE   UNIT     XDATA          ?XD?IPS114_SHOW_CHAR?ZF_DEVICE_IPS114
   *DEL*:           000006H   BYTE   UNIT     XDATA          ?XD?IPS114_SHOW_STRING?ZF_DEVICE_IPS114
   *DEL*:           000005H   BYTE   UNIT     XDATA          ?XD?IPS114_SHOW_INT8?ZF_DEVICE_IPS114
   *DEL*:           000005H   BYTE   UNIT     XDATA          ?XD?IPS114_SHOW_UINT8?ZF_DEVICE_IPS114
   *DEL*:           000008H   BYTE   UNIT     XDATA          ?XD?IPS114_SHOW_INT16?ZF_DEVICE_IPS114
   *DEL*:           000008H   BYTE   UNIT     XDATA          ?XD?IPS114_SHOW_UINT16?ZF_DEVICE_IPS114
   *DEL*:           000028H   BYTE   UNIT     XDATA          ?XD?IPS114_SHOW_INT32?ZF_DEVICE_IPS114
   *DEL*:           00002BH   BYTE   UNIT     XDATA          ?XD?IPS114_SHOW_FLOAT?ZF_DEVICE_IPS114
   *DEL*:           00001CH   BYTE   UNIT     XDATA          ?XD?IPS114_SHOW_WAVE?ZF_DEVICE_IPS114
L251 LINKER/LOCATER V4.66.93.0                                                        01/25/2026  01:33:53  PAGE 13


   *DEL*:           000015H   BYTE   UNIT     XDATA          ?XD?IPS114_SHOW_CHINESE?ZF_DEVICE_IPS114
   *DEL*:           00017EH   BYTE   INSEG    CODE           ?PR?IPS200_SHOW_FLOAT?ZF_DEVICE_IPS200
   *DEL*:           000063H   BYTE   INSEG    CODE           ?PR?IPS200_DRAW_POINT?ZF_DEVICE_IPS200
   *DEL*:           0000A5H   BYTE   INSEG    CODE           ?PR?IPS200_SHOW_STRING?ZF_DEVICE_IPS200
   *DEL*:           0000CEH   BYTE   INSEG    CODE           ?PR?IPS200_SHOW_CHAR?ZF_DEVICE_IPS200
   *DEL*:           0000CEH   BYTE   INSEG    CODE           ?PR?IPS200_SHOW_UINT16?ZF_DEVICE_IPS200
   *DEL*:           00000DH   BYTE   INSEG    CODE           ?PR?IPS200_SET_COLOR?ZF_DEVICE_IPS200
   *DEL*:           000102H   BYTE   INSEG    CODE           ?PR?IPS200_SHOW_INT32?ZF_DEVICE_IPS200
   *DEL*:           000119H   BYTE   INSEG    CODE           ?PR?IPS200_SHOW_INT16?ZF_DEVICE_IPS200
   *DEL*:           0001A6H   BYTE   INSEG    CODE           ?PR?IPS200_SHOW_WAVE?ZF_DEVICE_IPS200
   *DEL*:           000007H   BYTE   INSEG    CODE           ?PR?IPS200_SET_DIR?ZF_DEVICE_IPS200
   *DEL*:           00019FH   BYTE   INSEG    CODE           ?PR?IPS200_SHOW_CHINESE?ZF_DEVICE_IPS200
   *DEL*:           000059H   BYTE   INSEG    CODE           ?PR?IPS200_CLEAR?ZF_DEVICE_IPS200
   *DEL*:           0000BAH   BYTE   INSEG    CODE           ?PR?IPS200_SHOW_UINT8?ZF_DEVICE_IPS200
   *DEL*:           0000E5H   BYTE   INSEG    CODE           ?PR?IPS200_SHOW_INT8?ZF_DEVICE_IPS200
   *DEL*:           000014H   BYTE   INSEG    CODE           ?PR?IPS200_WRITE_INDEX?ZF_DEVICE_IPS200
   *DEL*:           0000D4H   BYTE   INSEG    CODE           ?PR?IPS200_SET_REGION?ZF_DEVICE_IPS200
   *DEL*:           0002A5H   BYTE   INSEG    CODE           ?PR?IPS200_INIT?ZF_DEVICE_IPS200
   *DEL*:           000004H   BYTE   UNIT     XDATA          ?XD?IPS200_SET_REGION?ZF_DEVICE_IPS200
   *DEL*:           000002H   BYTE   UNIT     XDATA          ?XD?IPS200_CLEAR?ZF_DEVICE_IPS200
   *DEL*:           000002H   BYTE   UNIT     XDATA          ?XD?IPS200_DRAW_POINT?ZF_DEVICE_IPS200
   *DEL*:           000004H   BYTE   UNIT     XDATA          ?XD?IPS200_SHOW_CHAR?ZF_DEVICE_IPS200
   *DEL*:           000006H   BYTE   UNIT     XDATA          ?XD?IPS200_SHOW_STRING?ZF_DEVICE_IPS200
   *DEL*:           000005H   BYTE   UNIT     XDATA          ?XD?IPS200_SHOW_INT8?ZF_DEVICE_IPS200
   *DEL*:           000005H   BYTE   UNIT     XDATA          ?XD?IPS200_SHOW_UINT8?ZF_DEVICE_IPS200
   *DEL*:           000008H   BYTE   UNIT     XDATA          ?XD?IPS200_SHOW_INT16?ZF_DEVICE_IPS200
   *DEL*:           000008H   BYTE   UNIT     XDATA          ?XD?IPS200_SHOW_UINT16?ZF_DEVICE_IPS200
   *DEL*:           000028H   BYTE   UNIT     XDATA          ?XD?IPS200_SHOW_INT32?ZF_DEVICE_IPS200
   *DEL*:           00002BH   BYTE   UNIT     XDATA          ?XD?IPS200_SHOW_FLOAT?ZF_DEVICE_IPS200
   *DEL*:           00001CH   BYTE   UNIT     XDATA          ?XD?IPS200_SHOW_WAVE?ZF_DEVICE_IPS200
   *DEL*:           000015H   BYTE   UNIT     XDATA          ?XD?IPS200_SHOW_CHINESE?ZF_DEVICE_IPS200
   *DEL*:           00004BH   BYTE   INSEG    CODE           ?PR?IPS200PRO_PROGRESS_BAR_CREATE?ZF_DEVICE_IPS200PRO
   *DEL*:           000040H   BYTE   INSEG    CODE           ?PR?IPS200PRO_SET_CRC_STATE?ZF_DEVICE_IPS200PRO
   *DEL*:           00004BH   BYTE   INSEG    CODE           ?PR?IPS200PRO_TABLE_SELECT?ZF_DEVICE_IPS200PRO
   *DEL*:           000013H   BYTE   INSEG    CODE           ?PR?IPS200PRO_PAGE_HIDDEN?ZF_DEVICE_IPS200PRO
   *DEL*:           00003EH   BYTE   INSEG    CODE           ?PR?IPS200PRO_SET_DIRECTION?ZF_DEVICE_IPS200PRO
   *DEL*:           000067H   BYTE   INSEG    CODE           ?PR?IPS200PRO_PAGE_CREATE?ZF_DEVICE_IPS200PRO
   *DEL*:           00007BH   BYTE   INSEG    CODE           ?PR?IPS200PRO_WAVEFORM_ADD_VALUE?ZF_DEVICE_IPS200PRO
   *DEL*:           00004BH   BYTE   INSEG    CODE           ?PR?IPS200PRO_METER_CREATE?ZF_DEVICE_IPS200PRO
   *DEL*:           0000AAH   BYTE   INSEG    CODE           ?PR?IPS200PRO_LABEL_PRINTF?ZF_DEVICE_IPS200PRO
   *DEL*:           000047H   BYTE   INSEG    CODE           ?PR?IPS200PRO_WAVEFORM_LINE_STATE?ZF_DEVICE_IPS200PRO
   *DEL*:           0000E1H   BYTE   INSEG    CODE           ?PR?IPS200PRO_TABLE_CELL_PRINTF?ZF_DEVICE_IPS200PRO
   *DEL*:           0000FEH   BYTE   INSEG    CODE           ?PR?IPS200PRO_WRITE_PACKET?ZF_DEVICE_IPS200PRO
   *DEL*:           000080H   BYTE   INSEG    CODE           ?PR?IPS200PRO_SEND_BUFFER?ZF_DEVICE_IPS200PRO
   *DEL*:           000041H   BYTE   INSEG    CODE           ?PR?IPS200PRO_LABEL_MODE?ZF_DEVICE_IPS200PRO
   *DEL*:           00003FH   BYTE   INSEG    CODE           ?PR?IPS200PRO_PAGE_SWITCH?ZF_DEVICE_IPS200PRO
   *DEL*:           000020H   BYTE   INSEG    CODE           ?PR?IPS200PRO_CALENDAR_CREATE?ZF_DEVICE_IPS200PRO
   *DEL*:           00005BH   BYTE   INSEG    CODE           ?PR?IPS200PRO_CALENDAR_DISPLAY?ZF_DEVICE_IPS200PRO
   *DEL*:           000043H   BYTE   INSEG    CODE           ?PR?IPS200PRO_WAVEFORM_LINE_TYPE?ZF_DEVICE_IPS200PRO
   *DEL*:           000041H   BYTE   INSEG    CODE           ?PR?IPS200PRO_SET_HIDDEN?ZF_DEVICE_IPS200PRO
   *DEL*:           00004BH   BYTE   INSEG    CODE           ?PR?IPS200PRO_CONTAINER_CREATE?ZF_DEVICE_IPS200PRO
   *DEL*:           0000A8H   BYTE   INSEG    CODE           ?PR?IPS200PRO_IMAGE_DRAW_LINE?ZF_DEVICE_IPS200PRO
   *DEL*:           000061H   BYTE   INSEG    CODE           ?PR?IPS200PRO_LABEL_SHOW_STRING?ZF_DEVICE_IPS200PRO
   *DEL*:           000040H   BYTE   INSEG    CODE           ?PR?IPS200PRO_SET_OPTIMIZE?ZF_DEVICE_IPS200PRO
   *DEL*:           000047H   BYTE   INSEG    CODE           ?PR?IPS200PRO_SET_POSITION?ZF_DEVICE_IPS200PRO
   *DEL*:           00003EH   BYTE   INSEG    CODE           ?PR?IPS200PRO_SET_DEFAULT_FONT?ZF_DEVICE_IPS200PRO
   *DEL*:           000047H   BYTE   INSEG    CODE           ?PR?IPS200PRO_PAGE_SET_TITLE_POSITION_WIDTH?ZF_DEVICE_IPS2
                                                             -00PRO
   *DEL*:           000080H   BYTE   INSEG    CODE           ?PR?IPS200PRO_IMAGE_DRAW_RECTANGLE?ZF_DEVICE_IPS200PRO
   *DEL*:           0000D5H   BYTE   INSEG    CODE           ?PR?IPS200PRO_INIT?ZF_DEVICE_IPS200PRO
   *DEL*:           000047H   BYTE   INSEG    CODE           ?PR?IPS200PRO_CONTAINER_RADIUS?ZF_DEVICE_IPS200PRO
   *DEL*:           000031H   BYTE   INSEG    CODE           ?PR?IPS200PRO_WAIT_IDLE?ZF_DEVICE_IPS200PRO
   *DEL*:           00003EH   BYTE   INSEG    CODE           ?PR?IPS200PRO_SET_FORMAT?ZF_DEVICE_IPS200PRO
   *DEL*:           000044H   BYTE   INSEG    CODE           ?PR?IPS200PRO_SET_PARENT?ZF_DEVICE_IPS200PRO
   *DEL*:           00004BH   BYTE   INSEG    CODE           ?PR?IPS200PRO_PROGRESS_BAR_SET_VALUE?ZF_DEVICE_IPS200PRO
L251 LINKER/LOCATER V4.66.93.0                                                        01/25/2026  01:33:53  PAGE 14


   *DEL*:           000037H   BYTE   INSEG    CODE           ?PR?IPS200PRO_GET_DATE?ZF_DEVICE_IPS200PRO
   *DEL*:           00004BH   BYTE   INSEG    CODE           ?PR?IPS200PRO_WAVEFORM_CREATE?ZF_DEVICE_IPS200PRO
   *DEL*:           000056H   BYTE   INSEG    CODE           ?PR?IPS200PRO_READ_PARAMETER?ZF_DEVICE_IPS200PRO
   *DEL*:           000083H   BYTE   INSEG    CODE           ?PR?IPS200PRO_RECEIVE_BUFFER?ZF_DEVICE_IPS200PRO
   *DEL*:           000056H   BYTE   INSEG    CODE           ?PR?IPS200PRO_SET_DATE?ZF_DEVICE_IPS200PRO
   *DEL*:           000041H   BYTE   INSEG    CODE           ?PR?IPS200PRO_METER_SET_VALUE?ZF_DEVICE_IPS200PRO
   *DEL*:           000047H   BYTE   INSEG    CODE           ?PR?IPS200PRO_SET_COLOR?ZF_DEVICE_IPS200PRO
   *DEL*:           00003FH   BYTE   INSEG    CODE           ?PR?IPS200PRO_GET_INFORMATION?ZF_DEVICE_IPS200PRO
   *DEL*:           000039H   BYTE   INSEG    CODE           ?PR?IPS200PRO_DELETE_WIDGETS?ZF_DEVICE_IPS200PRO
   *DEL*:           000039H   BYTE   INSEG    CODE           ?PR?IPS200PRO_GET_TIME?ZF_DEVICE_IPS200PRO
   *DEL*:           000073H   BYTE   INSEG    CODE           ?PR?IPS200PRO_CREATE_WIDGETS?ZF_DEVICE_IPS200PRO
   *DEL*:           00003BH   BYTE   INSEG    CODE           ?PR?IPS200PRO_WAVEFORM_CLEAR?ZF_DEVICE_IPS200PRO
   *DEL*:           00004FH   BYTE   INSEG    CODE           ?PR?IPS200PRO_PAGE_SET_TITLE_NAME?ZF_DEVICE_IPS200PRO
   *DEL*:           00004BH   BYTE   INSEG    CODE           ?PR?IPS200PRO_LABEL_CREATE?ZF_DEVICE_IPS200PRO
   *DEL*:           000049H   BYTE   INSEG    CODE           ?PR?IPS200PRO_TABLE_SET_COL_WIDTH?ZF_DEVICE_IPS200PRO
   *DEL*:           000040H   BYTE   INSEG    CODE           ?PR?IPS200PRO_SET_BACKLIGHT?ZF_DEVICE_IPS200PRO
   *DEL*:           00004BH   BYTE   INSEG    CODE           ?PR?IPS200PRO_IMAGE_CREATE?ZF_DEVICE_IPS200PRO
   *DEL*:           000030H   BYTE   INSEG    CODE           ?PR?IPS200PRO_GET_FREE_STACK_SIZE?ZF_DEVICE_IPS200PRO
   *DEL*:           000068H   BYTE   INSEG    CODE           ?PR?IPS200PRO_SET_TIME?ZF_DEVICE_IPS200PRO
   *DEL*:           000149H   BYTE   INSEG    CODE           ?PR?IPS200PRO_IMAGE_DISPLAY?ZF_DEVICE_IPS200PRO
   *DEL*:           00004BH   BYTE   INSEG    CODE           ?PR?IPS200PRO_TABLE_CREATE?ZF_DEVICE_IPS200PRO
   *DEL*:           00004BH   BYTE   INSEG    CODE           ?PR?IPS200PRO_CLOCK_CREATE?ZF_DEVICE_IPS200PRO
   *DEL*:           00003FH   BYTE   INSEG    CODE           ?PR?IPS200PRO_SET_FONT?ZF_DEVICE_IPS200PRO
   *DEL*:           00000AH   BYTE   UNIT     XDATA          ?XD?IPS200PRO_SEND_BUFFER?ZF_DEVICE_IPS200PRO
   *DEL*:           000009H   BYTE   UNIT     XDATA          ?XD?IPS200PRO_RECEIVE_BUFFER?ZF_DEVICE_IPS200PRO
   *DEL*:           00000CH   BYTE   UNIT     XDATA          ?XD?IPS200PRO_WRITE_PACKET?ZF_DEVICE_IPS200PRO
   *DEL*:           000001H   BYTE   UNIT     XDATA          ?XD?IPS200PRO_READ_PARAMETER?ZF_DEVICE_IPS200PRO
   *DEL*:           00000CH   BYTE   UNIT     XDATA          ?XD?IPS200PRO_SET_DATE?ZF_DEVICE_IPS200PRO
   *DEL*:           00000CH   BYTE   UNIT     XDATA          ?XD?IPS200PRO_SET_TIME?ZF_DEVICE_IPS200PRO
   *DEL*:           00000CH   BYTE   UNIT     XDATA          ?XD?IPS200PRO_SET_PARENT?ZF_DEVICE_IPS200PRO
   *DEL*:           00000AH   BYTE   UNIT     XDATA          ?XD?IPS200PRO_SET_FORMAT?ZF_DEVICE_IPS200PRO
   *DEL*:           00000AH   BYTE   UNIT     XDATA          ?XD?IPS200PRO_SET_BACKLIGHT?ZF_DEVICE_IPS200PRO
   *DEL*:           00000AH   BYTE   UNIT     XDATA          ?XD?IPS200PRO_SET_DIRECTION?ZF_DEVICE_IPS200PRO
   *DEL*:           00000AH   BYTE   UNIT     XDATA          ?XD?IPS200PRO_SET_CRC_STATE?ZF_DEVICE_IPS200PRO
   *DEL*:           00000AH   BYTE   UNIT     XDATA          ?XD?IPS200PRO_SET_DEFAULT_FONT?ZF_DEVICE_IPS200PRO
   *DEL*:           00000AH   BYTE   UNIT     XDATA          ?XD?IPS200PRO_SET_OPTIMIZE?ZF_DEVICE_IPS200PRO
   *DEL*:           00000DH   BYTE   UNIT     XDATA          ?XD?IPS200PRO_GET_DATE?ZF_DEVICE_IPS200PRO
   *DEL*:           00000DH   BYTE   UNIT     XDATA          ?XD?IPS200PRO_GET_TIME?ZF_DEVICE_IPS200PRO
   *DEL*:           000011H   BYTE   UNIT     XDATA          ?XD?IPS200PRO_GET_INFORMATION?ZF_DEVICE_IPS200PRO
   *DEL*:           00000CH   BYTE   UNIT     XDATA          ?XD?IPS200PRO_GET_FREE_STACK_SIZE?ZF_DEVICE_IPS200PRO
   *DEL*:           000012H   BYTE   UNIT     XDATA          ?XD?IPS200PRO_CREATE_WIDGETS?ZF_DEVICE_IPS200PRO
   *DEL*:           000008H   BYTE   UNIT     XDATA          ?XD?IPS200PRO_DELETE_WIDGETS?ZF_DEVICE_IPS200PRO
   *DEL*:           00000AH   BYTE   UNIT     XDATA          ?XD?IPS200PRO_SET_FONT?ZF_DEVICE_IPS200PRO
   *DEL*:           00000CH   BYTE   UNIT     XDATA          ?XD?IPS200PRO_SET_COLOR?ZF_DEVICE_IPS200PRO
   *DEL*:           00000CH   BYTE   UNIT     XDATA          ?XD?IPS200PRO_SET_POSITION?ZF_DEVICE_IPS200PRO
   *DEL*:           00000AH   BYTE   UNIT     XDATA          ?XD?IPS200PRO_SET_HIDDEN?ZF_DEVICE_IPS200PRO
   *DEL*:           000001H   BYTE   UNIT     XDATA          ?XD?IPS200PRO_PAGE_CREATE?ZF_DEVICE_IPS200PRO
   *DEL*:           00000AH   BYTE   UNIT     XDATA          ?XD?IPS200PRO_PAGE_SWITCH?ZF_DEVICE_IPS200PRO
   *DEL*:           00000AH   BYTE   UNIT     XDATA          ?XD?IPS200PRO_PAGE_SET_TITLE_NAME?ZF_DEVICE_IPS200PRO
   *DEL*:           00000CH   BYTE   UNIT     XDATA          ?XD?IPS200PRO_PAGE_SET_TITLE_POSITION_WIDTH?ZF_DEVICE_IPS2
                                                             -00PRO
   *DEL*:           000036H   BYTE   UNIT     XDATA          ?XD?IPS200PRO_LABEL_PRINTF?ZF_DEVICE_IPS200PRO
   *DEL*:           00000AH   BYTE   UNIT     XDATA          ?XD?IPS200PRO_LABEL_SHOW_STRING?ZF_DEVICE_IPS200PRO
   *DEL*:           00000AH   BYTE   UNIT     XDATA          ?XD?IPS200PRO_LABEL_MODE?ZF_DEVICE_IPS200PRO
   *DEL*:           000041H   BYTE   UNIT     XDATA          ?XD?IPS200PRO_TABLE_CELL_PRINTF?ZF_DEVICE_IPS200PRO
   *DEL*:           00000CH   BYTE   UNIT     XDATA          ?XD?IPS200PRO_TABLE_SET_COL_WIDTH?ZF_DEVICE_IPS200PRO
   *DEL*:           00000CH   BYTE   UNIT     XDATA          ?XD?IPS200PRO_TABLE_SELECT?ZF_DEVICE_IPS200PRO
   *DEL*:           00000AH   BYTE   UNIT     XDATA          ?XD?IPS200PRO_METER_SET_VALUE?ZF_DEVICE_IPS200PRO
   *DEL*:           00000CH   BYTE   UNIT     XDATA          ?XD?IPS200PRO_PROGRESS_BAR_SET_VALUE?ZF_DEVICE_IPS200PRO
   *DEL*:           00000CH   BYTE   UNIT     XDATA          ?XD?IPS200PRO_CALENDAR_DISPLAY?ZF_DEVICE_IPS200PRO
   *DEL*:           00000EH   BYTE   UNIT     XDATA          ?XD?IPS200PRO_WAVEFORM_ADD_VALUE?ZF_DEVICE_IPS200PRO
   *DEL*:           00000CH   BYTE   UNIT     XDATA          ?XD?IPS200PRO_WAVEFORM_LINE_STATE?ZF_DEVICE_IPS200PRO
   *DEL*:           00000AH   BYTE   UNIT     XDATA          ?XD?IPS200PRO_WAVEFORM_LINE_TYPE?ZF_DEVICE_IPS200PRO
   *DEL*:           000008H   BYTE   UNIT     XDATA          ?XD?IPS200PRO_WAVEFORM_CLEAR?ZF_DEVICE_IPS200PRO
   *DEL*:           00001FH   BYTE   UNIT     XDATA          ?XD?IPS200PRO_IMAGE_DISPLAY?ZF_DEVICE_IPS200PRO
L251 LINKER/LOCATER V4.66.93.0                                                        01/25/2026  01:33:53  PAGE 15


   *DEL*:           000010H   BYTE   UNIT     XDATA          ?XD?IPS200PRO_IMAGE_DRAW_LINE?ZF_DEVICE_IPS200PRO
   *DEL*:           000018H   BYTE   UNIT     XDATA          ?XD?IPS200PRO_IMAGE_DRAW_RECTANGLE?ZF_DEVICE_IPS200PRO
   *DEL*:           00000CH   BYTE   UNIT     XDATA          ?XD?IPS200PRO_CONTAINER_RADIUS?ZF_DEVICE_IPS200PRO
   *DEL*:           000005H   BYTE   UNIT     XDATA          ?XD?IPS200PRO_INIT?ZF_DEVICE_IPS200PRO
   *DEL*:           000129H   BYTE   INSEG    CODE           ?PR?TFT180_SET_REGION?ZF_DEVICE_TFT180
   *DEL*:           00035EH   BYTE   INSEG    CODE           ?PR?TFT180_INIT?ZF_DEVICE_TFT180
   *DEL*:           00017EH   BYTE   INSEG    CODE           ?PR?TFT180_SHOW_FLOAT?ZF_DEVICE_TFT180
   *DEL*:           000063H   BYTE   INSEG    CODE           ?PR?TFT180_DRAW_POINT?ZF_DEVICE_TFT180
   *DEL*:           0000A5H   BYTE   INSEG    CODE           ?PR?TFT180_SHOW_STRING?ZF_DEVICE_TFT180
   *DEL*:           0000CEH   BYTE   INSEG    CODE           ?PR?TFT180_SHOW_CHAR?ZF_DEVICE_TFT180
   *DEL*:           0000CEH   BYTE   INSEG    CODE           ?PR?TFT180_SHOW_UINT16?ZF_DEVICE_TFT180
   *DEL*:           00000DH   BYTE   INSEG    CODE           ?PR?TFT180_SET_COLOR?ZF_DEVICE_TFT180
   *DEL*:           000102H   BYTE   INSEG    CODE           ?PR?TFT180_SHOW_INT32?ZF_DEVICE_TFT180
   *DEL*:           000119H   BYTE   INSEG    CODE           ?PR?TFT180_SHOW_INT16?ZF_DEVICE_TFT180
   *DEL*:           0001A6H   BYTE   INSEG    CODE           ?PR?TFT180_SHOW_WAVE?ZF_DEVICE_TFT180
   *DEL*:           000023H   BYTE   INSEG    CODE           ?PR?TFT180_SET_DIR?ZF_DEVICE_TFT180
   *DEL*:           000065H   BYTE   INSEG    CODE           ?PR?TFT180_CLEAR?ZF_DEVICE_TFT180
   *DEL*:           0000BAH   BYTE   INSEG    CODE           ?PR?TFT180_SHOW_UINT8?ZF_DEVICE_TFT180
   *DEL*:           0000E5H   BYTE   INSEG    CODE           ?PR?TFT180_SHOW_INT8?ZF_DEVICE_TFT180
   *DEL*:           000014H   BYTE   INSEG    CODE           ?PR?TFT180_WRITE_INDEX?ZF_DEVICE_TFT180
   *DEL*:           000004H   BYTE   UNIT     XDATA          ?XD?TFT180_SET_REGION?ZF_DEVICE_TFT180
   *DEL*:           000004H   BYTE   UNIT     XDATA          ?XD?TFT180_CLEAR?ZF_DEVICE_TFT180
   *DEL*:           000002H   BYTE   UNIT     XDATA          ?XD?TFT180_DRAW_POINT?ZF_DEVICE_TFT180
   *DEL*:           000004H   BYTE   UNIT     XDATA          ?XD?TFT180_SHOW_CHAR?ZF_DEVICE_TFT180
   *DEL*:           000006H   BYTE   UNIT     XDATA          ?XD?TFT180_SHOW_STRING?ZF_DEVICE_TFT180
   *DEL*:           000005H   BYTE   UNIT     XDATA          ?XD?TFT180_SHOW_INT8?ZF_DEVICE_TFT180
   *DEL*:           000005H   BYTE   UNIT     XDATA          ?XD?TFT180_SHOW_UINT8?ZF_DEVICE_TFT180
   *DEL*:           000008H   BYTE   UNIT     XDATA          ?XD?TFT180_SHOW_INT16?ZF_DEVICE_TFT180
   *DEL*:           000008H   BYTE   UNIT     XDATA          ?XD?TFT180_SHOW_UINT16?ZF_DEVICE_TFT180
   *DEL*:           000028H   BYTE   UNIT     XDATA          ?XD?TFT180_SHOW_INT32?ZF_DEVICE_TFT180
   *DEL*:           00002BH   BYTE   UNIT     XDATA          ?XD?TFT180_SHOW_FLOAT?ZF_DEVICE_TFT180
   *DEL*:           00001CH   BYTE   UNIT     XDATA          ?XD?TFT180_SHOW_WAVE?ZF_DEVICE_TFT180
   *DEL*:           00006EH   BYTE   INSEG    CODE           ?PR?TSL1401_SEND_DATA?ZF_DEVICE_TSL1401
   *DEL*:           00003AH   BYTE   INSEG    CODE           ?PR?TSL1401_INIT?ZF_DEVICE_TSL1401
   *DEL*:           000097H   BYTE   INSEG    CODE           ?PR?TSL1401_COLLECT_PIT_HANDLER?ZF_DEVICE_TSL1401
   *DEL*:           00000DH   BYTE   INSEG    CODE           ?PR?SET_TOF_TYPE?ZF_DEVICE_TYPE
   *DEL*:           00003AH   BYTE   INSEG    CODE           ?PR?SET_GPS_TYPE?ZF_DEVICE_TYPE
   *DEL*:           00003AH   BYTE   INSEG    CODE           ?PR?SET_WIRELESS_TYPE?ZF_DEVICE_TYPE
   *DEL*:           0000B5H   BYTE   INSEG    CODE           ?PR?WIRELESS_UART_SEND_BUFFER?ZF_DEVICE_WIRELESS_UART
   *DEL*:           00003FH   BYTE   INSEG    CODE           ?PR?WIRELESS_UART_SEND_STRING?ZF_DEVICE_WIRELESS_UART
   *DEL*:           000025H   BYTE   INSEG    CODE           ?PR?WIRELESS_UART_CALLBACK?ZF_DEVICE_WIRELESS_UART
   *DEL*:           000079H   BYTE   INSEG    CODE           ?PR?WIRELESS_UART_INIT?ZF_DEVICE_WIRELESS_UART
   *DEL*:           000044H   BYTE   INSEG    CODE           ?PR?WIRELESS_UART_SEND_BYTE?ZF_DEVICE_WIRELESS_UART
   *DEL*:           00005CH   BYTE   INSEG    CODE           ?PR?WIRELESS_UART_READ_BUFFER?ZF_DEVICE_WIRELESS_UART
   *DEL*:           000008H   BYTE   UNIT     XDATA          ?XD?WIRELESS_UART_SEND_BUFFER?ZF_DEVICE_WIRELESS_UART
   *DEL*:           000004H   BYTE   UNIT     XDATA          ?XD?WIRELESS_UART_SEND_STRING?ZF_DEVICE_WIRELESS_UART
   *DEL*:           000004H   BYTE   UNIT     XDATA          ?XD?WIRELESS_UART_READ_BUFFER?ZF_DEVICE_WIRELESS_UART
   *DEL*:           000001H   BYTE   UNIT     XDATA          ?XD?WIRELESS_UART_CALLBACK?ZF_DEVICE_WIRELESS_UART
   *DEL*:           000332H   BYTE   INSEG    CODE           ?PR?SEEKFREE_ASSISTANT_CAMERA_BOUNDARY_CONFIG?SEEKFREE_ASS
                                                             -ISTANT
   *DEL*:           0000CAH   BYTE   INSEG    CODE           ?PR?SEEKFREE_ASSISTANT_CAMERA_DOT_SEND?SEEKFREE_ASSISTANT
   *DEL*:           0000CAH   BYTE   INSEG    CODE           ?PR?SEEKFREE_ASSISTANT_OSCILLOSCOPE_SEND?SEEKFREE_ASSISTAN
                                                             -T
   *DEL*:           00002DH   BYTE   INSEG    CODE           ?PR?SEEKFREE_ASSISTANT_INIT?SEEKFREE_ASSISTANT
   *DEL*:           000017H   BYTE   INSEG    CODE           ?PR?SEEKFREE_ASSISTANT_SUM?SEEKFREE_ASSISTANT
   *DEL*:           000035H   BYTE   INSEG    CODE           ?PR?SEEKFREE_ASSISTANT_CAMERA_INFORMATION_CONFIG?SEEKFREE_
                                                             -ASSISTANT
   *DEL*:           00019CH   BYTE   INSEG    CODE           ?PR?SEEKFREE_ASSISTANT_DATA_ANALYSIS?SEEKFREE_ASSISTANT
   *DEL*:           0000F8H   BYTE   INSEG    CODE           ?PR?SEEKFREE_ASSISTANT_CAMERA_DATA_SEND?SEEKFREE_ASSISTANT
   *DEL*:           00003FH   BYTE   INSEG    CODE           ?PR?SEEKFREE_ASSISTANT_CAMERA_SEND?SEEKFREE_ASSISTANT
   *DEL*:           00000AH   BYTE   UNIT     XDATA          ?XD?SEEKFREE_ASSISTANT_CAMERA_DATA_SEND?SEEKFREE_ASSISTANT
   *DEL*:           000002H   BYTE   UNIT     XDATA          ?XD?SEEKFREE_ASSISTANT_CAMERA_INFORMATION_CONFIG?SEEKFREE_
                                                             -ASSISTANT
   *DEL*:           000024H   BYTE   UNIT     XDATA          ?XD?SEEKFREE_ASSISTANT_OSCILLOSCOPE_SEND?SEEKFREE_ASSISTAN
                                                             -T
L251 LINKER/LOCATER V4.66.93.0                                                        01/25/2026  01:33:53  PAGE 16


   *DEL*:           000003H   BYTE   UNIT     XDATA          ?XD?SEEKFREE_ASSISTANT_CAMERA_DOT_SEND?SEEKFREE_ASSISTANT
   *DEL*:           000014H   BYTE   UNIT     XDATA          ?XD?SEEKFREE_ASSISTANT_CAMERA_BOUNDARY_CONFIG?SEEKFREE_ASS
                                                             -ISTANT
   *DEL*:           000085H   BYTE   UNIT     XDATA          ?XD?SEEKFREE_ASSISTANT_DATA_ANALYSIS?SEEKFREE_ASSISTANT
   *DEL*:           000000H.1 BIT    UNIT     BIT            ?BI?SEEKFREE_ASSISTANT_DATA_ANALYSIS?SEEKFREE_ASSISTANT
   *DEL*:           000041H   BYTE   INSEG    CODE           ?PR?SEEKFREE_ASSISTANT_INTERFACE_INIT?SEEKFREE_ASSISTANT_I
                                                             -NTERFACE
   *DEL*:           000082H   BYTE   INSEG    CODE           ?PR?MOTOR_TEST?MOTOR
   *DEL*:           000028H   BYTE   INSEG    CODE           ?PR?MOTOR_FANSET?MOTOR
   *DEL*:           000081H   BYTE   INSEG    CODE           ?PR?KEY_READ?KEY
   *DEL*:           00002AH   BYTE   INSEG    CODE           ?PR?KEY_DISP?KEY
   *DEL*:           0000B7H   BYTE   INSEG    CODE           ?PR?ADC_TEST?ADC
   *DEL*:           00005EH   BYTE   INSEG    CODE           ?PR?ADC_MID_SAMPLE?ADC
   *DEL*:           000051H   BYTE   INSEG    CODE           ?PR?ADC_GETVAL_QUICK?ADC
   *DEL*:           000051H   BYTE   INSEG    CODE           ?PR?ADC_GETVAL_MID?ADC
   *DEL*:           00004EH   BYTE   INSEG    CODE           ?PR?SORT_SEVEN?ADC
   *DEL*:           000051H   BYTE   INSEG    CODE           ?PR?ADC_GETVAL_AVG?ADC
   *DEL*:           000053H   BYTE   INSEG    CODE           ?PR?ADC_GETVAL?ADC
   *DEL*:           00003EH   BYTE   INSEG    CODE           ?PR?ADC_SAMPLE_A?ADC
   *DEL*:           00007FH   BYTE   INSEG    CODE           ?PR?ADC_SAMPLE_B?ADC
   *DEL*:           000004H   BYTE   UNIT     XDATA          ?XD?ADC_MID_SAMPLE?ADC
   *DEL*:           000007H   BYTE   UNIT     XDATA          ?XD?ADC_SAMPLE_B?ADC
   *DEL*:           00000EH   BYTE   UNIT     XDATA          ?XD?ADC_SAMPLE_A?ADC
   *DEL*:           000001H   BYTE   INSEG    CODE           ?PR?UART_DISP?UART
   *DEL*:           000073H   BYTE   INSEG    CODE           ?PR?PD_GYRO_LOOP?PID
   *DEL*:           00010CH   BYTE   INSEG    CODE           ?PR?PD_DIRECTION_LOOP?PID
   *DEL*:           000045H   BYTE   INSEG    CODE           ?PR?PID_CLEAR?PID
   *DEL*:           000001H   BYTE   INSEG    CODE           ?PR?PD_CLEAR_HISTORY?PID
   *DEL*:           0000D2H   BYTE   INSEG    CODE           ?PR?PD_ANGLE_LOOP?PID
   *DEL*:           00002EH   BYTE   INSEG    CODE           ?PR?PID_SET_PARAM?PID
   *DEL*:           000008H   BYTE   UNIT     XDATA          ?XD?PID_SET_PARAM?PID
   *DEL*:           0000F2H   BYTE   INSEG    CODE           ?PR?POW?_?POW
   *DEL*:           000037H   BYTE   INSEG    CODE           ?PR?STRNCMP?_?STRNCMP
   *DEL*:           000030H   BYTE   INSEG    CODE           ?PR?STRNCPY?_?STRNCPY
   *DEL*:           00000EH   BYTE   INSEG    CODE           ?PR?STRLEN?_?STRLEN
   *DEL*:           00001FH   BYTE   INSEG    CODE           ?PR?STRCHR?_?STRCHR
   *DEL*:           00001AH   BYTE   INSEG    CODE           ?PR?MEMSET?_?MEMSET



OVERLAY MAP OF MODULE:   .\out_file\SEEKFREE (?C_START)


FUNCTION/MODULE                               XDATA_GROUP
--> CALLED FUNCTION/MODULE                    START  STOP
=========================================================
?C_C51STARTUP                                 ----- -----

*** NEW ROOT ********************************

?C_C51STARTUP?3                               ----- -----
  +--> main/main

main/main                                     ----- -----
  +--> _m/main
  +--> SPRINTF/SPRINTF

_m/main                                       ----- -----
  +--> clock_init/zf_common_clock
  +--> debug_init/zf_common_debug
  +--> key_init/key
  +--> Motor_Init/motor
  +--> Adc_All_Init/adc
  +--> Encoder_Init/encoder
  +--> imu_init/IMU
L251 LINKER/LOCATER V4.66.93.0                                                        01/25/2026  01:33:53  PAGE 17


  +--> PRINTF/PRINTF
  +--> SDSD_init/control
  +--> pid_init/pid
  +--> pid_set_target/pid
  +--> pd_init/pid
  +--> pit_handler_1/main
  +--> pit_handler_2/main
  +--> ?C?SLDIV/?C?SLDIV
  +--> pit_init/zf_driver_pit
  +--> Adc_Getval_Fast/adc
  +--> Normalization/normalization
  +--> get_control_mode/task
  +--> get_mode_name/task
  +--> system_delay_ms/zf_driver_delay

clock_init/zf_common_clock                    ----- -----
  +--> set_sys_clk/zf_common_clock
  +--> system_delay_init/zf_driver_delay
  +--> interrupt_global_enable/zf_common_interrupt

set_sys_clk/zf_common_clock                   ----- -----

system_delay_init/zf_driver_delay             ----- -----
  +--> ?C?SLDIV/?C?SLDIV

?C?SLDIV/?C?SLDIV                             ----- -----
  +--> ?C?ULIDIV/?C?ULDIV

?C?ULIDIV/?C?ULDIV                            ----- -----

interrupt_global_enable/zf_common_interr+     ----- -----
... upt

debug_init/zf_common_debug                    ----- -----
  +--> uart_init/zf_driver_uart
  +--> fifo_init/zf_common_fifo
  +--> uart_rx_interrupt/zf_driver_uart
  +--> debug_interrupr_handler/zf_common_debug

uart_init/zf_driver_uart                      063BH 0640H
  +--> uart_funciton_check/zf_driver_uart
  +--> debug_assert_handler/zf_common_debug
  +--> timer_funciton_check/zf_driver_timer
  +--> gpio_init/zf_driver_gpio
  +--> ?C?ULIDIV/?C?ULDIV
  +--> uart_dma_init/zf_driver_uart

uart_funciton_check/zf_driver_uart            ----- -----

debug_assert_handler/zf_common_debug          064DH 065CH
  +--> PRINTF/PRINTF
  +--> system_delay_ms/zf_driver_delay

PRINTF/PRINTF                                 065DH 0684H
  +--> OUT/PRINTF

OUT/PRINTF                                    ----- -----
  +--> PUTCH/PRINTF

PUTCH/PRINTF                                  ----- -----
  +--> putchar/zf_common_debug
  +--> OUT/PRINTF

putchar/zf_common_debug                       ----- -----
  +--> uart_write_byte/zf_driver_uart
L251 LINKER/LOCATER V4.66.93.0                                                        01/25/2026  01:33:53  PAGE 18



uart_write_byte/zf_driver_uart                0685H 0685H
  +--> uart_write_buffer/zf_driver_uart

uart_write_buffer/zf_driver_uart              0686H 06CBH
  +--> memcpy?_/memcpy

memcpy?_/memcpy                               ----- -----

system_delay_ms/zf_driver_delay               ----- -----
  +--> delay_cycles/zf_driver_delay

delay_cycles/zf_driver_delay                  ----- -----

timer_funciton_check/zf_driver_timer          ----- -----

gpio_init/zf_driver_gpio                      0649H 064BH
  +--> debug_assert_handler/zf_common_debug
  +--> gpio_set_impedance/zf_driver_gpio
  +--> gpio_set_dir/zf_driver_gpio
  +--> gpio_set_mode/zf_driver_gpio
  +--> gpio_set_level/zf_driver_gpio

gpio_set_impedance/zf_driver_gpio             ----- -----

gpio_set_dir/zf_driver_gpio                   ----- -----
  +--> debug_assert_handler/zf_common_debug

gpio_set_mode/zf_driver_gpio                  ----- -----

gpio_set_level/zf_driver_gpio                 ----- -----

uart_dma_init/zf_driver_uart                  ----- -----

fifo_init/zf_common_fifo                      063BH 0644H
  +--> debug_assert_handler/zf_common_debug

uart_rx_interrupt/zf_driver_uart              ----- -----

debug_interrupr_handler/zf_common_debug       063BH 063BH
  +--> uart_query_byte/zf_driver_uart
  +--> fifo_write_buffer/zf_common_fifo

uart_query_byte/zf_driver_uart                ----- -----
  +--> uart_rx_start_buff/zf_driver_uart

uart_rx_start_buff/zf_driver_uart             ----- -----

fifo_write_buffer/zf_common_fifo              063CH 0649H
  +--> debug_assert_handler/zf_common_debug
  +--> memcpy?_/memcpy
  +--> fifo_head_offset/zf_common_fifo

fifo_head_offset/zf_common_fifo               ----- -----

key_init/key                                  ----- -----
  +--> gpio_init/zf_driver_gpio

Motor_Init/motor                              ----- -----
  +--> gpio_init/zf_driver_gpio
  +--> pwm_init/zf_driver_pwm

pwm_init/zf_driver_pwm                        063BH 0648H
  +--> debug_assert_handler/zf_common_debug
  +--> gpio_init/zf_driver_gpio
L251 LINKER/LOCATER V4.66.93.0                                                        01/25/2026  01:33:53  PAGE 19


  +--> ?C?ULIDIV/?C?ULDIV

Adc_All_Init/adc                              ----- -----
  +--> adc_init/zf_driver_adc

adc_init/zf_driver_adc                        ----- -----

Encoder_Init/encoder                          ----- -----
  +--> encoder_dir_init/zf_driver_encoder

encoder_dir_init/zf_driver_encoder            063BH 063CH
  +--> timer_funciton_check/zf_driver_timer
  +--> debug_assert_handler/zf_common_debug
  +--> gpio_init/zf_driver_gpio

imu_init/IMU                                  ----- -----
  +--> imu660rb_init/zf_device_imu660rb
  +--> system_delay_ms/zf_driver_delay
  +--> Mahony_Init/quaternion
  +--> imu_get_data/IMU
  +--> PRINTF/PRINTF

imu660rb_init/zf_device_imu660rb              ----- -----
  +--> system_delay_ms/zf_driver_delay
  +--> imu660rb_self_check/zf_device_imu660rb
  +--> PRINTF/PRINTF
  +--> imu660rb_write_register/zf_device_imu660rb

imu660rb_self_check/zf_device_imu660rb        ----- -----
  +--> imu660rb_read_register/zf_device_imu660rb
  +--> system_delay_ms/zf_driver_delay

imu660rb_read_register/zf_device_imu660r+     063BH 063BH
... b
  +--> imu660rb_simspi_r_reg_byte/zf_device_imu660rb

imu660rb_simspi_r_reg_byte/zf_device_imu+     ----- -----
... 660rb
  +--> imu660rb_simspi_wr_byte/zf_device_imu660rb

imu660rb_simspi_wr_byte/zf_device_imu660+     ----- -----
... rb

imu660rb_write_register/zf_device_imu660+     ----- -----
... rb
  +--> imu660rb_simspi_w_reg_byte/zf_device_imu660rb

imu660rb_simspi_w_reg_byte/zf_device_imu+     ----- -----
... 660rb
  +--> imu660rb_simspi_wr_byte/zf_device_imu660rb

Mahony_Init/quaternion                        ----- -----

imu_get_data/IMU                              ----- -----
  +--> imu660rb_get_acc/zf_device_imu660rb
  +--> imu660rb_get_gyro/zf_device_imu660rb
  +--> imu660rb_acc_transition/zf_device_imu660rb
  +--> imu660rb_gyro_transition/zf_device_imu660rb

imu660rb_get_acc/zf_device_imu660rb           063BH 0640H
  +--> imu660rb_read_registers/zf_device_imu660rb

imu660rb_read_registers/zf_device_imu660+     ----- -----
... rb
  +--> imu660rb_simspi_r_reg_bytes/zf_device_imu660rb
L251 LINKER/LOCATER V4.66.93.0                                                        01/25/2026  01:33:53  PAGE 20



imu660rb_simspi_r_reg_bytes/zf_device_im+     0641H 0644H
... u660rb
  +--> imu660rb_simspi_wr_byte/zf_device_imu660rb

imu660rb_get_gyro/zf_device_imu660rb          063BH 0640H
  +--> imu660rb_read_registers/zf_device_imu660rb

imu660rb_acc_transition/zf_device_imu660+     ----- -----
... rb

imu660rb_gyro_transition/zf_device_imu66+     ----- -----
... 0rb

SDSD_init/control                             063BH 0642H

pid_init/pid                                  063BH 0642H

pid_set_target/pid                            ----- -----

pd_init/pid                                   063BH 0646H

pit_handler_1/main                            ----- -----
  +--> motor_control_task/task

motor_control_task/task                       ----- -----
  +--> Encoder_Get_Filtered/encoder
  +--> get_control_mode/task
  +--> sdsd_control_with_sensor_check/task
  +--> pd_control_with_sensor_check/task
  +--> pid_only_control/task
  +--> motor_pid_control/pid

Encoder_Get_Filtered/encoder                  063BH 063EH
  +--> encoder_get_count/zf_driver_encoder
  +--> iir_lowpass/encoder
  +--> encoder_clear_count/zf_driver_encoder

encoder_get_count/zf_driver_encoder           ----- -----
  +--> gpio_get_level/zf_driver_gpio

gpio_get_level/zf_driver_gpio                 ----- -----

iir_lowpass/encoder                           063FH 0642H

encoder_clear_count/zf_driver_encoder         ----- -----

get_control_mode/task                         ----- -----

sdsd_control_with_sensor_check/task           ----- -----
  +--> sensor_check_valid/task
  +--> SDSD_calculate/control
  +--> pid_calc_position/pid

sensor_check_valid/task                       ----- -----

SDSD_calculate/control                        ----- -----
  +--> ?C?SLDIV/?C?SLDIV

pid_calc_position/pid                         ----- -----
  +--> constrain_float/pid

constrain_float/pid                           0641H 0644H

pd_control_with_sensor_check/task             063BH 063BH
L251 LINKER/LOCATER V4.66.93.0                                                        01/25/2026  01:33:53  PAGE 21


  +--> sensor_check_valid/task
  +--> position_error_calc/task
  +--> pd_direction_gyro_loop/pid

position_error_calc/task                      ----- -----

pd_direction_gyro_loop/pid                    ----- -----

pid_only_control/task                         ----- -----

motor_pid_control/pid                         063BH 0640H
  +--> pid_calc_increment/pid
  +--> Motor_LeftForward/motor
  +--> Motor_LeftBackward/motor
  +--> Motor_RightForward/motor
  +--> Motor_RightBackward/motor

pid_calc_increment/pid                        ----- -----
  +--> constrain_float/pid

Motor_LeftForward/motor                       ----- -----
  +--> gpio_set_level/zf_driver_gpio
  +--> pwm_set_duty/zf_driver_pwm

pwm_set_duty/zf_driver_pwm                    0641H 064CH
  +--> debug_assert_handler/zf_common_debug

Motor_LeftBackward/motor                      ----- -----
  +--> gpio_set_level/zf_driver_gpio
  +--> pwm_set_duty/zf_driver_pwm

Motor_RightForward/motor                      ----- -----
  +--> gpio_set_level/zf_driver_gpio
  +--> pwm_set_duty/zf_driver_pwm

Motor_RightBackward/motor                     ----- -----
  +--> gpio_set_level/zf_driver_gpio
  +--> pwm_set_duty/zf_driver_pwm

pit_handler_2/main                            ----- -----
  +--> imu_update_task/task

imu_update_task/task                          ----- -----
  +--> imu_update/IMU

imu_update/IMU                                ----- -----
  +--> imu_get_data/IMU
  +--> Fast_InvSqrt/quaternion
  +--> Mahony_Update/quaternion
  +--> Mahony_GetEuler/quaternion
  +--> angle_normalize/IMU

Fast_InvSqrt/quaternion                       ----- -----
  +--> my_sqrt/quaternion

my_sqrt/quaternion                            ----- -----

Mahony_Update/quaternion                      063BH 067EH
  +--> Fast_InvSqrt/quaternion

Mahony_GetEuler/quaternion                    063BH 064AH
  +--> Quaternion_ToEuler/quaternion

Quaternion_ToEuler/quaternion                 064BH 065AH
  +--> my_atan2/quaternion
L251 LINKER/LOCATER V4.66.93.0                                                        01/25/2026  01:33:53  PAGE 22


  +--> my_asin/quaternion

my_atan2/quaternion                           065BH 065EH

my_asin/quaternion                            ----- -----

angle_normalize/IMU                           ----- -----

pit_init/zf_driver_pit                        ----- -----
  +--> ?C?ULIDIV/?C?ULDIV

Adc_Getval_Fast/adc                           ----- -----
  +--> adc_sample/adc
  +--> limit/adc

adc_sample/adc                                063BH 0641H
  +--> adc_convert/zf_driver_adc

adc_convert/zf_driver_adc                     ----- -----

limit/adc                                     ----- -----

Normalization/normalization                   ----- -----

get_mode_name/task                            ----- -----

SPRINTF/SPRINTF                               063BH 0662H
  +--> OUT/SPRINTF

OUT/SPRINTF                                   ----- -----
  +--> PUTCH/SPRINTF

PUTCH/SPRINTF                                 ----- -----

*** NEW ROOT ********************************

DMA_UART1_IRQHandler/isr                      ----- -----
  +--> uart_rx_start_buff/zf_driver_uart

*** NEW ROOT ********************************

DMA_UART2_IRQHandler/isr                      ----- -----
  +--> uart_rx_start_buff/zf_driver_uart

*** NEW ROOT ********************************

DMA_UART3_IRQHandler/isr                      ----- -----
  +--> uart_rx_start_buff/zf_driver_uart

*** NEW ROOT ********************************

DMA_UART4_IRQHandler/isr                      ----- -----
  +--> uart_rx_start_buff/zf_driver_uart

*** NEW ROOT ********************************

TM0_IRQHandler/isr                            ----- -----

*** NEW ROOT ********************************

TM1_IRQHandler/isr                            ----- -----

*** NEW ROOT ********************************

TM2_IRQHandler/isr                            ----- -----
L251 LINKER/LOCATER V4.66.93.0                                                        01/25/2026  01:33:53  PAGE 23



*** NEW ROOT ********************************

TM3_IRQHandler/isr                            ----- -----

*** NEW ROOT ********************************

TM4_IRQHandler/isr                            ----- -----

*** NEW ROOT ********************************

?C_C51STARTUP?2                               ----- -----



PUBLIC SYMBOLS OF MODULE:  .\out_file\SEEKFREE (?C_START)


      VALUE       CLASS    TYPE      PUBLIC SYMBOL NAME
      =================================================
      00FF304AH   CODE     ---       ?C?BMOVEPP
      00FF3048H   CODE     ---       ?C?BMOVEPP8
      00FF243EH   CODE     NEAR LAB  ?C?CASTF
      000000FFH   NUMBER   ---       ?C?CODESEG
      00FF240BH   CODE     NEAR LAB  ?C?FCASTC
      00FF2406H   CODE     NEAR LAB  ?C?FCASTI
      00FF2401H   CODE     NEAR LAB  ?C?FCASTL
      00FF2C4BH   CODE     ---       ?C?FP2SERIES
      00FF21D4H   CODE     ---       ?C?FPADD
      00FF23AFH   CODE     ---       ?C?FPCMP
      00FF23ADH   CODE     ---       ?C?FPCMP3
      00FF2E13H   CODE     ---       ?C?FPCONVERT
      00FF232CH   CODE     ---       ?C?FPDIV
      00FF27A1H   CODE     ---       ?C?FPGETOPN2
      00FF228CH   CODE     ---       ?C?FPMUL
      00FF27DEH   CODE     ---       ?C?FPNANRESULT
      00FF23F3H   CODE     ---       ?C?FPNEG
      00FF27E6H   CODE     ---       ?C?FPOVERFLOW
      00FF27BAH   CODE     ---       ?C?FPRESULT
      00FF27D0H   CODE     ---       ?C?FPRESULT2
      00FF2ECBH   CODE     ---       ?C?FPROUND
      00FF2C54H   CODE     ---       ?C?FPSERIES
      00FF21D1H   CODE     ---       ?C?FPSUB
      00FF27E3H   CODE     ---       ?C?FPUNDERFLOW
      00FF2F3EH   CODE     ---       ?C?FTNPWR
      00FF6C31H   CODE     ---       ?C?INITHDATA
      00FF7B83H   HCONST   WORD      ?C?INITHDATA_END
      00FF2FB8H   CODE     ---       ?C?LIMUL
      00FF2FA7H   CODE     ---       ?C?LMUL
      00FF283CH   CODE     ---       ?C?PRNFMT
      00FF2F75H   CODE     ---       ?C?SIDIV
      00FF3014H   CODE     NEAR LAB  ?C?SLDIV
      00FF0000H   CODE     ---       ?C?STARTUP
      00FF2FC3H   CODE     NEAR LAB  ?C?ULDIV
      00FF2FC1H   CODE     NEAR LAB  ?C?ULIDIV
      00000001H   NUMBER   ---       ?C?XDATASEG
      00FF0000H   CODE     ---       ?C_STARTUP
      00010639H   XDATA    BYTE      ?constrain_float?BYTE
      00010637H   XDATA    BYTE      ?fifo_init?BYTE
*DEL*:1FFFFFFCH   XDATA    BYTE      ?fifo_read_buffer?BYTE
      00010638H   XDATA    BYTE      ?fifo_write_buffer?BYTE
*DEL*:00000000H   XDATA    BYTE      ?get_two_points_azimuth?BYTE
*DEL*:1FFFFFF8H   XDATA    BYTE      ?get_two_points_distance?BYTE
*DEL*:1FFFFFFCH   XDATA    BYTE      ?iap_read_buff?BYTE
*DEL*:1FFFFFFCH   XDATA    BYTE      ?iap_write_buff?BYTE
L251 LINKER/LOCATER V4.66.93.0                                                        01/25/2026  01:33:53  PAGE 24


      00010637H   XDATA    BYTE      ?iir_lowpass?BYTE
*DEL*:1FFFFFFCH   XDATA    BYTE      ?ips114_show_chinese?BYTE
*DEL*:1FFFFFFCH   XDATA    BYTE      ?ips114_show_float?BYTE
*DEL*:1FFFFFFCH   XDATA    BYTE      ?ips114_show_wave?BYTE
*DEL*:1FFFFFFCH   XDATA    BYTE      ?ips200_show_chinese?BYTE
*DEL*:1FFFFFFCH   XDATA    BYTE      ?ips200_show_float?BYTE
*DEL*:1FFFFFFCH   XDATA    BYTE      ?ips200_show_wave?BYTE
*DEL*:1FFFFFF8H   XDATA    BYTE      ?ips200pro_create_widgets?BYTE
*DEL*:1FFFFFF8H   XDATA    BYTE      ?ips200pro_image_display?BYTE
*DEL*:1FFFFFF7H   XDATA    BYTE      ?ips200pro_image_draw_line?BYTE
*DEL*:1FFFFFF7H   XDATA    BYTE      ?ips200pro_image_draw_rectangle?BYTE
*DEL*:00000028H   XDATA    BYTE      ?ips200pro_label_printf?BYTE
*DEL*:1FFFFFFCH   XDATA    BYTE      ?ips200pro_receive_buffer?BYTE
*DEL*:1FFFFFFCH   XDATA    BYTE      ?ips200pro_send_buffer?BYTE
*DEL*:00000028H   XDATA    BYTE      ?ips200pro_table_cell_printf?BYTE
*DEL*:1FFFFFF7H   XDATA    BYTE      ?ips200pro_waveform_add_value?BYTE
*DEL*:1FFFFFF7H   XDATA    BYTE      ?ips200pro_write_packet?BYTE
      00010637H   XDATA    BYTE      ?Mahony_Update?BYTE
      00010633H   XDATA    BYTE      ?pd_init?BYTE
      00010633H   XDATA    BYTE      ?pid_init?BYTE
*DEL*:1FFFFFF8H   XDATA    BYTE      ?pid_set_param?BYTE
      00010685H   XDATA    ---       ?printf?BYTE
      00010639H   XDATA    BYTE      ?pwm_init?BYTE
*DEL*:1FFFFFFEH   XDATA    BYTE      ?pwm_set_freq?BYTE
      00010633H   XDATA    BYTE      ?SDSD_init?BYTE
*DEL*:1FFFFFF8H   XDATA    BYTE      ?seekfree_assistant_camera_boundary_config?BYTE
*DEL*:1FFFFFFBH   XDATA    BYTE      ?seekfree_assistant_camera_data_send?BYTE
*DEL*:1FFFFFF8H   XDATA    BYTE      ?seekfree_assistant_camera_information_config?BYTE
*DEL*:1FFFFFFCH   XDATA    BYTE      ?soft_iic_init?BYTE
*DEL*:1FFFFFFCH   XDATA    BYTE      ?soft_iic_read_16bit_array?BYTE
*DEL*:1FFFFFFCH   XDATA    BYTE      ?soft_iic_read_16bit_registers?BYTE
*DEL*:1FFFFFFCH   XDATA    BYTE      ?soft_iic_read_8bit_array?BYTE
*DEL*:1FFFFFFCH   XDATA    BYTE      ?soft_iic_read_8bit_registers?BYTE
*DEL*:1FFFFFFCH   XDATA    BYTE      ?soft_iic_transfer_16bit_array?BYTE
*DEL*:1FFFFFFCH   XDATA    BYTE      ?soft_iic_transfer_8bit_array?BYTE
*DEL*:1FFFFFFCH   XDATA    BYTE      ?soft_iic_write_16bit_array?BYTE
*DEL*:1FFFFFFCH   XDATA    BYTE      ?soft_iic_write_16bit_registers?BYTE
*DEL*:1FFFFFFCH   XDATA    BYTE      ?soft_iic_write_8bit_array?BYTE
*DEL*:1FFFFFFCH   XDATA    BYTE      ?soft_iic_write_8bit_registers?BYTE
*DEL*:1FFFFFFCH   XDATA    BYTE      ?soft_spi_init?BYTE
*DEL*:1FFFFFFCH   XDATA    BYTE      ?soft_spi_read_16bit_array?BYTE
*DEL*:1FFFFFFCH   XDATA    BYTE      ?soft_spi_read_16bit_registers?BYTE
*DEL*:1FFFFFFCH   XDATA    BYTE      ?soft_spi_read_8bit_array?BYTE
*DEL*:1FFFFFFCH   XDATA    BYTE      ?soft_spi_read_8bit_registers?BYTE
*DEL*:1FFFFFFCH   XDATA    BYTE      ?soft_spi_transfer_16bit?BYTE
*DEL*:1FFFFFFCH   XDATA    BYTE      ?soft_spi_transfer_8bit?BYTE
*DEL*:1FFFFFFCH   XDATA    BYTE      ?soft_spi_write_16bit_array?BYTE
*DEL*:1FFFFFFCH   XDATA    BYTE      ?soft_spi_write_16bit_registers?BYTE
*DEL*:1FFFFFFCH   XDATA    BYTE      ?soft_spi_write_8bit_array?BYTE
*DEL*:1FFFFFFCH   XDATA    BYTE      ?soft_spi_write_8bit_registers?BYTE
*DEL*:1FFFFFFCH   XDATA    BYTE      ?spi_init?BYTE
*DEL*:1FFFFFFCH   XDATA    BYTE      ?spi_read_16bit_array?BYTE
*DEL*:1FFFFFFCH   XDATA    BYTE      ?spi_read_16bit_registers?BYTE
*DEL*:1FFFFFFCH   XDATA    BYTE      ?spi_read_8bit_array?BYTE
*DEL*:1FFFFFFBH   XDATA    BYTE      ?spi_read_8bit_registers?BYTE
*DEL*:1FFFFFFCH   XDATA    BYTE      ?spi_transfer_16bit?BYTE
*DEL*:1FFFFFFCH   XDATA    BYTE      ?spi_transfer_8bit?BYTE
*DEL*:1FFFFFFCH   XDATA    BYTE      ?spi_write_16bit_array?BYTE
*DEL*:1FFFFFFCH   XDATA    BYTE      ?spi_write_16bit_registers?BYTE
*DEL*:1FFFFFFCH   XDATA    BYTE      ?spi_write_8bit_array?BYTE
*DEL*:1FFFFFFBH   XDATA    BYTE      ?spi_write_8bit_registers?BYTE
      00010663H   XDATA    ---       ?sprintf?BYTE
*DEL*:1FFFFFFCH   XDATA    BYTE      ?tft180_show_float?BYTE
*DEL*:1FFFFFFCH   XDATA    BYTE      ?tft180_show_wave?BYTE
      00010637H   XDATA    BYTE      ?uart_init?BYTE
L251 LINKER/LOCATER V4.66.93.0                                                        01/25/2026  01:33:53  PAGE 25


*DEL*:1FFFFFF8H   XDATA    BYTE      ?vsnprintf?BYTE
*DEL*:00000028H   XDATA    BYTE      ?zf_sprintf?BYTE
      00FF27F2H   CODE     ---       _chkfloat_?_
      00FF45A4H   CODE     ---       _m
*SFR* 000000D0H.6 DATA     BIT       AC
*SFR* 000000E0H   DATA     BYTE      ACC
      00FF7485H   CODE     ---       Adc_All_Init
*SFR* 000000BCH   DATA     BYTE      ADC_CONTR
      00FF739EH   CODE     ---       adc_convert
*DEL*:00000000H   CODE     ---       Adc_Getval
*DEL*:00000000H   CODE     ---       Adc_Getval_Avg
      00FF6CB6H   CODE     ---       Adc_Getval_Fast
*DEL*:00000000H   CODE     ---       Adc_Getval_Mid
*DEL*:00000000H   CODE     ---       Adc_Getval_Quick
      00FF69EDH   CODE     ---       adc_init
*DEL*:00000000H   CODE     ---       adc_mean_filter_convert
*DEL*:00000000H   CODE     ---       adc_mid_sample
      0001099DH   XDATA    ---       adc_normalized_list
*SFR* 000000BDH   DATA     BYTE      ADC_RES
*SFR* 000000BEH   DATA     BYTE      ADC_RESL
      00FF63ADH   CODE     ---       adc_sample
*DEL*:00000000H   CODE     ---       adc_sample_a
*DEL*:00000000H   CODE     ---       adc_sample_b
*DEL*:00000000H   CODE     ---       Adc_Test
      000108A5H   XDATA    ---       adc_val_list
*SFR* 000000DEH   DATA     BYTE      ADCCFG
      000107D3H   XDATA    ---       ahrs
      00FF7107H   CODE     ---       angle_normalize
      00FF3071H   CODE     ---       ascii_font_8x16
      00FF2781H   CODE     ---       asin?_
      00FF26AFH   CODE     ---       atan?_
*SFR* 000000EFH   DATA     BYTE      AUXINTIF
*SFR* 0000008EH   DATA     BYTE      AUXR
*SFR* 00000097H   DATA     BYTE      AUXR2
*SFR* 000000F0H   DATA     BYTE      B
*DEL*:00000000H   CODE     ---       ble6a20_callback
*DEL*:00000000H   CODE     ---       ble6a20_init
*DEL*:00000000H   CODE     ---       ble6a20_read_buffer
*DEL*:00000000H   CODE     ---       ble6a20_send_buffer
*DEL*:00000000H   CODE     ---       ble6a20_send_byte
*DEL*:00000000H   CODE     ---       ble6a20_send_string
      00010871H   XDATA    ---       buf
*SFR* 000000C8H.1 DATA     BIT       C_T2
*SFR* 000000F1H   DATA     BYTE      CANICR
*SFR* 000000FAH   DATA     BYTE      CCAP0H
*SFR* 000000EAH   DATA     BYTE      CCAP0L
*SFR* 000000FBH   DATA     BYTE      CCAP1H
*SFR* 000000EBH   DATA     BYTE      CCAP1L
*SFR* 000000FCH   DATA     BYTE      CCAP2H
*SFR* 000000ECH   DATA     BYTE      CCAP2L
*SFR* 000000FDH   DATA     BYTE      CCAP3H
*SFR* 000000EDH   DATA     BYTE      CCAP3L
*SFR* 000000FEH   DATA     BYTE      CCAP4H
*SFR* 000000EEH   DATA     BYTE      CCAP4L
*SFR* 000000DAH   DATA     BYTE      CCAPM0
*SFR* 000000DBH   DATA     BYTE      CCAPM1
*SFR* 000000DCH   DATA     BYTE      CCAPM2
*SFR* 000000DDH   DATA     BYTE      CCAPM3
*SFR* 000000DEH   DATA     BYTE      CCAPM4
*SFR* 000000D8H.0 DATA     BIT       CCF0
*SFR* 000000D8H.1 DATA     BIT       CCF1
*SFR* 000000D8H.2 DATA     BIT       CCF2
*SFR* 000000D8H.3 DATA     BIT       CCF3
*SFR* 000000D8H.4 DATA     BIT       CCF4
*SFR* 000000D8H   DATA     BYTE      CCON
L251 LINKER/LOCATER V4.66.93.0                                                        01/25/2026  01:33:53  PAGE 26


*SFR* 00000090H.3 DATA     BIT       CEX0
*SFR* 00000090H.4 DATA     BIT       CEX1
*SFR* 00000090H.5 DATA     BIT       CEX2
*SFR* 00000090H.6 DATA     BIT       CEX3
*SFR* 00000090H.7 DATA     BIT       CEX4
*SFR* 000000D8H.7 DATA     BIT       CF
*SFR* 000000F9H   DATA     BYTE      CH
      000108A4H   XDATA    BYTE      channel_index
      000108C3H   XDATA    ---       channel_list
*SFR* 000000EAH   DATA     BYTE      CKCON
*SFR* 000000E9H   DATA     BYTE      CL
      00FF684FH   CODE     ---       clock_init
*SFR* 000000D9H   DATA     BYTE      CMOD
*SFR* 000000E6H   DATA     BYTE      CMPCR1
*SFR* 000000E7H   DATA     BYTE      CMPCR2
      000108A3H   XDATA    BYTE      cnt
      00FF0066H   CODE     ---       constrain_float
      00FF259FH   CODE     ---       cos?_
*SFR* 000000C8H.0 DATA     BIT       CP_RL2
*SFR* 000000D8H.6 DATA     BIT       CR
*SFR* 000000D0H.7 DATA     BIT       CY
      00FF6923H   CODE     ---       debug_assert_handler
      00FF6AAEH   CODE     ---       debug_init
      00FF7230H   CODE     ---       debug_interrupr_handler
*DEL*:00000000H   CODE     ---       debug_read_buffer
*DEL*:00000000H   CODE     ---       debug_send_buffer
      000106CCH   XDATA    ---       debug_uart_buffer
      0001070DH   XDATA    ---       debug_uart_fifo
      00010952H   XDATA    WORD      dl1a_distance_mm
      00010954H   XDATA    BYTE      dl1a_finsh_flag
*DEL*:00000000H   CODE     ---       dl1a_get_distance
*DEL*:00000000H   CODE     ---       dl1a_init
*DEL*:00000000H   CODE     ---       dl1a_int_handler
      0001095FH   XDATA    WORD      dl1b_distance_mm
      00010961H   XDATA    BYTE      dl1b_finsh_flag
*DEL*:00000000H   CODE     ---       dl1b_get_distance
*DEL*:00000000H   CODE     ---       dl1b_init
*DEL*:00000000H   CODE     ---       dl1b_int_handler
      00FF628AH   CODE     ---       DMA_UART1_IRQHandler
      00FF651DH   CODE     ---       DMA_UART2_IRQHandler
      00FF6596H   CODE     ---       DMA_UART3_IRQHandler
      00FF660FH   CODE     ---       DMA_UART4_IRQHandler
*SFR* 00000083H   DATA     BYTE      DPH
*SFR* 00000082H   DATA     BYTE      DPL
*SFR* 00000084H   DATA     BYTE      DPXL
*SFR* 000000A8H.7 DATA     BIT       EA
*SFR* 000000BAH.7 DATA     BIT       EAXFR
*SFR* 000000A8H.6 DATA     BIT       EC
*SFR* 00000090H.2 DATA     BIT       ECI
*DEL*:00000000H   CODE     ---       eeprom_trig
      00FF6C65H   CODE     ---       encoder_clear_count
      0001098FH   XDATA    INT       encoder_data_dir_L
      00010991H   XDATA    INT       encoder_data_dir_R
      00FF5D97H   CODE     ---       encoder_dir_init
      00FF67E2H   CODE     ---       encoder_get_count
      00FF5F27H   CODE     ---       Encoder_Get_Filtered
      00FF72D7H   CODE     ---       Encoder_Init
*SFR* 000000A8H.4 DATA     BIT       ES
*SFR* 000000A8H.1 DATA     BIT       ET0
*SFR* 000000A8H.3 DATA     BIT       ET1
*SFR* 000000A8H.5 DATA     BIT       ET2
*SFR* 000000A8H.0 DATA     BIT       EX0
*SFR* 000000A8H.2 DATA     BIT       EX1
*SFR* 000000C8H.3 DATA     BIT       EXEN2
*SFR* 000000C8H.6 DATA     BIT       EXF2
L251 LINKER/LOCATER V4.66.93.0                                                        01/25/2026  01:33:53  PAGE 27


      00FF2CB1H   CODE     ---       exp?_
*DEL*:00000000H   CODE     ---       extern_iap_write_buff
*SFR* 000000D0H.5 DATA     BIT       F0
      00FF75B8H   CODE     ---       Fast_InvSqrt
*SFR* 00000098H.7 DATA     BIT       FE
*DEL*:00000000H   CODE     ---       fifo_clear
      00FF6688H   CODE     ---       fifo_init
*DEL*:00000000H   CODE     ---       fifo_read_buffer
*DEL*:00000000H   CODE     ---       fifo_used
      00FF3FE8H   CODE     ---       fifo_write_buffer
*DEL*:00000000H   CODE     ---       func_double_to_str
*DEL*:00000000H   CODE     ---       func_float_to_str
*DEL*:00000000H   CODE     ---       func_get_greatest_common_divisor
*DEL*:00000000H   CODE     ---       func_hex_to_str
*DEL*:00000000H   CODE     ---       func_int_to_str
*DEL*:00000000H   CODE     ---       func_soft_delay
*DEL*:00000000H   CODE     ---       func_str_to_double
*DEL*:00000000H   CODE     ---       func_str_to_float
*DEL*:00000000H   CODE     ---       func_str_to_hex
*DEL*:00000000H   CODE     ---       func_str_to_int
*DEL*:00000000H   CODE     ---       func_str_to_uint
*DEL*:00000000H   CODE     ---       func_uint_to_str
      00FF0019H   CODE     ---       get_control_mode
      00FF730AH   CODE     ---       get_mode_name
*DEL*:00000000H   CODE     ---       get_two_points_azimuth
*DEL*:00000000H   CODE     ---       get_two_points_distance
      00FF59DCH   CODE     ---       gpio_get_level
      00FF6090H   CODE     ---       gpio_init
      00FF5BCDH   CODE     ---       gpio_set_impedance
      00FF4DCDH   CODE     ---       gpio_set_level
*DEL*:00000000H   CODE     ---       gpio_set_level_speed
*DEL*:00000000H   CODE     ---       gpio_toggle_level
*DEL*:00000000H   CODE     ---       gps_data_parse
      000103C6H   XDATA    INT       gps_gga_state
*DEL*:00000000H   CODE     ---       gps_init
      000103C8H   XDATA    INT       gps_rmc_state
      0001029AH   XDATA    ---       gps_tau1201
      00010219H   XDATA    BYTE      gps_tau1201_flag
      000109CEH   XDATA    INT       gps_type
*DEL*:00000000H   CODE     ---       gps_uart_callback
*SFR* 000000F6H   DATA     BYTE      IAP_ADDRE
*SFR* 000000C3H   DATA     BYTE      IAP_ADDRH
*SFR* 000000C4H   DATA     BYTE      IAP_ADDRL
*SFR* 000000C5H   DATA     BYTE      IAP_CMD
*SFR* 000000C7H   DATA     BYTE      IAP_CONTR
*SFR* 000000C2H   DATA     BYTE      IAP_DATA
*DEL*:00000000H   CODE     ---       iap_erase_page
*DEL*:00000000H   CODE     ---       iap_get_cmd_state
*DEL*:00000000H   CODE     ---       iap_idle
*DEL*:00000000H   CODE     ---       iap_init
*DEL*:00000000H   CODE     ---       iap_read_buff
*DEL*:00000000H   CODE     ---       iap_read_byte
*DEL*:00000000H   CODE     ---       iap_set_tps
*SFR* 000000F5H   DATA     BYTE      IAP_TPS
*SFR* 000000C6H   DATA     BYTE      IAP_TRIG
*DEL*:00000000H   CODE     ---       iap_write_buff
*DEL*:00000000H   CODE     ---       iap_write_byte
      00010921H   XDATA    INT       icm20602_acc_x
      00010923H   XDATA    INT       icm20602_acc_y
      00010925H   XDATA    INT       icm20602_acc_z
*DEL*:00000000H   CODE     ---       icm20602_get_acc
*DEL*:00000000H   CODE     ---       icm20602_get_gyro
      00010927H   XDATA    INT       icm20602_gyro_x
      00010929H   XDATA    INT       icm20602_gyro_y
      0001092BH   XDATA    INT       icm20602_gyro_z
L251 LINKER/LOCATER V4.66.93.0                                                        01/25/2026  01:33:53  PAGE 28


*DEL*:00000000H   CODE     ---       icm20602_init
      0001092DH   XDATA    ---       icm20602_transition_factor
*SFR* 000000A8H   DATA     BYTE      IE
*SFR* 000000A8H   DATA     BYTE      IE0
*SFR* 00000088H.1 DATA     BIT       IE0_
*SFR* 000000B1H   DATA     BYTE      IE1
*SFR* 00000088H.3 DATA     BIT       IE1_
*SFR* 000000AFH   DATA     BYTE      IE2
      00FF7459H   CODE     ---       iir_lowpass
      000107F0H   XDATA    ---       imu
      00010935H   XDATA    INT       imu660ra_acc_x
      00010937H   XDATA    INT       imu660ra_acc_y
      00010939H   XDATA    INT       imu660ra_acc_z
      00FF01CEH   CODE     ---       imu660ra_config_file
*DEL*:00000000H   CODE     ---       imu660ra_get_acc
*DEL*:00000000H   CODE     ---       imu660ra_get_gyro
      0001093BH   XDATA    INT       imu660ra_gyro_x
      0001093DH   XDATA    INT       imu660ra_gyro_y
      0001093FH   XDATA    INT       imu660ra_gyro_z
*DEL*:00000000H   CODE     ---       imu660ra_init
      00010941H   XDATA    ---       imu660ra_transition_factor
      00FF7624H   CODE     ---       imu660rb_acc_transition
      0001097BH   XDATA    INT       imu660rb_acc_x
      0001097DH   XDATA    INT       imu660rb_acc_y
      0001097FH   XDATA    INT       imu660rb_acc_z
      00FF6D57H   CODE     ---       imu660rb_get_acc
      00FF6D07H   CODE     ---       imu660rb_get_gyro
      00FF7612H   CODE     ---       imu660rb_gyro_transition
      00010981H   XDATA    INT       imu660rb_gyro_x
      00010983H   XDATA    INT       imu660rb_gyro_y
      00010985H   XDATA    INT       imu660rb_gyro_z
      00FF68B9H   CODE     ---       imu660rb_init
      000108EBH   XDATA    INT       imu963ra_acc_x
      000108EDH   XDATA    INT       imu963ra_acc_y
      000108EFH   XDATA    INT       imu963ra_acc_z
*DEL*:00000000H   CODE     ---       imu963ra_get_acc
*DEL*:00000000H   CODE     ---       imu963ra_get_gyro
*DEL*:00000000H   CODE     ---       imu963ra_get_mag
      000108F7H   XDATA    INT       imu963ra_gyro_x
      000108F9H   XDATA    INT       imu963ra_gyro_y
      000108FBH   XDATA    INT       imu963ra_gyro_z
*DEL*:00000000H   CODE     ---       imu963ra_init
      000108F1H   XDATA    INT       imu963ra_mag_x
      000108F3H   XDATA    INT       imu963ra_mag_y
      000108F5H   XDATA    INT       imu963ra_mag_z
      000108FDH   XDATA    ---       imu963ra_transition_factor
      00FF64A4H   CODE     ---       imu_get_data
      00FF71F6H   CODE     ---       imu_init
      000109AFH   XDATA    BYTE      imu_state
      00FF4C02H   CODE     ---       imu_update
      00FF005EH   CODE     ---       imu_update_task
*SFR* 000000B0H.2 DATA     BIT       INT0
      000108D9H   XDATA    ---       int0_irq_handler
*SFR* 000000B0H.3 DATA     BIT       INT1
      000108DDH   XDATA    ---       int1_irq_handler
      000108E1H   XDATA    ---       int2_irq_handler
      000108E5H   XDATA    ---       int3_irq_handler
      000108E9H   XDATA    ---       int4_irq_handler
*SFR* 0000008FH   DATA     BYTE      INTCLKO
*DEL*:00000000H   CODE     ---       interrupt_global_disable
      00FF001EH   CODE     ---       interrupt_global_enable
*DEL*:00000000H   CODE     ---       interrupt_set_priority
*SFR* 000000B8H   DATA     BYTE      IP
*SFR* 000000B5H   DATA     BYTE      IP2
*SFR* 000000B6H   DATA     BYTE      IP2H
L251 LINKER/LOCATER V4.66.93.0                                                        01/25/2026  01:33:53  PAGE 29


*SFR* 000000DFH   DATA     BYTE      IP3
*SFR* 000000EEH   DATA     BYTE      IP3H
*SFR* 000000B7H   DATA     BYTE      IPH
*SFR* 000000B7H   DATA     BYTE      IPH0
*SFR* 000000B8H   DATA     BYTE      IPL0
      000109BAH   XDATA    WORD      ips114_bgcolor
*DEL*:00000000H   CODE     ---       ips114_clear
      000109BCH   XDATA    INT       ips114_display_dir
*DEL*:00000000H   CODE     ---       ips114_draw_point
*DEL*:00000000H   CODE     ---       ips114_init
      000109B8H   XDATA    WORD      ips114_pencolor
*DEL*:00000000H   CODE     ---       ips114_set_color
*DEL*:00000000H   CODE     ---       ips114_set_dir
*DEL*:00000000H   CODE     ---       ips114_show_char
*DEL*:00000000H   CODE     ---       ips114_show_chinese
*DEL*:00000000H   CODE     ---       ips114_show_float
*DEL*:00000000H   CODE     ---       ips114_show_int16
*DEL*:00000000H   CODE     ---       ips114_show_int32
*DEL*:00000000H   CODE     ---       ips114_show_int8
*DEL*:00000000H   CODE     ---       ips114_show_string
*DEL*:00000000H   CODE     ---       ips114_show_uint16
*DEL*:00000000H   CODE     ---       ips114_show_uint8
*DEL*:00000000H   CODE     ---       ips114_show_wave
      000109BEH   XDATA    BYTE      ips114_x_max
      000109BFH   XDATA    BYTE      ips114_y_max
      00010995H   XDATA    WORD      ips200_bgcolor
*DEL*:00000000H   CODE     ---       ips200_clear
      00010997H   XDATA    INT       ips200_display_dir
*DEL*:00000000H   CODE     ---       ips200_draw_point
*DEL*:00000000H   CODE     ---       ips200_init
      00010993H   XDATA    WORD      ips200_pencolor
*DEL*:00000000H   CODE     ---       ips200_set_color
*DEL*:00000000H   CODE     ---       ips200_set_dir
*DEL*:00000000H   CODE     ---       ips200_show_char
*DEL*:00000000H   CODE     ---       ips200_show_chinese
*DEL*:00000000H   CODE     ---       ips200_show_float
*DEL*:00000000H   CODE     ---       ips200_show_int16
*DEL*:00000000H   CODE     ---       ips200_show_int32
*DEL*:00000000H   CODE     ---       ips200_show_int8
*DEL*:00000000H   CODE     ---       ips200_show_string
*DEL*:00000000H   CODE     ---       ips200_show_uint16
*DEL*:00000000H   CODE     ---       ips200_show_uint8
*DEL*:00000000H   CODE     ---       ips200_show_wave
      00010999H   XDATA    WORD      ips200_x_max
      0001099BH   XDATA    WORD      ips200_y_max
*DEL*:00000000H   CODE     ---       ips200pro_calendar_create
*DEL*:00000000H   CODE     ---       ips200pro_calendar_display
*DEL*:00000000H   CODE     ---       ips200pro_clock_create
*DEL*:00000000H   CODE     ---       ips200pro_container_create
*DEL*:00000000H   CODE     ---       ips200pro_container_radius
*DEL*:00000000H   CODE     ---       ips200pro_create_widgets
*DEL*:00000000H   CODE     ---       ips200pro_delete_widgets
*DEL*:00000000H   CODE     ---       ips200pro_get_date
*DEL*:00000000H   CODE     ---       ips200pro_get_free_stack_size
*DEL*:00000000H   CODE     ---       ips200pro_get_information
*DEL*:00000000H   CODE     ---       ips200pro_get_time
*DEL*:00000000H   CODE     ---       ips200pro_image_create
*DEL*:00000000H   CODE     ---       ips200pro_image_display
*DEL*:00000000H   CODE     ---       ips200pro_image_draw_line
*DEL*:00000000H   CODE     ---       ips200pro_image_draw_rectangle
      00010857H   XDATA    ---       ips200pro_information
*DEL*:00000000H   CODE     ---       ips200pro_init
*DEL*:00000000H   CODE     ---       ips200pro_label_create
*DEL*:00000000H   CODE     ---       ips200pro_label_mode
*DEL*:00000000H   CODE     ---       ips200pro_label_printf
L251 LINKER/LOCATER V4.66.93.0                                                        01/25/2026  01:33:53  PAGE 30


*DEL*:00000000H   CODE     ---       ips200pro_label_show_string
*DEL*:00000000H   CODE     ---       ips200pro_meter_create
*DEL*:00000000H   CODE     ---       ips200pro_meter_set_value
*DEL*:00000000H   CODE     ---       ips200pro_page_create
*DEL*:00000000H   CODE     ---       ips200pro_page_hidden
*DEL*:00000000H   CODE     ---       ips200pro_page_set_title_name
*DEL*:00000000H   CODE     ---       ips200pro_page_set_title_position_width
*DEL*:00000000H   CODE     ---       ips200pro_page_switch
*DEL*:00000000H   CODE     ---       ips200pro_progress_bar_create
*DEL*:00000000H   CODE     ---       ips200pro_progress_bar_set_value
*DEL*:00000000H   CODE     ---       ips200pro_read_parameter
*DEL*:00000000H   CODE     ---       ips200pro_receive_buffer
*DEL*:00000000H   CODE     ---       ips200pro_send_buffer
*DEL*:00000000H   CODE     ---       ips200pro_set_backlight
*DEL*:00000000H   CODE     ---       ips200pro_set_color
*DEL*:00000000H   CODE     ---       ips200pro_set_crc_state
*DEL*:00000000H   CODE     ---       ips200pro_set_date
*DEL*:00000000H   CODE     ---       ips200pro_set_default_font
*DEL*:00000000H   CODE     ---       ips200pro_set_direction
*DEL*:00000000H   CODE     ---       ips200pro_set_font
*DEL*:00000000H   CODE     ---       ips200pro_set_format
*DEL*:00000000H   CODE     ---       ips200pro_set_hidden
*DEL*:00000000H   CODE     ---       ips200pro_set_optimize
*DEL*:00000000H   CODE     ---       ips200pro_set_parent
*DEL*:00000000H   CODE     ---       ips200pro_set_position
*DEL*:00000000H   CODE     ---       ips200pro_set_time
*DEL*:00000000H   CODE     ---       ips200pro_table_cell_printf
*DEL*:00000000H   CODE     ---       ips200pro_table_create
*DEL*:00000000H   CODE     ---       ips200pro_table_select
*DEL*:00000000H   CODE     ---       ips200pro_table_set_col_width
      00010860H   XDATA    ---       ips200pro_time
*DEL*:00000000H   CODE     ---       ips200pro_waveform_add_value
*DEL*:00000000H   CODE     ---       ips200pro_waveform_clear
*DEL*:00000000H   CODE     ---       ips200pro_waveform_create
*DEL*:00000000H   CODE     ---       ips200pro_waveform_line_state
*DEL*:00000000H   CODE     ---       ips200pro_waveform_line_type
*DEL*:00000000H   CODE     ---       ips200pro_write_packet
*SFR* 0000009DH   DATA     BYTE      IRCBAND
*SFR* 0000009FH   DATA     BYTE      IRTRIM
*SFR* 00000088H.0 DATA     BIT       IT0
*SFR* 00000088H.2 DATA     BIT       IT1
*DEL*:00000000H   CODE     ---       Key_Disp
      000109E3H   XDATA    BYTE      key_down
      00FF7180H   CODE     ---       key_init
      000109E4H   XDATA    BYTE      key_old
*DEL*:00000000H   CODE     ---       Key_Read
      000109E2H   XDATA    BYTE      key_up
      000109E5H   XDATA    BYTE      key_val
      000109ABH   XDATA    FLOAT     left_target
      00FF71BCH   CODE     ---       limit
*SFR* 000000F9H   DATA     BYTE      LINICR
      00FF2D40H   CODE     NEAR LAB  log?_
      00FF6B61H   CODE     ---       Mahony_GetEuler
      00FF6E3CH   CODE     ---       Mahony_Init
      00FF3661H   CODE     ---       Mahony_Update
      00FF7573H   CODE     ---       MAIN
      000108AFH   XDATA    ---       max_min_adc
      00FF754EH   CODE     ---       memcpy?_
*DEL*:00000000H   CODE     ---       memset?_
      00FF6B08H   CODE     ---       motor_control_task
*DEL*:00000000H   CODE     ---       Motor_FanSet
      00FF66FDH   CODE     ---       Motor_Init
      00FF7527H   CODE     ---       Motor_LeftBackward
      00FF74D8H   CODE     ---       Motor_LeftForward
      00FF5CB2H   CODE     ---       motor_pid_control
L251 LINKER/LOCATER V4.66.93.0                                                        01/25/2026  01:33:53  PAGE 31


      00FF7500H   CODE     ---       Motor_RightBackward
      00FF74B0H   CODE     ---       Motor_RightForward
*DEL*:00000000H   CODE     ---       Motor_Test
      00FF00A6H   CODE     ---       my_asin
      00FF5AD5H   CODE     ---       my_atan2
      00FF6F0EH   CODE     ---       my_sqrt
      00FF613CH   CODE     ---       Normalization
*SFR* 000000D0H.2 DATA     BIT       OV
*SFR* 000000D0H.0 DATA     BIT       P
*SFR* 00000080H   DATA     BYTE      P0
*SFR* 00000094H   DATA     BYTE      P0M0
*SFR* 00000093H   DATA     BYTE      P0M1
*SFR* 00000090H   DATA     BYTE      P1
*SFR* 00000092H   DATA     BYTE      P1M0
*SFR* 00000091H   DATA     BYTE      P1M1
*SFR* 000000A0H   DATA     BYTE      P2
*SFR* 000000A0H.0 DATA     BIT       P20
*SFR* 000000A0H.1 DATA     BIT       P21
*SFR* 000000A0H.2 DATA     BIT       P22
*SFR* 00000096H   DATA     BYTE      P2M0
*SFR* 00000095H   DATA     BYTE      P2M1
*SFR* 000000B0H   DATA     BYTE      P3
*SFR* 000000B2H   DATA     BYTE      P3M0
*SFR* 000000B1H   DATA     BYTE      P3M1
*SFR* 000000C0H   DATA     BYTE      P4
*SFR* 000000C0H.0 DATA     BIT       P40
*SFR* 000000C0H.1 DATA     BIT       P41
*SFR* 000000C0H.2 DATA     BIT       P42
*SFR* 000000C0H.3 DATA     BIT       P43
*SFR* 000000B4H   DATA     BYTE      P4M0
*SFR* 000000B3H   DATA     BYTE      P4M1
*SFR* 000000C8H   DATA     BYTE      P5
*SFR* 000000CAH   DATA     BYTE      P5M0
*SFR* 000000C9H   DATA     BYTE      P5M1
*SFR* 000000E8H   DATA     BYTE      P6
*SFR* 000000CCH   DATA     BYTE      P6M0
*SFR* 000000CBH   DATA     BYTE      P6M1
*SFR* 000000F8H   DATA     BYTE      P7
*SFR* 000000E2H   DATA     BYTE      P7M0
*SFR* 000000E1H   DATA     BYTE      P7M1
*SFR* 000000A2H   DATA     BYTE      P_SW1
*SFR* 000000BAH   DATA     BYTE      P_SW2
*SFR* 000000BBH   DATA     BYTE      P_SW3
*SFR* 00000087H   DATA     BYTE      PCON
      00010507H   XDATA    ---       pd_angle
*DEL*:00000000H   CODE     ---       pd_angle_loop
*DEL*:00000000H   CODE     ---       pd_clear_history
      00FF72A1H   CODE     ---       pd_control_with_sensor_check
      000105E7H   XDATA    ---       pd_direction
      00FF56C9H   CODE     ---       pd_direction_gyro_loop
*DEL*:00000000H   CODE     ---       pd_direction_loop
      000105D7H   XDATA    ---       pd_gyro
*DEL*:00000000H   CODE     ---       pd_gyro_loop
      00FF6F52H   CODE     ---       pd_init
      00FF5366H   CODE     ---       pid_calc_increment
      00FF522BH   CODE     ---       pid_calc_position
*DEL*:00000000H   CODE     ---       pid_clear
      00FF61E6H   CODE     ---       pid_init
      00010597H   XDATA    ---       pid_motor_left
      00010557H   XDATA    ---       pid_motor_right
      00FF008EH   CODE     ---       pid_only_control
      00010517H   XDATA    ---       pid_SDSD
*DEL*:00000000H   CODE     ---       pid_set_param
      00FF7663H   CODE     ---       pid_set_target
      00FF0096H   CODE     ---       pit_handler_1
L251 LINKER/LOCATER V4.66.93.0                                                        01/25/2026  01:33:53  PAGE 32


      00FF009EH   CODE     ---       pit_handler_2
      00FF50D0H   CODE     ---       pit_init
      00FF75FFH   CODE     ---       position_error_calc
*DEL*:00000000H   CODE     ---       pow?_
*SFR* 000000B8H.6 DATA     BIT       PPC
      00FF247BH   CODE     NEAR LAB  printf
*SFR* 000000B8H.4 DATA     BIT       PS
*SFR* 000000D0H   DATA     BYTE      PSW
*SFR* 000000D1H   DATA     BYTE      PSW1
*SFR* 000000B8H.1 DATA     BIT       PT0
*SFR* 000000B8H.3 DATA     BIT       PT1
*SFR* 000000B8H.5 DATA     BIT       PT2
      00FF7655H   CODE     ---       putchar
      00FF81C3H   HCONST   ---       PWM_ARR_ADDR
      00FF81CBH   HCONST   ---       PWM_CCER_ADDR
      00FF81DBH   HCONST   ---       PWM_CCMR_ADDR
      00FF81A3H   HCONST   ---       PWM_CCR_ADDR
      00FF3C17H   CODE     ---       pwm_init
      00FF819BH   HCONST   ---       PWM_PSCR_ADDR
      00FF55B0H   CODE     ---       pwm_set_duty
*DEL*:00000000H   CODE     ---       pwm_set_freq
*SFR* 000000B8H.0 DATA     BIT       PX0
*SFR* 000000B8H.2 DATA     BIT       PX1
      00FF4A29H   CODE     ---       Quaternion_ToEuler
*SFR* 00000098H.2 DATA     BIT       RB8
*SFR* 000000CBH   DATA     BYTE      RCAP2H
*SFR* 000000CAH   DATA     BYTE      RCAP2L
*SFR* 000000C8H.5 DATA     BIT       RCLK
*SFR* 000000B0H.7 DATA     BIT       RD
*SFR* 00000098H.4 DATA     BIT       REN
      00010915H   XDATA    FLOAT     res
*SFR* 00000098H.0 DATA     BIT       RI
      000109A7H   XDATA    FLOAT     right_target
*SFR* 000000D0H.3 DATA     BIT       RS0
*SFR* 000000D0H.4 DATA     BIT       RS1
*SFR* 000000FFH   DATA     BYTE      RSTCFG
*SFR* 000000B0H.0 DATA     BIT       RXD
*SFR* 0000009BH   DATA     BYTE      S2BUF
*SFR* 0000009AH   DATA     BYTE      S2CON
*SFR* 0000009AH.1 DATA     BIT       S2TI
*SFR* 000000ACH   DATA     BYTE      S3CON
*SFR* 000000FDH   DATA     BYTE      S4CON
*SFR* 000000A9H   DATA     BYTE      SADDR
*SFR* 000000B9H   DATA     BYTE      SADEN
*SFR* 00000099H   DATA     BYTE      SBUF
*SFR* 00000098H   DATA     BYTE      SCON
      00010909H   XDATA    ---       SDSD
      00FF57D5H   CODE     ---       SDSD_calculate
      00FF73CEH   CODE     ---       sdsd_control_with_sensor_check
      00FF73FEH   CODE     ---       SDSD_init
*DEL*:00000000H   CODE     ---       seekfree_assistant_camera_boundary_config
*DEL*:00000000H   CODE     ---       seekfree_assistant_camera_data_send
*DEL*:00000000H   CODE     ---       seekfree_assistant_camera_dot_send
*DEL*:00000000H   CODE     ---       seekfree_assistant_camera_information_config
*DEL*:00000000H   CODE     ---       seekfree_assistant_camera_send
*DEL*:00000000H   CODE     ---       seekfree_assistant_data_analysis
*DEL*:00000000H   CODE     ---       seekfree_assistant_init
*DEL*:00000000H   CODE     ---       seekfree_assistant_interface_init
      000103D2H   XDATA    ---       seekfree_assistant_oscilloscope_data
*DEL*:00000000H   CODE     ---       seekfree_assistant_oscilloscope_send
      00010415H   XDATA    ---       seekfree_assistant_parameter
      0001040DH   XDATA    ---       seekfree_assistant_parameter_update_flag
      000109DEH   XDATA    ---       seekfree_assistant_receive_callback
      000109E0H   XDATA    ---       seekfree_assistant_transfer_callback
      00FF6DA7H   CODE     ---       sensor_check_valid
L251 LINKER/LOCATER V4.66.93.0                                                        01/25/2026  01:33:53  PAGE 33


*DEL*:00000000H   CODE     ---       set_gps_type
      00FF58DBH   CODE     ---       set_sys_clk
*DEL*:00000000H   CODE     ---       set_tof_type
*DEL*:00000000H   CODE     ---       set_wireless_type
      00FF25BCH   CODE     ---       sin?_
*SFR* 00000098H.7 DATA     BIT       SM0
*SFR* 00000098H.6 DATA     BIT       SM1
*SFR* 00000098H.5 DATA     BIT       SM2
      00FF7269H   CODE     ---       soft_iic_delay
*DEL*:00000000H   CODE     ---       soft_iic_init
*DEL*:00000000H   CODE     ---       soft_iic_read_16bit
*DEL*:00000000H   CODE     ---       soft_iic_read_16bit_array
*DEL*:00000000H   CODE     ---       soft_iic_read_16bit_register
*DEL*:00000000H   CODE     ---       soft_iic_read_16bit_registers
*DEL*:00000000H   CODE     ---       soft_iic_read_8bit
*DEL*:00000000H   CODE     ---       soft_iic_read_8bit_array
*DEL*:00000000H   CODE     ---       soft_iic_read_8bit_register
*DEL*:00000000H   CODE     ---       soft_iic_read_8bit_registers
      00FF5FDCH   CODE     ---       soft_iic_read_data
*DEL*:00000000H   CODE     ---       soft_iic_sccb_read_register
*DEL*:00000000H   CODE     ---       soft_iic_sccb_write_register
      00FF6772H   CODE     ---       soft_iic_send_ack
      00FF6321H   CODE     ---       soft_iic_send_data
      00FF6BB9H   CODE     ---       soft_iic_start
      00FF698BH   CODE     ---       soft_iic_stop
*DEL*:00000000H   CODE     ---       soft_iic_transfer_16bit_array
*DEL*:00000000H   CODE     ---       soft_iic_transfer_8bit_array
      00FF642BH   CODE     ---       soft_iic_wait_ack
*DEL*:00000000H   CODE     ---       soft_iic_write_16bit
*DEL*:00000000H   CODE     ---       soft_iic_write_16bit_array
*DEL*:00000000H   CODE     ---       soft_iic_write_16bit_register
*DEL*:00000000H   CODE     ---       soft_iic_write_16bit_registers
*DEL*:00000000H   CODE     ---       soft_iic_write_8bit
*DEL*:00000000H   CODE     ---       soft_iic_write_8bit_array
*DEL*:00000000H   CODE     ---       soft_iic_write_8bit_register
*DEL*:00000000H   CODE     ---       soft_iic_write_8bit_registers
*DEL*:00000000H   CODE     ---       soft_spi_delay
*DEL*:00000000H   CODE     ---       soft_spi_init
*DEL*:00000000H   CODE     ---       soft_spi_read_16bit
*DEL*:00000000H   CODE     ---       soft_spi_read_16bit_array
*DEL*:00000000H   CODE     ---       soft_spi_read_16bit_register
*DEL*:00000000H   CODE     ---       soft_spi_read_16bit_registers
*DEL*:00000000H   CODE     ---       soft_spi_read_8bit
*DEL*:00000000H   CODE     ---       soft_spi_read_8bit_array
*DEL*:00000000H   CODE     ---       soft_spi_read_8bit_register
*DEL*:00000000H   CODE     ---       soft_spi_read_8bit_registers
*DEL*:00000000H   CODE     ---       soft_spi_transfer_16bit
*DEL*:00000000H   CODE     ---       soft_spi_transfer_8bit
*DEL*:00000000H   CODE     ---       soft_spi_write_16bit
*DEL*:00000000H   CODE     ---       soft_spi_write_16bit_array
*DEL*:00000000H   CODE     ---       soft_spi_write_16bit_register
*DEL*:00000000H   CODE     ---       soft_spi_write_16bit_registers
*DEL*:00000000H   CODE     ---       soft_spi_write_8bit
*DEL*:00000000H   CODE     ---       soft_spi_write_8bit_array
*DEL*:00000000H   CODE     ---       soft_spi_write_8bit_register
*DEL*:00000000H   CODE     ---       soft_spi_write_8bit_registers
*DEL*:00000000H   CODE     ---       sort_seven
*SFR* 00000081H   DATA     BYTE      SP
*SFR* 000000CEH   DATA     BYTE      SPCTL
*SFR* 000000CFH   DATA     BYTE      SPDAT
*SFR* 000000BEH   DATA     BYTE      SPH
*DEL*:00000000H   CODE     ---       spi_init
*DEL*:00000000H   CODE     ---       spi_read_16bit
*DEL*:00000000H   CODE     ---       spi_read_16bit_array
*DEL*:00000000H   CODE     ---       spi_read_16bit_register
L251 LINKER/LOCATER V4.66.93.0                                                        01/25/2026  01:33:53  PAGE 34


*DEL*:00000000H   CODE     ---       spi_read_16bit_registers
*DEL*:00000000H   CODE     ---       spi_read_8bit
*DEL*:00000000H   CODE     ---       spi_read_8bit_array
*DEL*:00000000H   CODE     ---       spi_read_8bit_register
*DEL*:00000000H   CODE     ---       spi_read_8bit_registers
*DEL*:00000000H   CODE     ---       spi_read_dat
*DEL*:00000000H   CODE     ---       spi_transfer_16bit
*DEL*:00000000H   CODE     ---       spi_transfer_8bit
*DEL*:00000000H   CODE     ---       spi_write_16bit
*DEL*:00000000H   CODE     ---       spi_write_16bit_array
*DEL*:00000000H   CODE     ---       spi_write_16bit_register
*DEL*:00000000H   CODE     ---       spi_write_16bit_registers
*DEL*:00000000H   CODE     ---       spi_write_8bit
*DEL*:00000000H   CODE     ---       spi_write_8bit_array
*DEL*:00000000H   CODE     ---       spi_write_8bit_register
*DEL*:00000000H   CODE     ---       spi_write_8bit_registers
*DEL*:00000000H   CODE     ---       spi_write_dat
      00FF24A7H   CODE     NEAR LAB  sprintf
*SFR* 000000CDH   DATA     BYTE      SPSTAT
      00FF24C7H   CODE     ---       sqrt?_
*DEL*:00000000H   CODE     ---       strchr?_
*DEL*:00000000H   CODE     ---       strlen?_
*DEL*:00000000H   CODE     ---       strncmp?_
*DEL*:00000000H   CODE     ---       strncpy?_
      00010919H   XDATA    LONG      sub
      0001091DH   XDATA    LONG      sum
      000109D6H   XDATA    LONG      system_clock
      00FF6ECAH   CODE     ---       system_delay_init
      00FF0046H   CODE     ---       system_delay_ms
*DEL*:00000000H   CODE     ---       system_delay_us
*SFR* 000000B0H.4 DATA     BIT       T0
*SFR* 000000B0H.5 DATA     BIT       T1
*SFR* 00000090H.0 DATA     BIT       T2
*SFR* 000000C8H   DATA     BYTE      T2CON
*SFR* 00000090H.1 DATA     BIT       T2EX
*SFR* 000000D6H   DATA     BYTE      T2H
*SFR* 000000D7H   DATA     BYTE      T2L
*SFR* 000000C9H   DATA     BYTE      T2MOD
*SFR* 000000D4H   DATA     BYTE      T3H
*SFR* 000000D5H   DATA     BYTE      T3L
*SFR* 000000D2H   DATA     BYTE      T4H
*SFR* 000000D3H   DATA     BYTE      T4L
*SFR* 000000DDH   DATA     BYTE      T4T3M
      00FF25E9H   CODE     ---       TAN?_
*SFR* 00000098H.3 DATA     BIT       TB8
*SFR* 000000C8H.4 DATA     BIT       TCLK
*SFR* 00000088H   DATA     BYTE      TCON
*SFR* 00000088H.5 DATA     BIT       TF0
*SFR* 00000088H.7 DATA     BIT       TF1
*SFR* 000000C8H.7 DATA     BIT       TF2
      000109C2H   XDATA    WORD      tft180_bgcolor
*DEL*:00000000H   CODE     ---       tft180_clear
      000109C4H   XDATA    INT       tft180_display_dir
*DEL*:00000000H   CODE     ---       tft180_draw_point
*DEL*:00000000H   CODE     ---       tft180_init
      000109C0H   XDATA    WORD      tft180_pencolor
*DEL*:00000000H   CODE     ---       tft180_set_color
*DEL*:00000000H   CODE     ---       tft180_set_dir
*DEL*:00000000H   CODE     ---       tft180_show_char
*DEL*:00000000H   CODE     ---       tft180_show_float
*DEL*:00000000H   CODE     ---       tft180_show_int16
*DEL*:00000000H   CODE     ---       tft180_show_int32
*DEL*:00000000H   CODE     ---       tft180_show_int8
*DEL*:00000000H   CODE     ---       tft180_show_string
*DEL*:00000000H   CODE     ---       tft180_show_uint16
L251 LINKER/LOCATER V4.66.93.0                                                        01/25/2026  01:33:53  PAGE 35


*DEL*:00000000H   CODE     ---       tft180_show_uint8
*DEL*:00000000H   CODE     ---       tft180_show_wave
      000109C6H   XDATA    BYTE      tft180_x_max
      000109C7H   XDATA    BYTE      tft180_y_max
*SFR* 0000008CH   DATA     BYTE      TH0
*SFR* 0000008DH   DATA     BYTE      TH1
*SFR* 000000CDH   DATA     BYTE      TH2
*SFR* 00000098H.1 DATA     BIT       TI
      000108D7H   XDATA    ---       tim0_irq_handler
      000108CDH   XDATA    ---       tim11_irq_handler
      000108DBH   XDATA    ---       tim1_irq_handler
      000108DFH   XDATA    ---       tim2_irq_handler
      000108E3H   XDATA    ---       tim3_irq_handler
      000108E7H   XDATA    ---       tim4_irq_handler
      00FF733CH   CODE     ---       timer_funciton_check
*SFR* 0000008AH   DATA     BYTE      TL0
*SFR* 0000008BH   DATA     BYTE      TL1
*SFR* 000000CCH   DATA     BYTE      TL2
      00FF6FD1H   CODE     ---       TM0_IRQHandler
      00FF700FH   CODE     ---       TM1_IRQHandler
      00FF704DH   CODE     ---       TM2_IRQHandler
      00FF708BH   CODE     ---       TM3_IRQHandler
      00FF70C9H   CODE     ---       TM4_IRQHandler
*SFR* 00000089H   DATA     BYTE      TMOD
      000109C8H   XDATA    ---       tof_module_exti_handler
      000109CCH   XDATA    INT       tof_type
*SFR* 00000088H.4 DATA     BIT       TR0
*SFR* 00000088H.6 DATA     BIT       TR1
*SFR* 000000C8H.2 DATA     BIT       TR2
*DEL*:00000000H   CODE     ---       tsl1401_collect_pit_handler
      00010001H   XDATA    ---       tsl1401_data
      00010000H   XDATA    BYTE      tsl1401_finish_flag
*DEL*:00000000H   CODE     ---       tsl1401_init
*DEL*:00000000H   CODE     ---       tsl1401_send_data
*SFR* 000000B0H.1 DATA     BIT       TXD
      000108CFH   XDATA    ---       uart1_irq_handler
      000108D1H   XDATA    ---       uart2_irq_handler
      000108D3H   XDATA    ---       uart3_irq_handler
      000108D5H   XDATA    ---       uart4_irq_handler
*DEL*:00000000H   CODE     ---       Uart_Disp
      00FF5E70H   CODE     ---       uart_dma_init
      00FF736DH   CODE     ---       uart_funciton_check
      00FF4833H   CODE     ---       uart_init
      00FF6DF3H   CODE     ---       uart_query_byte
*DEL*:00000000H   CODE     ---       uart_read_byte
      00010977H   XDATA    ---       uart_rx_buff
      00FF7144H   CODE     ---       uart_rx_interrupt
      00FF6A4EH   CODE     ---       uart_rx_start_buff
      00FF5494H   CODE     ---       uart_write_buffer
      00FF75ECH   CODE     ---       uart_write_byte
*DEL*:00000000H   CODE     ---       uart_write_string
*SFR* 000000F4H   DATA     BYTE      USBCON
*SFR* 000000A6H   DATA     BYTE      VRTRIM
*DEL*:00000000H   CODE     ---       vsnprintf
*SFR* 000000C1H   DATA     BYTE      WDT_CONTR
*SFR* 000000A6H   DATA     BYTE      WDTRST
      000109CAH   XDATA    INT       wireless_type
*DEL*:00000000H   CODE     ---       wireless_uart_callback
*DEL*:00000000H   CODE     ---       wireless_uart_init
*DEL*:00000000H   CODE     ---       wireless_uart_read_buffer
*DEL*:00000000H   CODE     ---       wireless_uart_send_buffer
*DEL*:00000000H   CODE     ---       wireless_uart_send_byte
*DEL*:00000000H   CODE     ---       wireless_uart_send_string
*SFR* 000000B0H.6 DATA     BIT       WR
*SFR* 000000E9H   DATA     BYTE      WTST
L251 LINKER/LOCATER V4.66.93.0                                                        01/25/2026  01:33:53  PAGE 36


*DEL*:00000000H   CODE     ---       zf_sprintf



SYMBOL TABLE OF MODULE:  .\out_file\SEEKFREE (?C_START)

      VALUE       REP       CLASS    TYPE      SYMBOL NAME
      ====================================================
      ---         MODULE    ---      ---       ?C_START
      00FF0000H   PUBLIC    CODE     ---       ?C?STARTUP
      00FF0000H   PUBLIC    CODE     ---       ?C_STARTUP
      000000D0H.6 SFRSYM    DATA     BIT       AC
      000000E0H   SFRSYM    DATA     BYTE      ACC
      000000F0H   SFRSYM    DATA     BYTE      B
      000000FAH   SFRSYM    DATA     BYTE      CCAP0H
      000000EAH   SFRSYM    DATA     BYTE      CCAP0L
      000000FBH   SFRSYM    DATA     BYTE      CCAP1H
      000000EBH   SFRSYM    DATA     BYTE      CCAP1L
      000000FCH   SFRSYM    DATA     BYTE      CCAP2H
      000000ECH   SFRSYM    DATA     BYTE      CCAP2L
      000000FDH   SFRSYM    DATA     BYTE      CCAP3H
      000000EDH   SFRSYM    DATA     BYTE      CCAP3L
      000000FEH   SFRSYM    DATA     BYTE      CCAP4H
      000000EEH   SFRSYM    DATA     BYTE      CCAP4L
      000000DAH   SFRSYM    DATA     BYTE      CCAPM0
      000000DBH   SFRSYM    DATA     BYTE      CCAPM1
      000000DCH   SFRSYM    DATA     BYTE      CCAPM2
      000000DDH   SFRSYM    DATA     BYTE      CCAPM3
      000000DEH   SFRSYM    DATA     BYTE      CCAPM4
      000000D8H.0 SFRSYM    DATA     BIT       CCF0
      000000D8H.1 SFRSYM    DATA     BIT       CCF1
      000000D8H.2 SFRSYM    DATA     BIT       CCF2
      000000D8H.3 SFRSYM    DATA     BIT       CCF3
      000000D8H.4 SFRSYM    DATA     BIT       CCF4
      000000D8H   SFRSYM    DATA     BYTE      CCON
      00000090H.3 SFRSYM    DATA     BIT       CEX0
      00000090H.4 SFRSYM    DATA     BIT       CEX1
      00000090H.5 SFRSYM    DATA     BIT       CEX2
      00000090H.6 SFRSYM    DATA     BIT       CEX3
      00000090H.7 SFRSYM    DATA     BIT       CEX4
      000000D8H.7 SFRSYM    DATA     BIT       CF
      000000F9H   SFRSYM    DATA     BYTE      CH
      000000E9H   SFRSYM    DATA     BYTE      CL
      000000D9H   SFRSYM    DATA     BYTE      CMOD
      000000C8H.0 SFRSYM    DATA     BIT       CP_RL2
      000000D8H.6 SFRSYM    DATA     BIT       CR
      000000D0H.7 SFRSYM    DATA     BIT       CY
      000000C8H.1 SFRSYM    DATA     BIT       C_T2
      00000083H   SFRSYM    DATA     BYTE      DPH
      00000082H   SFRSYM    DATA     BYTE      DPL
      00000084H   SFRSYM    DATA     BYTE      DPXL
      000000A8H.7 SFRSYM    DATA     BIT       EA
      000000A8H.6 SFRSYM    DATA     BIT       EC
      00000090H.2 SFRSYM    DATA     BIT       ECI
      000000A8H.4 SFRSYM    DATA     BIT       ES
      000000A8H.1 SFRSYM    DATA     BIT       ET0
      000000A8H.3 SFRSYM    DATA     BIT       ET1
      000000A8H.5 SFRSYM    DATA     BIT       ET2
      000000A8H.0 SFRSYM    DATA     BIT       EX0
      000000A8H.2 SFRSYM    DATA     BIT       EX1
      000000C8H.3 SFRSYM    DATA     BIT       EXEN2
      000000C8H.6 SFRSYM    DATA     BIT       EXF2
      000000D0H.5 SFRSYM    DATA     BIT       F0
      00000098H.7 SFRSYM    DATA     BIT       FE
      000000A8H   SFRSYM    DATA     BYTE      IE0
L251 LINKER/LOCATER V4.66.93.0                                                        01/25/2026  01:33:53  PAGE 37


      00000088H.1 SFRSYM    DATA     BIT       IE0_
      000000B1H   SFRSYM    DATA     BYTE      IE1
      00000088H.3 SFRSYM    DATA     BIT       IE1_
      000000B0H.2 SFRSYM    DATA     BIT       INT0
      000000B0H.3 SFRSYM    DATA     BIT       INT1
      000000B7H   SFRSYM    DATA     BYTE      IPH0
      000000B8H   SFRSYM    DATA     BYTE      IPL0
      00000088H.0 SFRSYM    DATA     BIT       IT0
      00000088H.2 SFRSYM    DATA     BIT       IT1
      000000D0H.2 SFRSYM    DATA     BIT       OV
      000000D0H.0 SFRSYM    DATA     BIT       P
      00000080H   SFRSYM    DATA     BYTE      P0
      00000090H   SFRSYM    DATA     BYTE      P1
      000000A0H   SFRSYM    DATA     BYTE      P2
      000000B0H   SFRSYM    DATA     BYTE      P3
      00000087H   SFRSYM    DATA     BYTE      PCON
      000000B8H.6 SFRSYM    DATA     BIT       PPC
      000000B8H.4 SFRSYM    DATA     BIT       PS
      000000D0H   SFRSYM    DATA     BYTE      PSW
      000000D1H   SFRSYM    DATA     BYTE      PSW1
      000000B8H.1 SFRSYM    DATA     BIT       PT0
      000000B8H.3 SFRSYM    DATA     BIT       PT1
      000000B8H.5 SFRSYM    DATA     BIT       PT2
      000000B8H.0 SFRSYM    DATA     BIT       PX0
      000000B8H.2 SFRSYM    DATA     BIT       PX1
      00000098H.2 SFRSYM    DATA     BIT       RB8
      000000CBH   SFRSYM    DATA     BYTE      RCAP2H
      000000CAH   SFRSYM    DATA     BYTE      RCAP2L
      000000C8H.5 SFRSYM    DATA     BIT       RCLK
      000000B0H.7 SFRSYM    DATA     BIT       RD
      00000098H.4 SFRSYM    DATA     BIT       REN
      00000098H.0 SFRSYM    DATA     BIT       RI
      000000D0H.3 SFRSYM    DATA     BIT       RS0
      000000D0H.4 SFRSYM    DATA     BIT       RS1
      000000B0H.0 SFRSYM    DATA     BIT       RXD
      000000A9H   SFRSYM    DATA     BYTE      SADDR
      000000B9H   SFRSYM    DATA     BYTE      SADEN
      00000099H   SFRSYM    DATA     BYTE      SBUF
      00000098H   SFRSYM    DATA     BYTE      SCON
      00000098H.7 SFRSYM    DATA     BIT       SM0
      00000098H.6 SFRSYM    DATA     BIT       SM1
      00000098H.5 SFRSYM    DATA     BIT       SM2
      00000081H   SFRSYM    DATA     BYTE      SP
      000000BEH   SFRSYM    DATA     BYTE      SPH
      000000B0H.4 SFRSYM    DATA     BIT       T0
      000000B0H.5 SFRSYM    DATA     BIT       T1
      00000090H.0 SFRSYM    DATA     BIT       T2
      000000C8H   SFRSYM    DATA     BYTE      T2CON
      00000090H.1 SFRSYM    DATA     BIT       T2EX
      000000C9H   SFRSYM    DATA     BYTE      T2MOD
      00000098H.3 SFRSYM    DATA     BIT       TB8
      000000C8H.4 SFRSYM    DATA     BIT       TCLK
      00000088H   SFRSYM    DATA     BYTE      TCON
      00000088H.5 SFRSYM    DATA     BIT       TF0
      00000088H.7 SFRSYM    DATA     BIT       TF1
      000000C8H.7 SFRSYM    DATA     BIT       TF2
      0000008CH   SFRSYM    DATA     BYTE      TH0
      0000008DH   SFRSYM    DATA     BYTE      TH1
      000000CDH   SFRSYM    DATA     BYTE      TH2
      00000098H.1 SFRSYM    DATA     BIT       TI
      0000008AH   SFRSYM    DATA     BYTE      TL0
      0000008BH   SFRSYM    DATA     BYTE      TL1
      000000CCH   SFRSYM    DATA     BYTE      TL2
      00000089H   SFRSYM    DATA     BYTE      TMOD
      00000088H.4 SFRSYM    DATA     BIT       TR0
L251 LINKER/LOCATER V4.66.93.0                                                        01/25/2026  01:33:53  PAGE 38


      00000088H.6 SFRSYM    DATA     BIT       TR1
      000000C8H.2 SFRSYM    DATA     BIT       TR2
      000000B0H.1 SFRSYM    DATA     BIT       TXD
      000000A6H   SFRSYM    DATA     BYTE      WDTRST
      000000B0H.6 SFRSYM    DATA     BIT       WR
      00000800H   SYMBOL    NUMBER   ---       EDATALEN
      00FF6C18H   SYMBOL    CODE     ---       EDATALOOP
      00000001H   SYMBOL    NUMBER   ---       EDF
      00000001H   SYMBOL    NUMBER   ---       EMAP
      00000000H   SYMBOL    NUMBER   ---       HDATALEN
      00010000H   SYMBOL    NUMBER   ---       HDATASTART
      00000000H   SYMBOL    NUMBER   ---       IBPSTACK
      00000100H   SYMBOL    NUMBER   ---       IBPSTACKTOP
      00000001H   SYMBOL    NUMBER   ---       INTR
      00000001H   SYMBOL    NUMBER   ---       PAGM
      00000003H   SYMBOL    NUMBER   ---       RDRG
      00000001H   SYMBOL    NUMBER   ---       SRCM
      00000800H   SYMBOL    NUMBER   ---       STACKSIZE
      00FF6C10H   SYMBOL    CODE     ---       STARTUP1
      00000003H   SYMBOL    NUMBER   ---       WSA
      00000003H   SYMBOL    NUMBER   ---       WSB
      00000001H   SYMBOL    NUMBER   ---       XALE
      00000000H   SYMBOL    NUMBER   ---       XBPSTACK
      00010000H   SYMBOL    NUMBER   ---       XBPSTACKTOP
      00008000H   SYMBOL    NUMBER   ---       XDATALEN
      00FF6C27H   SYMBOL    CODE     ---       XDATALOOP
      00010000H   SYMBOL    NUMBER   ---       XDATASTART

      00FF0000H   BLOCK     CODE     NEAR LAB  LVL=0
      00FF0000H   LINE      CODE     ---       #183
      ---         BLOCKEND  ---      ---       LVL=0

      00FF6C10H   BLOCK     CODE     NEAR LAB  LVL=0
      00FF6C10H   LINE      CODE     ---       #188
      00FF6C13H   LINE      CODE     ---       #191
      00FF6C17H   LINE      CODE     ---       #192
      00FF6C18H   LINE      CODE     ---       #193
      00FF6C1BH   LINE      CODE     ---       #194
      00FF6C1DH   LINE      CODE     ---       #195
      00FF6C1FH   LINE      CODE     ---       #199
      00FF6C22H   LINE      CODE     ---       #200
      00FF6C26H   LINE      CODE     ---       #201
      00FF6C27H   LINE      CODE     ---       #202
      00FF6C28H   LINE      CODE     ---       #203
      00FF6C29H   LINE      CODE     ---       #204
      00FF6C2BH   LINE      CODE     ---       #205
      00FF6C2DH   LINE      CODE     ---       #235
      ---         BLOCKEND  ---      ---       LVL=0

      00FF6C62H   BLOCK     CODE     NEAR LAB  LVL=0
      00FF6C62H   LINE      CODE     ---       #238
      ---         BLOCKEND  ---      ---       LVL=0

      ---         MODULE    ---      ---       stc32g_isr

      00FF019BH   BLOCK     CODE     NEAR LAB  LVL=0
      00FF019BH   LINE      CODE     ---       #3
      ---         BLOCKEND  ---      ---       LVL=0

      00FF01ABH   BLOCK     CODE     NEAR LAB  LVL=0
      00FF01ABH   LINE      CODE     ---       #6
      ---         BLOCKEND  ---      ---       LVL=0

      00FF01BBH   BLOCK     CODE     NEAR LAB  LVL=0
      00FF01BBH   LINE      CODE     ---       #9
L251 LINKER/LOCATER V4.66.93.0                                                        01/25/2026  01:33:53  PAGE 39


      ---         BLOCKEND  ---      ---       LVL=0

      00FF01CBH   BLOCK     CODE     NEAR LAB  LVL=0
      00FF01CBH   LINE      CODE     ---       #12
      ---         BLOCKEND  ---      ---       LVL=0

      ---         MODULE    ---      ---       zf_common_clock
      00FF684FH   PUBLIC    CODE     ---       clock_init
      00FF58DBH   PUBLIC    CODE     ---       set_sys_clk
      000109D6H   PUBLIC    XDATA    LONG      system_clock
      00000094H   SFRSYM    DATA     BYTE      P0M0
      000000D0H   SFRSYM    DATA     BYTE      PSW
      000000BAH.7 SFRSYM    DATA     BIT       EAXFR
      0000009DH   SFRSYM    DATA     BYTE      IRCBAND
      00000097H   SFRSYM    DATA     BYTE      AUXR2
      000000EAH   SFRSYM    DATA     BYTE      CKCON
      000000EFH   SFRSYM    DATA     BYTE      AUXINTIF
      000000FDH   SFRSYM    DATA     BYTE      S4CON
      000000ACH   SFRSYM    DATA     BYTE      S3CON
      0000009AH   SFRSYM    DATA     BYTE      S2CON
      000000A6H   SFRSYM    DATA     BYTE      VRTRIM
      000000B7H   SFRSYM    DATA     BYTE      IPH
      000000CDH   SFRSYM    DATA     BYTE      SPSTAT
      000000DDH   SFRSYM    DATA     BYTE      T4T3M
      0000009FH   SFRSYM    DATA     BYTE      IRTRIM
      000000C1H   SFRSYM    DATA     BYTE      WDT_CONTR
      000000E9H   SFRSYM    DATA     BYTE      WTST
      000000DFH   SFRSYM    DATA     BYTE      IP3
      000000F4H   SFRSYM    DATA     BYTE      USBCON
      000000B5H   SFRSYM    DATA     BYTE      IP2
      000000FFH   SFRSYM    DATA     BYTE      RSTCFG
      000000C7H   SFRSYM    DATA     BYTE      IAP_CONTR
      000000F9H   SFRSYM    DATA     BYTE      LINICR
      0000008EH   SFRSYM    DATA     BYTE      AUXR
      000000AFH   SFRSYM    DATA     BYTE      IE2
      00000088H   SFRSYM    DATA     BYTE      TCON
      00000089H   SFRSYM    DATA     BYTE      TMOD
      00000098H   SFRSYM    DATA     BYTE      SCON
      000000F1H   SFRSYM    DATA     BYTE      CANICR
      00000087H   SFRSYM    DATA     BYTE      PCON
      000000BCH   SFRSYM    DATA     BYTE      ADC_CONTR
      000000E7H   SFRSYM    DATA     BYTE      CMPCR2
      000000E6H   SFRSYM    DATA     BYTE      CMPCR1
      000000DEH   SFRSYM    DATA     BYTE      ADCCFG
      000000B8H   SFRSYM    DATA     BYTE      IP
      0000008FH   SFRSYM    DATA     BYTE      INTCLKO
      000000EEH   SFRSYM    DATA     BYTE      IP3H
      000000B6H   SFRSYM    DATA     BYTE      IP2H
      000000A8H   SFRSYM    DATA     BYTE      IE
      000000BBH   SFRSYM    DATA     BYTE      P_SW3
      000000BAH   SFRSYM    DATA     BYTE      P_SW2
      000000A2H   SFRSYM    DATA     BYTE      P_SW1
      000000CEH   SFRSYM    DATA     BYTE      SPCTL
      000000F8H   SFRSYM    DATA     BYTE      P7
      000000E1H   SFRSYM    DATA     BYTE      P7M1
      000000E8H   SFRSYM    DATA     BYTE      P6
      000000C8H   SFRSYM    DATA     BYTE      P5
      000000CBH   SFRSYM    DATA     BYTE      P6M1
      000000E2H   SFRSYM    DATA     BYTE      P7M0
      000000C0H   SFRSYM    DATA     BYTE      P4
      000000C9H   SFRSYM    DATA     BYTE      P5M1
      000000CCH   SFRSYM    DATA     BYTE      P6M0
      000000B0H   SFRSYM    DATA     BYTE      P3
      000000B3H   SFRSYM    DATA     BYTE      P4M1
      000000CAH   SFRSYM    DATA     BYTE      P5M0
L251 LINKER/LOCATER V4.66.93.0                                                        01/25/2026  01:33:53  PAGE 40


      000000A0H   SFRSYM    DATA     BYTE      P2
      000000B1H   SFRSYM    DATA     BYTE      P3M1
      000000B4H   SFRSYM    DATA     BYTE      P4M0
      00000090H   SFRSYM    DATA     BYTE      P1
      00000095H   SFRSYM    DATA     BYTE      P2M1
      000000B2H   SFRSYM    DATA     BYTE      P3M0
      00000080H   SFRSYM    DATA     BYTE      P0
      00000091H   SFRSYM    DATA     BYTE      P1M1
      00000096H   SFRSYM    DATA     BYTE      P2M0
      00000092H   SFRSYM    DATA     BYTE      P1M0
      00000093H   SFRSYM    DATA     BYTE      P0M1

      00FF58DBH   BLOCK     CODE     ---       LVL=0
      DR0         REGSYM    ---      DWORD     sys_clk
      00FF58DBH   LINE      CODE     ---       #54
      00FF58DDH   LINE      CODE     ---       #57
      00FF58E0H   LINE      CODE     ---       #59
      00FF591FH   LINE      CODE     ---       #61
      00FF591FH   LINE      CODE     ---       #63
      00FF592CH   LINE      CODE     ---       #64
      00FF5930H   LINE      CODE     ---       #65
      00FF5930H   LINE      CODE     ---       #66
      00FF5930H   LINE      CODE     ---       #67
      00FF5930H   LINE      CODE     ---       #68
      00FF5933H   LINE      CODE     ---       #70
      00FF5933H   LINE      CODE     ---       #72
      00FF5940H   LINE      CODE     ---       #73
      00FF5944H   LINE      CODE     ---       #74
      00FF5944H   LINE      CODE     ---       #75
      00FF5944H   LINE      CODE     ---       #76
      00FF5944H   LINE      CODE     ---       #77
      00FF5946H   LINE      CODE     ---       #79
      00FF5946H   LINE      CODE     ---       #81
      00FF5953H   LINE      CODE     ---       #82
      00FF5957H   LINE      CODE     ---       #83
      00FF5957H   LINE      CODE     ---       #84
      00FF5957H   LINE      CODE     ---       #85
      00FF5957H   LINE      CODE     ---       #86
      00FF5959H   LINE      CODE     ---       #88
      00FF5959H   LINE      CODE     ---       #90
      00FF5966H   LINE      CODE     ---       #91
      00FF596AH   LINE      CODE     ---       #92
      00FF596AH   LINE      CODE     ---       #93
      00FF596AH   LINE      CODE     ---       #94
      00FF596AH   LINE      CODE     ---       #95
      00FF596CH   LINE      CODE     ---       #97
      00FF596CH   LINE      CODE     ---       #99
      00FF5979H   LINE      CODE     ---       #100
      00FF597DH   LINE      CODE     ---       #101
      00FF597DH   LINE      CODE     ---       #102
      00FF597DH   LINE      CODE     ---       #103
      00FF597DH   LINE      CODE     ---       #104
      00FF597FH   LINE      CODE     ---       #106
      00FF597FH   LINE      CODE     ---       #108
      00FF598CH   LINE      CODE     ---       #109
      00FF5999H   LINE      CODE     ---       #110
      00FF59A2H   LINE      CODE     ---       #111
      00FF59A5H   LINE      CODE     ---       #112
      00FF59A5H   LINE      CODE     ---       #113
      00FF59A7H   LINE      CODE     ---       #115
      00FF59A7H   LINE      CODE     ---       #116
      00FF59AFH   LINE      CODE     ---       #118
      00FF59BCH   LINE      CODE     ---       #119
      00FF59C9H   LINE      CODE     ---       #120
      00FF59D2H   LINE      CODE     ---       #121
L251 LINKER/LOCATER V4.66.93.0                                                        01/25/2026  01:33:53  PAGE 41


      00FF59D5H   LINE      CODE     ---       #122
      00FF59D9H   LINE      CODE     ---       #123
      00FF59D9H   LINE      CODE     ---       #124
      00FF59D9H   LINE      CODE     ---       #126
      00FF59DBH   LINE      CODE     ---       #127
      ---         BLOCKEND  ---      ---       LVL=0

      00FF684FH   BLOCK     CODE     ---       LVL=0
      DR0         REGSYM    ---      DWORD     clock
      00FF684FH   LINE      CODE     ---       #132
      00FF684FH   LINE      CODE     ---       #134
      00FF6852H   LINE      CODE     ---       #135
      00FF6855H   LINE      CODE     ---       #136
      00FF6858H   LINE      CODE     ---       #137
      00FF685BH   LINE      CODE     ---       #147
      00FF6868H   LINE      CODE     ---       #153
      00FF686BH   LINE      CODE     ---       #156
      00FF686EH   LINE      CODE     ---       #157
      00FF6871H   LINE      CODE     ---       #158
      00FF6874H   LINE      CODE     ---       #159
      00FF6877H   LINE      CODE     ---       #160
      00FF687AH   LINE      CODE     ---       #161
      00FF687DH   LINE      CODE     ---       #162
      00FF6880H   LINE      CODE     ---       #163
      00FF6883H   LINE      CODE     ---       #164
      00FF6886H   LINE      CODE     ---       #165
      00FF6889H   LINE      CODE     ---       #166
      00FF688CH   LINE      CODE     ---       #167
      00FF688FH   LINE      CODE     ---       #168
      00FF6892H   LINE      CODE     ---       #169
      00FF6895H   LINE      CODE     ---       #170
      00FF6898H   LINE      CODE     ---       #171
      00FF689BH   LINE      CODE     ---       #173
      00FF689EH   LINE      CODE     ---       #174
      00FF68A1H   LINE      CODE     ---       #175
      00FF68A4H   LINE      CODE     ---       #176
      00FF68A7H   LINE      CODE     ---       #177
      00FF68AAH   LINE      CODE     ---       #178
      00FF68ADH   LINE      CODE     ---       #179
      00FF68B0H   LINE      CODE     ---       #180
      00FF68B3H   LINE      CODE     ---       #181
      00FF68B6H   LINE      CODE     ---       #183
      ---         BLOCKEND  ---      ---       LVL=0

      ---         MODULE    ---      ---       zf_common_debug
      00FF7230H   PUBLIC    CODE     ---       debug_interrupr_handler
      00FF6AAEH   PUBLIC    CODE     ---       debug_init
      00FF6923H   PUBLIC    CODE     ---       debug_assert_handler
      00FF7655H   PUBLIC    CODE     ---       putchar
      000106CCH   PUBLIC    XDATA    ---       debug_uart_buffer
      0001070DH   PUBLIC    XDATA    ---       debug_uart_fifo
      000000D0H   SFRSYM    DATA     BYTE      PSW
      0000009DH   SFRSYM    DATA     BYTE      IRCBAND
      00000097H   SFRSYM    DATA     BYTE      AUXR2
      000000EFH   SFRSYM    DATA     BYTE      AUXINTIF
      000000FDH   SFRSYM    DATA     BYTE      S4CON
      000000ACH   SFRSYM    DATA     BYTE      S3CON
      0000009AH   SFRSYM    DATA     BYTE      S2CON
      000000B7H   SFRSYM    DATA     BYTE      IPH
      000000CDH   SFRSYM    DATA     BYTE      SPSTAT
      000000DDH   SFRSYM    DATA     BYTE      T4T3M
      000000C1H   SFRSYM    DATA     BYTE      WDT_CONTR
      000000DFH   SFRSYM    DATA     BYTE      IP3
      000000F4H   SFRSYM    DATA     BYTE      USBCON
      000000B5H   SFRSYM    DATA     BYTE      IP2
L251 LINKER/LOCATER V4.66.93.0                                                        01/25/2026  01:33:53  PAGE 42


      000000FFH   SFRSYM    DATA     BYTE      RSTCFG
      000000C7H   SFRSYM    DATA     BYTE      IAP_CONTR
      000000F9H   SFRSYM    DATA     BYTE      LINICR
      0000008EH   SFRSYM    DATA     BYTE      AUXR
      000000AFH   SFRSYM    DATA     BYTE      IE2
      00000088H   SFRSYM    DATA     BYTE      TCON
      00000089H   SFRSYM    DATA     BYTE      TMOD
      00000098H   SFRSYM    DATA     BYTE      SCON
      000000F1H   SFRSYM    DATA     BYTE      CANICR
      00000087H   SFRSYM    DATA     BYTE      PCON
      000000BCH   SFRSYM    DATA     BYTE      ADC_CONTR
      000000E7H   SFRSYM    DATA     BYTE      CMPCR2
      000000E6H   SFRSYM    DATA     BYTE      CMPCR1
      000000DEH   SFRSYM    DATA     BYTE      ADCCFG
      000000B8H   SFRSYM    DATA     BYTE      IP
      0000008FH   SFRSYM    DATA     BYTE      INTCLKO
      000000EEH   SFRSYM    DATA     BYTE      IP3H
      000000B6H   SFRSYM    DATA     BYTE      IP2H
      000000A8H   SFRSYM    DATA     BYTE      IE
      000000BBH   SFRSYM    DATA     BYTE      P_SW3
      000000BAH   SFRSYM    DATA     BYTE      P_SW2
      000000A2H   SFRSYM    DATA     BYTE      P_SW1
      000000CEH   SFRSYM    DATA     BYTE      SPCTL
      000000F8H   SFRSYM    DATA     BYTE      P7
      000000E8H   SFRSYM    DATA     BYTE      P6
      000000C8H   SFRSYM    DATA     BYTE      P5
      000000C0H   SFRSYM    DATA     BYTE      P4
      000000B0H   SFRSYM    DATA     BYTE      P3
      000000A0H   SFRSYM    DATA     BYTE      P2
      00000090H   SFRSYM    DATA     BYTE      P1
      00000080H   SFRSYM    DATA     BYTE      P0
      00FF86D5H   SYMBOL    HCONST   ---       ?tpl?0001
      0001070CH   SYMBOL    XDATA    BYTE      zf_debug_assert_enable
      00010724H   SYMBOL    XDATA    BYTE      zf_debug_init_flag
      REG=2       REGSYM    ---      ---       buff
      DR12        REGSYM    ---      DWORD     len
      REG=2       REGSYM    ---      ---       buff

      00FF7230H   BLOCK     CODE     ---       LVL=0
      0001063BH   SYMBOL    XDATA    BYTE      dat
      00FF7230H   LINE      CODE     ---       #281
      00FF7234H   LINE      CODE     ---       #283
      00FF723AH   LINE      CODE     ---       #285
      00FF7247H   LINE      CODE     ---       #286
      00FF7268H   LINE      CODE     ---       #287
      ---         BLOCKEND  ---      ---       LVL=0

      00FF7655H   BLOCK     CODE     ---       LVL=0
      R15         REGSYM    ---      CHAR      c
      00FF7655H   LINE      CODE     ---       #303
      00FF7659H   LINE      CODE     ---       #305
      00FF765EH   LINE      CODE     ---       #307
      00FF7660H   LINE      CODE     ---       #308
      ---         BLOCKEND  ---      ---       LVL=0

      00FF6923H   BLOCK     CODE     ---       LVL=0
      0001064DH   SYMBOL    XDATA    BYTE      pass
      REG=3       REGSYM    ---      ---       file
      0001064EH   SYMBOL    XDATA    INT       line
      00FF6931H   BLOCK     CODE     NEAR LAB  LVL=1
      00010650H   SYMBOL    XDATA    ---       log_str
      ---         BLOCKEND  ---      ---       LVL=1
      00FF6923H   LINE      CODE     ---       #346
      00FF6931H   LINE      CODE     ---       #347
      00FF6931H   LINE      CODE     ---       #348
L251 LINKER/LOCATER V4.66.93.0                                                        01/25/2026  01:33:53  PAGE 43


      00FF6946H   LINE      CODE     ---       #350
      00FF6948H   LINE      CODE     ---       #366
      00FF697BH   LINE      CODE     ---       #369
      00FF6982H   LINE      CODE     ---       #370
      00FF6988H   LINE      CODE     ---       #371
      ---         BLOCKEND  ---      ---       LVL=0

      00FF6AAEH   BLOCK     CODE     ---       LVL=0
      00FF6AAEH   LINE      CODE     ---       #453
      00FF6AAEH   LINE      CODE     ---       #454
      00FF6AAEH   LINE      CODE     ---       #455
      00FF6AAEH   LINE      CODE     ---       #461
      00FF6AC9H   LINE      CODE     ---       #468
      00FF6AF6H   LINE      CODE     ---       #469
      00FF6AFDH   LINE      CODE     ---       #472
      00FF6AFDH   LINE      CODE     ---       #474
      00FF6B07H   LINE      CODE     ---       #475
      00FF6B07H   LINE      CODE     ---       #476
      00FF6B07H   LINE      CODE     ---       #478
      00FF6B07H   LINE      CODE     ---       #480
      00FF6B07H   LINE      CODE     ---       #482
      00FF6B07H   LINE      CODE     ---       #484
      00FF6B07H   LINE      CODE     ---       #486
      00FF6B07H   LINE      CODE     ---       #487
      ---         BLOCKEND  ---      ---       LVL=0

      ---         MODULE    ---      ---       zf_common_fifo
      00FF3FE8H   PUBLIC    CODE     ---       fifo_write_buffer
      00FF6688H   PUBLIC    CODE     ---       fifo_init
      00010638H   PUBLIC    XDATA    BYTE      ?fifo_write_buffer?BYTE
      00010637H   PUBLIC    XDATA    BYTE      ?fifo_init?BYTE
      000000D0H   SFRSYM    DATA     BYTE      PSW
      0000009DH   SFRSYM    DATA     BYTE      IRCBAND
      00000097H   SFRSYM    DATA     BYTE      AUXR2
      000000EFH   SFRSYM    DATA     BYTE      AUXINTIF
      000000FDH   SFRSYM    DATA     BYTE      S4CON
      000000ACH   SFRSYM    DATA     BYTE      S3CON
      0000009AH   SFRSYM    DATA     BYTE      S2CON
      000000B7H   SFRSYM    DATA     BYTE      IPH
      000000CDH   SFRSYM    DATA     BYTE      SPSTAT
      000000DDH   SFRSYM    DATA     BYTE      T4T3M
      000000C1H   SFRSYM    DATA     BYTE      WDT_CONTR
      000000DFH   SFRSYM    DATA     BYTE      IP3
      000000F4H   SFRSYM    DATA     BYTE      USBCON
      000000B5H   SFRSYM    DATA     BYTE      IP2
      000000FFH   SFRSYM    DATA     BYTE      RSTCFG
      000000C7H   SFRSYM    DATA     BYTE      IAP_CONTR
      000000F9H   SFRSYM    DATA     BYTE      LINICR
      0000008EH   SFRSYM    DATA     BYTE      AUXR
      000000AFH   SFRSYM    DATA     BYTE      IE2
      00000088H   SFRSYM    DATA     BYTE      TCON
      00000089H   SFRSYM    DATA     BYTE      TMOD
      00000098H   SFRSYM    DATA     BYTE      SCON
      000000F1H   SFRSYM    DATA     BYTE      CANICR
      00000087H   SFRSYM    DATA     BYTE      PCON
      000000BCH   SFRSYM    DATA     BYTE      ADC_CONTR
      000000E7H   SFRSYM    DATA     BYTE      CMPCR2
      000000E6H   SFRSYM    DATA     BYTE      CMPCR1
      000000DEH   SFRSYM    DATA     BYTE      ADCCFG
      000000B8H   SFRSYM    DATA     BYTE      IP
      0000008FH   SFRSYM    DATA     BYTE      INTCLKO
      000000EEH   SFRSYM    DATA     BYTE      IP3H
      000000B6H   SFRSYM    DATA     BYTE      IP2H
      000000A8H   SFRSYM    DATA     BYTE      IE
      000000BBH   SFRSYM    DATA     BYTE      P_SW3
L251 LINKER/LOCATER V4.66.93.0                                                        01/25/2026  01:33:53  PAGE 44


      000000BAH   SFRSYM    DATA     BYTE      P_SW2
      000000A2H   SFRSYM    DATA     BYTE      P_SW1
      000000CEH   SFRSYM    DATA     BYTE      SPCTL
      000000F8H   SFRSYM    DATA     BYTE      P7
      000000E8H   SFRSYM    DATA     BYTE      P6
      000000C8H   SFRSYM    DATA     BYTE      P5
      000000C0H   SFRSYM    DATA     BYTE      P4
      000000B0H   SFRSYM    DATA     BYTE      P3
      000000A0H   SFRSYM    DATA     BYTE      P2
      00000090H   SFRSYM    DATA     BYTE      P1
      00000080H   SFRSYM    DATA     BYTE      P0
      00FF6E84H   SYMBOL    CODE     ---       fifo_head_offset

      00FF6E84H   BLOCK     CODE     ---       LVL=0
      REG=7       REGSYM    ---      ---       fifo
      DR24        REGSYM    ---      DWORD     offset
      00FF6E84H   LINE      CODE     ---       #51
      00FF6E88H   LINE      CODE     ---       #53
      00FF6E95H   LINE      CODE     ---       #55
      00FF6E97H   LINE      CODE     ---       #57
      00FF6EB5H   LINE      CODE     ---       #58
      00FF6EC9H   LINE      CODE     ---       #59
      ---         BLOCKEND  ---      ---       LVL=0
      REG=7       REGSYM    ---      ---       fifo
      DR24        REGSYM    ---      DWORD     offset
      REG=3       REGSYM    ---      ---       fifo
      REG=3       REGSYM    ---      ---       fifo

      00FF3FE8H   BLOCK     CODE     ---       LVL=0
      REG=3       REGSYM    ---      ---       fifo
      0001063CH   SYMBOL    XDATA    ---       dat
      00010640H   SYMBOL    XDATA    DWORD     length
      00FF3FF6H   BLOCK     CODE     NEAR LAB  LVL=1
      00010644H   SYMBOL    XDATA    INT       return_state
      00010646H   SYMBOL    XDATA    DWORD     temp_length
      ---         BLOCKEND  ---      ---       LVL=1
      00FF3FE8H   LINE      CODE     ---       #178
      00FF3FF6H   LINE      CODE     ---       #179
      00FF3FF6H   LINE      CODE     ---       #180
      00FF3FFEH   LINE      CODE     ---       #181
      00FF400AH   LINE      CODE     ---       #182
      00FF4024H   LINE      CODE     ---       #184
      00FF4024H   LINE      CODE     ---       #186
      00FF4034H   LINE      CODE     ---       #188
      00FF4038H   LINE      CODE     ---       #189
      00FF403AH   LINE      CODE     ---       #190
      00FF403AH   LINE      CODE     ---       #191
      00FF4045H   LINE      CODE     ---       #193
      00FF404FH   LINE      CODE     ---       #194
      00FF4052H   LINE      CODE     ---       #195
      00FF4052H   LINE      CODE     ---       #196
      00FF4057H   LINE      CODE     ---       #198
      00FF4070H   LINE      CODE     ---       #200
      00FF408CH   LINE      CODE     ---       #202
      00FF4093H   LINE      CODE     ---       #204
      00FF40A9H   LINE      CODE     ---       #206
      00FF40A9H   LINE      CODE     ---       #208
      00FF40C3H   LINE      CODE     ---       #211
      00FF40D2H   LINE      CODE     ---       #212
      00FF40FBH   LINE      CODE     ---       #216
      00FF40FBH   LINE      CODE     ---       #217
      00FF40FEH   LINE      CODE     ---       #218
      00FF40FEH   LINE      CODE     ---       #220
      00FF4128H   LINE      CODE     ---       #223
      00FF4137H   LINE      CODE     ---       #224
L251 LINKER/LOCATER V4.66.93.0                                                        01/25/2026  01:33:53  PAGE 45


      00FF416BH   LINE      CODE     ---       #228
      00FF416BH   LINE      CODE     ---       #229
      00FF416DH   LINE      CODE     ---       #230
      00FF416DH   LINE      CODE     ---       #232
      00FF419BH   LINE      CODE     ---       #235
      00FF41AAH   LINE      CODE     ---       #236
      00FF41F5H   LINE      CODE     ---       #240
      00FF420DH   LINE      CODE     ---       #241
      00FF420DH   LINE      CODE     ---       #242
      00FF420DH   LINE      CODE     ---       #243
      00FF4210H   LINE      CODE     ---       #246
      00FF4223H   LINE      CODE     ---       #248
      00FF4223H   LINE      CODE     ---       #250
      00FF4249H   LINE      CODE     ---       #253
      00FF4255H   LINE      CODE     ---       #254
      00FF4257H   LINE      CODE     ---       #255
      00FF4257H   LINE      CODE     ---       #257
      00FF4281H   LINE      CODE     ---       #260
      00FF428DH   LINE      CODE     ---       #261
      00FF428FH   LINE      CODE     ---       #262
      00FF428FH   LINE      CODE     ---       #264
      00FF42BDH   LINE      CODE     ---       #267
      00FF42CCH   LINE      CODE     ---       #268
      00FF42CCH   LINE      CODE     ---       #269
      00FF42CCH   LINE      CODE     ---       #270
      00FF42CCH   LINE      CODE     ---       #272
      00FF42ECH   LINE      CODE     ---       #273
      00FF42EEH   LINE      CODE     ---       #276
      00FF42F8H   LINE      CODE     ---       #277
      00FF42F8H   LINE      CODE     ---       #278
      00FF4300H   LINE      CODE     ---       #279
      00FF4300H   LINE      CODE     ---       #281
      00FF4306H   LINE      CODE     ---       #282
      ---         BLOCKEND  ---      ---       LVL=0
      REG=3       REGSYM    ---      ---       fifo

      00FF6688H   BLOCK     CODE     ---       LVL=0
      REG=3       REGSYM    ---      ---       fifo
      0001063BH   SYMBOL    XDATA    INT       type
      0001063DH   SYMBOL    XDATA    ---       buffer_addr
      00010641H   SYMBOL    XDATA    DWORD     siz
      00FF6688H   LINE      CODE     ---       #549
      00FF6692H   LINE      CODE     ---       #551
      00FF66ACH   LINE      CODE     ---       #552
      00FF66ACH   LINE      CODE     ---       #554
      00FF66BEH   LINE      CODE     ---       #555
      00FF66C2H   LINE      CODE     ---       #556
      00FF66CCH   LINE      CODE     ---       #557
      00FF66D6H   LINE      CODE     ---       #558
      00FF66DEH   LINE      CODE     ---       #559
      00FF66F0H   LINE      CODE     ---       #560
      00FF66F8H   LINE      CODE     ---       #561
      00FF66F8H   LINE      CODE     ---       #562
      00FF66FAH   LINE      CODE     ---       #563
      ---         BLOCKEND  ---      ---       LVL=0

      ---         MODULE    ---      ---       zf_common_font
      00FF3071H   PUBLIC    CODE     ---       ascii_font_8x16
      000000D0H   SFRSYM    DATA     BYTE      PSW
      0000009DH   SFRSYM    DATA     BYTE      IRCBAND
      00000097H   SFRSYM    DATA     BYTE      AUXR2
      000000EFH   SFRSYM    DATA     BYTE      AUXINTIF
      000000FDH   SFRSYM    DATA     BYTE      S4CON
      000000ACH   SFRSYM    DATA     BYTE      S3CON
      0000009AH   SFRSYM    DATA     BYTE      S2CON
L251 LINKER/LOCATER V4.66.93.0                                                        01/25/2026  01:33:53  PAGE 46


      000000B7H   SFRSYM    DATA     BYTE      IPH
      000000CDH   SFRSYM    DATA     BYTE      SPSTAT
      000000DDH   SFRSYM    DATA     BYTE      T4T3M
      000000C1H   SFRSYM    DATA     BYTE      WDT_CONTR
      000000DFH   SFRSYM    DATA     BYTE      IP3
      000000F4H   SFRSYM    DATA     BYTE      USBCON
      000000B5H   SFRSYM    DATA     BYTE      IP2
      000000FFH   SFRSYM    DATA     BYTE      RSTCFG
      000000C7H   SFRSYM    DATA     BYTE      IAP_CONTR
      000000F9H   SFRSYM    DATA     BYTE      LINICR
      0000008EH   SFRSYM    DATA     BYTE      AUXR
      000000AFH   SFRSYM    DATA     BYTE      IE2
      00000088H   SFRSYM    DATA     BYTE      TCON
      00000089H   SFRSYM    DATA     BYTE      TMOD
      00000098H   SFRSYM    DATA     BYTE      SCON
      000000F1H   SFRSYM    DATA     BYTE      CANICR
      00000087H   SFRSYM    DATA     BYTE      PCON
      000000BCH   SFRSYM    DATA     BYTE      ADC_CONTR
      000000E7H   SFRSYM    DATA     BYTE      CMPCR2
      000000E6H   SFRSYM    DATA     BYTE      CMPCR1
      000000DEH   SFRSYM    DATA     BYTE      ADCCFG
      000000B8H   SFRSYM    DATA     BYTE      IP
      0000008FH   SFRSYM    DATA     BYTE      INTCLKO
      000000EEH   SFRSYM    DATA     BYTE      IP3H
      000000B6H   SFRSYM    DATA     BYTE      IP2H
      000000A8H   SFRSYM    DATA     BYTE      IE
      000000BBH   SFRSYM    DATA     BYTE      P_SW3
      000000BAH   SFRSYM    DATA     BYTE      P_SW2
      000000A2H   SFRSYM    DATA     BYTE      P_SW1
      000000CEH   SFRSYM    DATA     BYTE      SPCTL
      000000F8H   SFRSYM    DATA     BYTE      P7
      000000E8H   SFRSYM    DATA     BYTE      P6
      000000C8H   SFRSYM    DATA     BYTE      P5
      000000C0H   SFRSYM    DATA     BYTE      P4
      000000B0H   SFRSYM    DATA     BYTE      P3
      000000A0H   SFRSYM    DATA     BYTE      P2
      00000090H   SFRSYM    DATA     BYTE      P1
      00000080H   SFRSYM    DATA     BYTE      P0

      ---         MODULE    ---      ---       zf_common_function
      000000D0H   SFRSYM    DATA     BYTE      PSW
      0000009DH   SFRSYM    DATA     BYTE      IRCBAND
      00000097H   SFRSYM    DATA     BYTE      AUXR2
      000000EFH   SFRSYM    DATA     BYTE      AUXINTIF
      000000FDH   SFRSYM    DATA     BYTE      S4CON
      000000ACH   SFRSYM    DATA     BYTE      S3CON
      0000009AH   SFRSYM    DATA     BYTE      S2CON
      000000B7H   SFRSYM    DATA     BYTE      IPH
      000000CDH   SFRSYM    DATA     BYTE      SPSTAT
      000000DDH   SFRSYM    DATA     BYTE      T4T3M
      000000C1H   SFRSYM    DATA     BYTE      WDT_CONTR
      000000DFH   SFRSYM    DATA     BYTE      IP3
      000000F4H   SFRSYM    DATA     BYTE      USBCON
      000000B5H   SFRSYM    DATA     BYTE      IP2
      000000FFH   SFRSYM    DATA     BYTE      RSTCFG
      000000C7H   SFRSYM    DATA     BYTE      IAP_CONTR
      000000F9H   SFRSYM    DATA     BYTE      LINICR
      0000008EH   SFRSYM    DATA     BYTE      AUXR
      000000AFH   SFRSYM    DATA     BYTE      IE2
      00000088H   SFRSYM    DATA     BYTE      TCON
      00000089H   SFRSYM    DATA     BYTE      TMOD
      00000098H   SFRSYM    DATA     BYTE      SCON
      000000F1H   SFRSYM    DATA     BYTE      CANICR
      00000087H   SFRSYM    DATA     BYTE      PCON
      000000BCH   SFRSYM    DATA     BYTE      ADC_CONTR
L251 LINKER/LOCATER V4.66.93.0                                                        01/25/2026  01:33:53  PAGE 47


      000000E7H   SFRSYM    DATA     BYTE      CMPCR2
      000000E6H   SFRSYM    DATA     BYTE      CMPCR1
      000000DEH   SFRSYM    DATA     BYTE      ADCCFG
      000000B8H   SFRSYM    DATA     BYTE      IP
      0000008FH   SFRSYM    DATA     BYTE      INTCLKO
      000000EEH   SFRSYM    DATA     BYTE      IP3H
      000000B6H   SFRSYM    DATA     BYTE      IP2H
      000000A8H   SFRSYM    DATA     BYTE      IE
      000000BBH   SFRSYM    DATA     BYTE      P_SW3
      000000BAH   SFRSYM    DATA     BYTE      P_SW2
      000000A2H   SFRSYM    DATA     BYTE      P_SW1
      000000CEH   SFRSYM    DATA     BYTE      SPCTL
      000000F8H   SFRSYM    DATA     BYTE      P7
      000000E8H   SFRSYM    DATA     BYTE      P6
      000000C8H   SFRSYM    DATA     BYTE      P5
      000000C0H   SFRSYM    DATA     BYTE      P4
      000000B0H   SFRSYM    DATA     BYTE      P3
      000000A0H   SFRSYM    DATA     BYTE      P2
      00000090H   SFRSYM    DATA     BYTE      P1
      00000080H   SFRSYM    DATA     BYTE      P0
      00FF83ADH   SYMBOL    HCONST   ---       ?tpl?0001
      00FF83BDH   SYMBOL    HCONST   ---       ?tpl?0002
      DR8         REGSYM    ---      DWORD     num1
      DR28        REGSYM    ---      DWORD     num2
      REG=3       REGSYM    ---      ---       str
      REG=3       REGSYM    ---      ---       str
      REG=3       REGSYM    ---      ---       str
      REG=3       REGSYM    ---      ---       str
      REG=3       REGSYM    ---      ---       str
      REG=3       REGSYM    ---      ---       str
      REG=3       REGSYM    ---      ---       str
      REG=3       REGSYM    ---      ---       str
      REG=3       REGSYM    ---      ---       str
      REG=3       REGSYM    ---      ---       str
      DR24        REGSYM    ---      DWORD     dat
      REG=7       REGSYM    ---      ---       p
      R10         REGSYM    ---      BYTE      neg_type
      DR20        REGSYM    ---      LONG      neg_dat
      DR24        REGSYM    ---      DWORD     pos_dat
      R14         REGSYM    ---      BYTE      temp_data
      R15         REGSYM    ---      BYTE      valid_num
      REG=7       REGSYM    ---      ---       d_buff
      DR24        REGSYM    ---      DWORD     len
      DR4         REGSYM    ---      DWORD     i
      R3          REGSYM    ---      CHAR      temp_data
      REG=4       REGSYM    ---      ---       buffer
      DR28        REGSYM    ---      DWORD     siz
      REG=5       REGSYM    ---      ---       format
      REG=6       REGSYM    ---      ---       args
      REG=0       REGSYM    ---      ---       ptr
      WR8         REGSYM    ---      INT       num
      REG=4       REGSYM    ---      ---       str
      R10         REGSYM    ---      CHAR      t
      REG=3       REGSYM    ---      ---       buff

      ---         MODULE    ---      ---       zf_common_typedef
      000108CDH   PUBLIC    XDATA    ---       tim11_irq_handler
      000108CFH   PUBLIC    XDATA    ---       uart1_irq_handler
      000108D1H   PUBLIC    XDATA    ---       uart2_irq_handler
      000108D3H   PUBLIC    XDATA    ---       uart3_irq_handler
      000108D5H   PUBLIC    XDATA    ---       uart4_irq_handler
      000108D7H   PUBLIC    XDATA    ---       tim0_irq_handler
      000108D9H   PUBLIC    XDATA    ---       int0_irq_handler
      000108DBH   PUBLIC    XDATA    ---       tim1_irq_handler
      000108DDH   PUBLIC    XDATA    ---       int1_irq_handler
L251 LINKER/LOCATER V4.66.93.0                                                        01/25/2026  01:33:53  PAGE 48


      000108DFH   PUBLIC    XDATA    ---       tim2_irq_handler
      000108E1H   PUBLIC    XDATA    ---       int2_irq_handler
      000108E3H   PUBLIC    XDATA    ---       tim3_irq_handler
      000108E5H   PUBLIC    XDATA    ---       int3_irq_handler
      000108E7H   PUBLIC    XDATA    ---       tim4_irq_handler
      000108E9H   PUBLIC    XDATA    ---       int4_irq_handler
      000000D0H   SFRSYM    DATA     BYTE      PSW
      0000009DH   SFRSYM    DATA     BYTE      IRCBAND
      00000097H   SFRSYM    DATA     BYTE      AUXR2
      000000EFH   SFRSYM    DATA     BYTE      AUXINTIF
      000000FDH   SFRSYM    DATA     BYTE      S4CON
      000000ACH   SFRSYM    DATA     BYTE      S3CON
      0000009AH   SFRSYM    DATA     BYTE      S2CON
      000000B7H   SFRSYM    DATA     BYTE      IPH
      000000CDH   SFRSYM    DATA     BYTE      SPSTAT
      000000DDH   SFRSYM    DATA     BYTE      T4T3M
      000000C1H   SFRSYM    DATA     BYTE      WDT_CONTR
      000000DFH   SFRSYM    DATA     BYTE      IP3
      000000F4H   SFRSYM    DATA     BYTE      USBCON
      000000B5H   SFRSYM    DATA     BYTE      IP2
      000000FFH   SFRSYM    DATA     BYTE      RSTCFG
      000000C7H   SFRSYM    DATA     BYTE      IAP_CONTR
      000000F9H   SFRSYM    DATA     BYTE      LINICR
      0000008EH   SFRSYM    DATA     BYTE      AUXR
      000000AFH   SFRSYM    DATA     BYTE      IE2
      00000088H   SFRSYM    DATA     BYTE      TCON
      00000089H   SFRSYM    DATA     BYTE      TMOD
      00000098H   SFRSYM    DATA     BYTE      SCON
      000000F1H   SFRSYM    DATA     BYTE      CANICR
      00000087H   SFRSYM    DATA     BYTE      PCON
      000000BCH   SFRSYM    DATA     BYTE      ADC_CONTR
      000000E7H   SFRSYM    DATA     BYTE      CMPCR2
      000000E6H   SFRSYM    DATA     BYTE      CMPCR1
      000000DEH   SFRSYM    DATA     BYTE      ADCCFG
      000000B8H   SFRSYM    DATA     BYTE      IP
      0000008FH   SFRSYM    DATA     BYTE      INTCLKO
      000000EEH   SFRSYM    DATA     BYTE      IP3H
      000000B6H   SFRSYM    DATA     BYTE      IP2H
      000000A8H   SFRSYM    DATA     BYTE      IE
      000000BBH   SFRSYM    DATA     BYTE      P_SW3
      000000BAH   SFRSYM    DATA     BYTE      P_SW2
      000000A2H   SFRSYM    DATA     BYTE      P_SW1
      000000CEH   SFRSYM    DATA     BYTE      SPCTL
      000000F8H   SFRSYM    DATA     BYTE      P7
      000000E8H   SFRSYM    DATA     BYTE      P6
      000000C8H   SFRSYM    DATA     BYTE      P5
      000000C0H   SFRSYM    DATA     BYTE      P4
      000000B0H   SFRSYM    DATA     BYTE      P3
      000000A0H   SFRSYM    DATA     BYTE      P2
      00000090H   SFRSYM    DATA     BYTE      P1
      00000080H   SFRSYM    DATA     BYTE      P0

      ---         MODULE    ---      ---       zf_common_interrupt
      00FF001EH   PUBLIC    CODE     ---       interrupt_global_enable
      000000D0H   SFRSYM    DATA     BYTE      PSW
      0000009DH   SFRSYM    DATA     BYTE      IRCBAND
      00000097H   SFRSYM    DATA     BYTE      AUXR2
      000000EFH   SFRSYM    DATA     BYTE      AUXINTIF
      000000FDH   SFRSYM    DATA     BYTE      S4CON
      000000ACH   SFRSYM    DATA     BYTE      S3CON
      0000009AH   SFRSYM    DATA     BYTE      S2CON
      000000B7H   SFRSYM    DATA     BYTE      IPH
      000000CDH   SFRSYM    DATA     BYTE      SPSTAT
      000000DDH   SFRSYM    DATA     BYTE      T4T3M
      000000C1H   SFRSYM    DATA     BYTE      WDT_CONTR
L251 LINKER/LOCATER V4.66.93.0                                                        01/25/2026  01:33:53  PAGE 49


      000000DFH   SFRSYM    DATA     BYTE      IP3
      000000F4H   SFRSYM    DATA     BYTE      USBCON
      000000B5H   SFRSYM    DATA     BYTE      IP2
      000000FFH   SFRSYM    DATA     BYTE      RSTCFG
      000000C7H   SFRSYM    DATA     BYTE      IAP_CONTR
      000000F9H   SFRSYM    DATA     BYTE      LINICR
      0000008EH   SFRSYM    DATA     BYTE      AUXR
      000000AFH   SFRSYM    DATA     BYTE      IE2
      00000088H   SFRSYM    DATA     BYTE      TCON
      00000089H   SFRSYM    DATA     BYTE      TMOD
      00000098H   SFRSYM    DATA     BYTE      SCON
      000000F1H   SFRSYM    DATA     BYTE      CANICR
      00000087H   SFRSYM    DATA     BYTE      PCON
      000000BCH   SFRSYM    DATA     BYTE      ADC_CONTR
      000000E7H   SFRSYM    DATA     BYTE      CMPCR2
      000000E6H   SFRSYM    DATA     BYTE      CMPCR1
      000000DEH   SFRSYM    DATA     BYTE      ADCCFG
      000000B8H   SFRSYM    DATA     BYTE      IP
      0000008FH   SFRSYM    DATA     BYTE      INTCLKO
      000000EEH   SFRSYM    DATA     BYTE      IP3H
      000000B6H   SFRSYM    DATA     BYTE      IP2H
      000000A8H   SFRSYM    DATA     BYTE      IE
      000000BBH   SFRSYM    DATA     BYTE      P_SW3
      000000BAH   SFRSYM    DATA     BYTE      P_SW2
      000000A2H   SFRSYM    DATA     BYTE      P_SW1
      000000CEH   SFRSYM    DATA     BYTE      SPCTL
      000000F8H   SFRSYM    DATA     BYTE      P7
      000000A8H.7 SFRSYM    DATA     BIT       EA
      000000E8H   SFRSYM    DATA     BYTE      P6
      000000C8H   SFRSYM    DATA     BYTE      P5
      000000C0H   SFRSYM    DATA     BYTE      P4
      000000B0H   SFRSYM    DATA     BYTE      P3
      000000A0H   SFRSYM    DATA     BYTE      P2
      00000090H   SFRSYM    DATA     BYTE      P1
      00000080H   SFRSYM    DATA     BYTE      P0
      WR4         REGSYM    ---      INT       irqn
      R3          REGSYM    ---      BYTE      priority

      00FF001EH   BLOCK     CODE     ---       LVL=0
      00FF001EH   LINE      CODE     ---       #88
      00FF001EH   LINE      CODE     ---       #90
      00FF0020H   LINE      CODE     ---       #91
      ---         BLOCKEND  ---      ---       LVL=0

      ---         MODULE    ---      ---       zf_driver_adc
      00FF739EH   PUBLIC    CODE     ---       adc_convert
      00FF69EDH   PUBLIC    CODE     ---       adc_init
      00000094H   SFRSYM    DATA     BYTE      P0M0
      000000D0H   SFRSYM    DATA     BYTE      PSW
      0000009DH   SFRSYM    DATA     BYTE      IRCBAND
      00000097H   SFRSYM    DATA     BYTE      AUXR2
      000000EFH   SFRSYM    DATA     BYTE      AUXINTIF
      000000FDH   SFRSYM    DATA     BYTE      S4CON
      000000ACH   SFRSYM    DATA     BYTE      S3CON
      0000009AH   SFRSYM    DATA     BYTE      S2CON
      000000B7H   SFRSYM    DATA     BYTE      IPH
      000000CDH   SFRSYM    DATA     BYTE      SPSTAT
      000000BEH   SFRSYM    DATA     BYTE      ADC_RESL
      000000DDH   SFRSYM    DATA     BYTE      T4T3M
      000000C1H   SFRSYM    DATA     BYTE      WDT_CONTR
      000000DFH   SFRSYM    DATA     BYTE      IP3
      000000F4H   SFRSYM    DATA     BYTE      USBCON
      000000B5H   SFRSYM    DATA     BYTE      IP2
      000000FFH   SFRSYM    DATA     BYTE      RSTCFG
      000000C7H   SFRSYM    DATA     BYTE      IAP_CONTR
L251 LINKER/LOCATER V4.66.93.0                                                        01/25/2026  01:33:53  PAGE 50


      000000F9H   SFRSYM    DATA     BYTE      LINICR
      0000008EH   SFRSYM    DATA     BYTE      AUXR
      000000AFH   SFRSYM    DATA     BYTE      IE2
      00000088H   SFRSYM    DATA     BYTE      TCON
      00000089H   SFRSYM    DATA     BYTE      TMOD
      00000098H   SFRSYM    DATA     BYTE      SCON
      000000F1H   SFRSYM    DATA     BYTE      CANICR
      00000087H   SFRSYM    DATA     BYTE      PCON
      000000BCH   SFRSYM    DATA     BYTE      ADC_CONTR
      000000E7H   SFRSYM    DATA     BYTE      CMPCR2
      000000E6H   SFRSYM    DATA     BYTE      CMPCR1
      000000DEH   SFRSYM    DATA     BYTE      ADCCFG
      000000B8H   SFRSYM    DATA     BYTE      IP
      0000008FH   SFRSYM    DATA     BYTE      INTCLKO
      000000EEH   SFRSYM    DATA     BYTE      IP3H
      000000B6H   SFRSYM    DATA     BYTE      IP2H
      000000BDH   SFRSYM    DATA     BYTE      ADC_RES
      000000A8H   SFRSYM    DATA     BYTE      IE
      000000BBH   SFRSYM    DATA     BYTE      P_SW3
      000000BAH   SFRSYM    DATA     BYTE      P_SW2
      000000A2H   SFRSYM    DATA     BYTE      P_SW1
      000000CEH   SFRSYM    DATA     BYTE      SPCTL
      000000F8H   SFRSYM    DATA     BYTE      P7
      000000E8H   SFRSYM    DATA     BYTE      P6
      000000C8H   SFRSYM    DATA     BYTE      P5
      000000C0H   SFRSYM    DATA     BYTE      P4
      000000B0H   SFRSYM    DATA     BYTE      P3
      000000A0H   SFRSYM    DATA     BYTE      P2
      00000090H   SFRSYM    DATA     BYTE      P1
      00000080H   SFRSYM    DATA     BYTE      P0
      00000091H   SFRSYM    DATA     BYTE      P1M1
      00000092H   SFRSYM    DATA     BYTE      P1M0
      00000093H   SFRSYM    DATA     BYTE      P0M1
      000109EDH   SYMBOL    XDATA    BYTE      adc_resolution
      WR14        REGSYM    ---      INT       ch
      R13         REGSYM    ---      BYTE      count
      R12         REGSYM    ---      BYTE      i

      00FF739EH   BLOCK     CODE     ---       LVL=0
      WR6         REGSYM    ---      INT       ch
      WR6         REGSYM    ---      WORD      adc_value
      00FF739EH   LINE      CODE     ---       #75
      00FF739EH   LINE      CODE     ---       #76
      00FF739EH   LINE      CODE     ---       #79
      00FF73A1H   LINE      CODE     ---       #80
      00FF73A5H   LINE      CODE     ---       #82
      00FF73A8H   LINE      CODE     ---       #84
      00FF73ADH   LINE      CODE     ---       #86
      00FF73B0H   LINE      CODE     ---       #88
      00FF73B2H   LINE      CODE     ---       #89
      00FF73B6H   LINE      CODE     ---       #90
      00FF73BCH   LINE      CODE     ---       #92
      00FF73BFH   LINE      CODE     ---       #93
      00FF73C2H   LINE      CODE     ---       #95
      00FF73CDH   LINE      CODE     ---       #98
      00FF73CDH   LINE      CODE     ---       #99
      ---         BLOCKEND  ---      ---       LVL=0

      00FF69EDH   BLOCK     CODE     ---       LVL=0
      WR4         REGSYM    ---      INT       ch
      WR2         REGSYM    ---      INT       resolution
      00FF69EDH   LINE      CODE     ---       #108
      00FF69F1H   LINE      CODE     ---       #110
      00FF69F4H   LINE      CODE     ---       #112
      00FF69F7H   LINE      CODE     ---       #113
L251 LINKER/LOCATER V4.66.93.0                                                        01/25/2026  01:33:53  PAGE 51


      00FF69FDH   LINE      CODE     ---       #115
      00FF6A09H   LINE      CODE     ---       #118
      00FF6A1EH   LINE      CODE     ---       #119
      00FF6A22H   LINE      CODE     ---       #120
      00FF6A24H   LINE      CODE     ---       #121
      00FF6A28H   LINE      CODE     ---       #124
      00FF6A3DH   LINE      CODE     ---       #125
      00FF6A41H   LINE      CODE     ---       #126
      00FF6A41H   LINE      CODE     ---       #128
      00FF6A44H   LINE      CODE     ---       #130
      00FF6A47H   LINE      CODE     ---       #132
      00FF6A4DH   LINE      CODE     ---       #133
      ---         BLOCKEND  ---      ---       LVL=0

      ---         MODULE    ---      ---       zf_driver_delay
      00FF6ECAH   PUBLIC    CODE     ---       system_delay_init
      00FF0046H   PUBLIC    CODE     ---       system_delay_ms
      000000D0H   SFRSYM    DATA     BYTE      PSW
      0000009DH   SFRSYM    DATA     BYTE      IRCBAND
      00000097H   SFRSYM    DATA     BYTE      AUXR2
      000000EFH   SFRSYM    DATA     BYTE      AUXINTIF
      000000FDH   SFRSYM    DATA     BYTE      S4CON
      000000ACH   SFRSYM    DATA     BYTE      S3CON
      0000009AH   SFRSYM    DATA     BYTE      S2CON
      000000B7H   SFRSYM    DATA     BYTE      IPH
      000000CDH   SFRSYM    DATA     BYTE      SPSTAT
      000000DDH   SFRSYM    DATA     BYTE      T4T3M
      000000C1H   SFRSYM    DATA     BYTE      WDT_CONTR
      000000DFH   SFRSYM    DATA     BYTE      IP3
      000000F4H   SFRSYM    DATA     BYTE      USBCON
      000000B5H   SFRSYM    DATA     BYTE      IP2
      000000FFH   SFRSYM    DATA     BYTE      RSTCFG
      000000C7H   SFRSYM    DATA     BYTE      IAP_CONTR
      000000F9H   SFRSYM    DATA     BYTE      LINICR
      0000008EH   SFRSYM    DATA     BYTE      AUXR
      000000AFH   SFRSYM    DATA     BYTE      IE2
      00000088H   SFRSYM    DATA     BYTE      TCON
      00000089H   SFRSYM    DATA     BYTE      TMOD
      00000098H   SFRSYM    DATA     BYTE      SCON
      000000F1H   SFRSYM    DATA     BYTE      CANICR
      00000087H   SFRSYM    DATA     BYTE      PCON
      000000BCH   SFRSYM    DATA     BYTE      ADC_CONTR
      000000E7H   SFRSYM    DATA     BYTE      CMPCR2
      000000E6H   SFRSYM    DATA     BYTE      CMPCR1
      000000DEH   SFRSYM    DATA     BYTE      ADCCFG
      000000B8H   SFRSYM    DATA     BYTE      IP
      0000008FH   SFRSYM    DATA     BYTE      INTCLKO
      000000EEH   SFRSYM    DATA     BYTE      IP3H
      000000B6H   SFRSYM    DATA     BYTE      IP2H
      000000A8H   SFRSYM    DATA     BYTE      IE
      000000BBH   SFRSYM    DATA     BYTE      P_SW3
      000000BAH   SFRSYM    DATA     BYTE      P_SW2
      000000A2H   SFRSYM    DATA     BYTE      P_SW1
      000000CEH   SFRSYM    DATA     BYTE      SPCTL
      000000F8H   SFRSYM    DATA     BYTE      P7
      000000E8H   SFRSYM    DATA     BYTE      P6
      000000C8H   SFRSYM    DATA     BYTE      P5
      000000C0H   SFRSYM    DATA     BYTE      P4
      000000B0H   SFRSYM    DATA     BYTE      P3
      000000A0H   SFRSYM    DATA     BYTE      P2
      00000090H   SFRSYM    DATA     BYTE      P1
      00000080H   SFRSYM    DATA     BYTE      P0
      00FF000EH   SYMBOL    CODE     ---       delay_cycles
      000109DAH   SYMBOL    XDATA    WORD      zf_delay_1ms
      000109DCH   SYMBOL    XDATA    WORD      zf_delay_1us
L251 LINKER/LOCATER V4.66.93.0                                                        01/25/2026  01:33:53  PAGE 52



      00FF000EH   BLOCK     CODE     ---       LVL=0
      WR6         REGSYM    ---      WORD      cycles
      00FF000EH   LINE      CODE     ---       #44
      00FF000EH   LINE      CODE     ---       #47
      00FF000EH   LINE      CODE     ---       #50
      00FF0018H   LINE      CODE     ---       #51
      ---         BLOCKEND  ---      ---       LVL=0

      00FF6ECAH   BLOCK     CODE     ---       LVL=0
      00FF6ECAH   LINE      CODE     ---       #59
      00FF6ECAH   LINE      CODE     ---       #61
      00FF6EE3H   LINE      CODE     ---       #62
      00FF6EF6H   LINE      CODE     ---       #63
      00FF6F0DH   LINE      CODE     ---       #64
      ---         BLOCKEND  ---      ---       LVL=0

      00FF0046H   BLOCK     CODE     ---       LVL=0
      WR14        REGSYM    ---      WORD      ms
      00FF0046H   LINE      CODE     ---       #72
      00FF004AH   LINE      CODE     ---       #74
      00FF004AH   LINE      CODE     ---       #76
      00FF0053H   LINE      CODE     ---       #77
      00FF005BH   LINE      CODE     ---       #78
      ---         BLOCKEND  ---      ---       LVL=0
      WR14        REGSYM    ---      WORD      us

      ---         MODULE    ---      ---       zf_driver_eeprom
      000000D0H   SFRSYM    DATA     BYTE      PSW
      0000009DH   SFRSYM    DATA     BYTE      IRCBAND
      00000097H   SFRSYM    DATA     BYTE      AUXR2
      000000C6H   SFRSYM    DATA     BYTE      IAP_TRIG
      000000EFH   SFRSYM    DATA     BYTE      AUXINTIF
      000000FDH   SFRSYM    DATA     BYTE      S4CON
      000000ACH   SFRSYM    DATA     BYTE      S3CON
      0000009AH   SFRSYM    DATA     BYTE      S2CON
      000000B7H   SFRSYM    DATA     BYTE      IPH
      000000CDH   SFRSYM    DATA     BYTE      SPSTAT
      000000DDH   SFRSYM    DATA     BYTE      T4T3M
      000000C1H   SFRSYM    DATA     BYTE      WDT_CONTR
      000000C2H   SFRSYM    DATA     BYTE      IAP_DATA
      000000DFH   SFRSYM    DATA     BYTE      IP3
      000000F4H   SFRSYM    DATA     BYTE      USBCON
      000000B5H   SFRSYM    DATA     BYTE      IP2
      000000FFH   SFRSYM    DATA     BYTE      RSTCFG
      000000C7H   SFRSYM    DATA     BYTE      IAP_CONTR
      000000F9H   SFRSYM    DATA     BYTE      LINICR
      0000008EH   SFRSYM    DATA     BYTE      AUXR
      000000AFH   SFRSYM    DATA     BYTE      IE2
      00000088H   SFRSYM    DATA     BYTE      TCON
      00000089H   SFRSYM    DATA     BYTE      TMOD
      00000098H   SFRSYM    DATA     BYTE      SCON
      000000F5H   SFRSYM    DATA     BYTE      IAP_TPS
      000000F1H   SFRSYM    DATA     BYTE      CANICR
      00000087H   SFRSYM    DATA     BYTE      PCON
      000000BCH   SFRSYM    DATA     BYTE      ADC_CONTR
      000000E7H   SFRSYM    DATA     BYTE      CMPCR2
      000000E6H   SFRSYM    DATA     BYTE      CMPCR1
      000000C4H   SFRSYM    DATA     BYTE      IAP_ADDRL
      000000C3H   SFRSYM    DATA     BYTE      IAP_ADDRH
      000000F6H   SFRSYM    DATA     BYTE      IAP_ADDRE
      000000DEH   SFRSYM    DATA     BYTE      ADCCFG
      000000B8H   SFRSYM    DATA     BYTE      IP
      0000008FH   SFRSYM    DATA     BYTE      INTCLKO
      000000EEH   SFRSYM    DATA     BYTE      IP3H
L251 LINKER/LOCATER V4.66.93.0                                                        01/25/2026  01:33:53  PAGE 53


      000000B6H   SFRSYM    DATA     BYTE      IP2H
      000000C5H   SFRSYM    DATA     BYTE      IAP_CMD
      000000A8H   SFRSYM    DATA     BYTE      IE
      000000BBH   SFRSYM    DATA     BYTE      P_SW3
      000000BAH   SFRSYM    DATA     BYTE      P_SW2
      000000A2H   SFRSYM    DATA     BYTE      P_SW1
      000000CEH   SFRSYM    DATA     BYTE      SPCTL
      000000F8H   SFRSYM    DATA     BYTE      P7
      000000A8H.7 SFRSYM    DATA     BIT       EA
      000000E8H   SFRSYM    DATA     BYTE      P6
      000000C8H   SFRSYM    DATA     BYTE      P5
      000000C0H   SFRSYM    DATA     BYTE      P4
      000000B0H   SFRSYM    DATA     BYTE      P3
      000000A0H   SFRSYM    DATA     BYTE      P2
      00000090H   SFRSYM    DATA     BYTE      P1
      00000080H   SFRSYM    DATA     BYTE      P0
      00FF7B85H   SYMBOL    HCONST   ---       ?tpl?0001
      R7          REGSYM    ---      BYTE      write_time
      DR4         REGSYM    ---      DWORD     addr
      R11         REGSYM    ---      BYTE      temp
      DR4         REGSYM    ---      DWORD     addr
      R15         REGSYM    ---      BYTE      byte
      REG=3       REGSYM    ---      ---       buf
      REG=3       REGSYM    ---      ---       buf
      DR0         REGSYM    ---      DWORD     addr
      REG=3       REGSYM    ---      ---       buf

      ---         MODULE    ---      ---       zf_driver_encoder
      00FF67E2H   PUBLIC    CODE     ---       encoder_get_count
      00FF5D97H   PUBLIC    CODE     ---       encoder_dir_init
      00FF6C65H   PUBLIC    CODE     ---       encoder_clear_count
      000000D0H   SFRSYM    DATA     BYTE      PSW
      0000009DH   SFRSYM    DATA     BYTE      IRCBAND
      00000097H   SFRSYM    DATA     BYTE      AUXR2
      000000EFH   SFRSYM    DATA     BYTE      AUXINTIF
      000000FDH   SFRSYM    DATA     BYTE      S4CON
      000000ACH   SFRSYM    DATA     BYTE      S3CON
      0000009AH   SFRSYM    DATA     BYTE      S2CON
      000000B7H   SFRSYM    DATA     BYTE      IPH
      000000CDH   SFRSYM    DATA     BYTE      SPSTAT
      000000DDH   SFRSYM    DATA     BYTE      T4T3M
      000000C1H   SFRSYM    DATA     BYTE      WDT_CONTR
      00000088H.6 SFRSYM    DATA     BIT       TR1
      00000088H.4 SFRSYM    DATA     BIT       TR0
      000000D3H   SFRSYM    DATA     BYTE      T4L
      000000D5H   SFRSYM    DATA     BYTE      T3L
      000000D7H   SFRSYM    DATA     BYTE      T2L
      0000008BH   SFRSYM    DATA     BYTE      TL1
      0000008AH   SFRSYM    DATA     BYTE      TL0
      000000D2H   SFRSYM    DATA     BYTE      T4H
      000000D4H   SFRSYM    DATA     BYTE      T3H
      000000D6H   SFRSYM    DATA     BYTE      T2H
      0000008DH   SFRSYM    DATA     BYTE      TH1
      0000008CH   SFRSYM    DATA     BYTE      TH0
      000000DFH   SFRSYM    DATA     BYTE      IP3
      000000F4H   SFRSYM    DATA     BYTE      USBCON
      000000B5H   SFRSYM    DATA     BYTE      IP2
      000000FFH   SFRSYM    DATA     BYTE      RSTCFG
      000000C7H   SFRSYM    DATA     BYTE      IAP_CONTR
      000000F9H   SFRSYM    DATA     BYTE      LINICR
      0000008EH   SFRSYM    DATA     BYTE      AUXR
      000000AFH   SFRSYM    DATA     BYTE      IE2
      00000088H   SFRSYM    DATA     BYTE      TCON
      00000089H   SFRSYM    DATA     BYTE      TMOD
      00000098H   SFRSYM    DATA     BYTE      SCON
L251 LINKER/LOCATER V4.66.93.0                                                        01/25/2026  01:33:53  PAGE 54


      000000F1H   SFRSYM    DATA     BYTE      CANICR
      00000087H   SFRSYM    DATA     BYTE      PCON
      000000BCH   SFRSYM    DATA     BYTE      ADC_CONTR
      000000E7H   SFRSYM    DATA     BYTE      CMPCR2
      000000E6H   SFRSYM    DATA     BYTE      CMPCR1
      000000DEH   SFRSYM    DATA     BYTE      ADCCFG
      000000B8H   SFRSYM    DATA     BYTE      IP
      0000008FH   SFRSYM    DATA     BYTE      INTCLKO
      000000EEH   SFRSYM    DATA     BYTE      IP3H
      000000B6H   SFRSYM    DATA     BYTE      IP2H
      000000A8H   SFRSYM    DATA     BYTE      IE
      000000BBH   SFRSYM    DATA     BYTE      P_SW3
      000000BAH   SFRSYM    DATA     BYTE      P_SW2
      000000A2H   SFRSYM    DATA     BYTE      P_SW1
      000000CEH   SFRSYM    DATA     BYTE      SPCTL
      000000F8H   SFRSYM    DATA     BYTE      P7
      000000E8H   SFRSYM    DATA     BYTE      P6
      000000C8H   SFRSYM    DATA     BYTE      P5
      000000C0H   SFRSYM    DATA     BYTE      P4
      000000B0H   SFRSYM    DATA     BYTE      P3
      000000A0H   SFRSYM    DATA     BYTE      P2
      00000090H   SFRSYM    DATA     BYTE      P1
      00000080H   SFRSYM    DATA     BYTE      P0
      000109D0H   SYMBOL    XDATA    ---       encoder_dir_pin

      00FF67E2H   BLOCK     CODE     ---       LVL=0
      WR2         REGSYM    ---      INT       encoder_n
      00FF67E6H   BLOCK     CODE     NEAR LAB  LVL=1
      WR14        REGSYM    ---      INT       dat
      ---         BLOCKEND  ---      ---       LVL=1
      00FF67E2H   LINE      CODE     ---       #47
      00FF67E6H   LINE      CODE     ---       #48
      00FF67E6H   LINE      CODE     ---       #49
      00FF67E8H   LINE      CODE     ---       #50
      00FF67FCH   LINE      CODE     ---       #52
      00FF67FCH   LINE      CODE     ---       #54
      00FF6802H   LINE      CODE     ---       #55
      00FF6804H   LINE      CODE     ---       #56
      00FF6806H   LINE      CODE     ---       #58
      00FF6806H   LINE      CODE     ---       #60
      00FF680CH   LINE      CODE     ---       #61
      00FF680EH   LINE      CODE     ---       #62
      00FF6810H   LINE      CODE     ---       #64
      00FF6810H   LINE      CODE     ---       #66
      00FF6816H   LINE      CODE     ---       #67
      00FF6818H   LINE      CODE     ---       #68
      00FF681AH   LINE      CODE     ---       #70
      00FF681AH   LINE      CODE     ---       #72
      00FF6820H   LINE      CODE     ---       #73
      00FF6822H   LINE      CODE     ---       #74
      00FF6824H   LINE      CODE     ---       #76
      00FF6824H   LINE      CODE     ---       #78
      00FF682AH   LINE      CODE     ---       #79
      00FF6830H   LINE      CODE     ---       #80
      00FF6830H   LINE      CODE     ---       #82
      00FF6830H   LINE      CODE     ---       #83
      00FF6844H   LINE      CODE     ---       #85
      00FF684AH   LINE      CODE     ---       #86
      00FF684AH   LINE      CODE     ---       #87
      00FF684CH   LINE      CODE     ---       #88
      ---         BLOCKEND  ---      ---       LVL=0

      00FF6C65H   BLOCK     CODE     ---       LVL=0
      WR6         REGSYM    ---      INT       encoder_n
      00FF6C65H   LINE      CODE     ---       #97
L251 LINKER/LOCATER V4.66.93.0                                                        01/25/2026  01:33:53  PAGE 55


      00FF6C65H   LINE      CODE     ---       #99
      00FF6C79H   LINE      CODE     ---       #101
      00FF6C79H   LINE      CODE     ---       #103
      00FF6C7BH   LINE      CODE     ---       #104
      00FF6C7EH   LINE      CODE     ---       #105
      00FF6C81H   LINE      CODE     ---       #106
      00FF6C83H   LINE      CODE     ---       #107
      00FF6C84H   LINE      CODE     ---       #109
      00FF6C84H   LINE      CODE     ---       #111
      00FF6C86H   LINE      CODE     ---       #112
      00FF6C89H   LINE      CODE     ---       #113
      00FF6C8CH   LINE      CODE     ---       #114
      00FF6C8EH   LINE      CODE     ---       #115
      00FF6C8FH   LINE      CODE     ---       #117
      00FF6C8FH   LINE      CODE     ---       #119
      00FF6C92H   LINE      CODE     ---       #120
      00FF6C95H   LINE      CODE     ---       #121
      00FF6C98H   LINE      CODE     ---       #122
      00FF6C9BH   LINE      CODE     ---       #123
      00FF6C9CH   LINE      CODE     ---       #125
      00FF6C9CH   LINE      CODE     ---       #127
      00FF6C9FH   LINE      CODE     ---       #128
      00FF6CA2H   LINE      CODE     ---       #129
      00FF6CA5H   LINE      CODE     ---       #130
      00FF6CA8H   LINE      CODE     ---       #131
      00FF6CA9H   LINE      CODE     ---       #133
      00FF6CA9H   LINE      CODE     ---       #135
      00FF6CACH   LINE      CODE     ---       #136
      00FF6CAFH   LINE      CODE     ---       #137
      00FF6CB2H   LINE      CODE     ---       #138
      00FF6CB5H   LINE      CODE     ---       #139
      00FF6CB5H   LINE      CODE     ---       #141
      00FF6CB5H   LINE      CODE     ---       #142
      ---         BLOCKEND  ---      ---       LVL=0

      00FF5D97H   BLOCK     CODE     ---       LVL=0
      WR14        REGSYM    ---      INT       encoder_n
      WR12        REGSYM    ---      INT       dir_pin
      0001063BH   SYMBOL    XDATA    INT       lsb_pin
      00FF5D97H   LINE      CODE     ---       #154
      00FF5DA3H   LINE      CODE     ---       #160
      00FF5DB9H   LINE      CODE     ---       #161
      00FF5DD3H   LINE      CODE     ---       #162
      00FF5DF3H   LINE      CODE     ---       #164
      00FF5DFFH   LINE      CODE     ---       #165
      00FF5E11H   LINE      CODE     ---       #166
      00FF5E20H   LINE      CODE     ---       #167
      00FF5E34H   LINE      CODE     ---       #169
      00FF5E34H   LINE      CODE     ---       #171
      00FF5E37H   LINE      CODE     ---       #172
      00FF5E3AH   LINE      CODE     ---       #173
      00FF5E3DH   LINE      CODE     ---       #174
      00FF5E3FH   LINE      CODE     ---       #175
      00FF5E41H   LINE      CODE     ---       #177
      00FF5E41H   LINE      CODE     ---       #179
      00FF5E44H   LINE      CODE     ---       #180
      00FF5E47H   LINE      CODE     ---       #181
      00FF5E4AH   LINE      CODE     ---       #182
      00FF5E4CH   LINE      CODE     ---       #183
      00FF5E4EH   LINE      CODE     ---       #185
      00FF5E4EH   LINE      CODE     ---       #187
      00FF5E51H   LINE      CODE     ---       #188
      00FF5E54H   LINE      CODE     ---       #189
      00FF5E57H   LINE      CODE     ---       #190
      00FF5E59H   LINE      CODE     ---       #192
L251 LINKER/LOCATER V4.66.93.0                                                        01/25/2026  01:33:53  PAGE 56


      00FF5E59H   LINE      CODE     ---       #194
      00FF5E5CH   LINE      CODE     ---       #195
      00FF5E5FH   LINE      CODE     ---       #196
      00FF5E62H   LINE      CODE     ---       #197
      00FF5E64H   LINE      CODE     ---       #199
      00FF5E64H   LINE      CODE     ---       #201
      00FF5E67H   LINE      CODE     ---       #202
      00FF5E6AH   LINE      CODE     ---       #203
      00FF5E6DH   LINE      CODE     ---       #204
      00FF5E6DH   LINE      CODE     ---       #206
      00FF5E6DH   LINE      CODE     ---       #207
      ---         BLOCKEND  ---      ---       LVL=0

      ---         MODULE    ---      ---       zf_driver_exti
      000000D0H   SFRSYM    DATA     BYTE      PSW
      0000009DH   SFRSYM    DATA     BYTE      IRCBAND
      00000097H   SFRSYM    DATA     BYTE      AUXR2
      000000EFH   SFRSYM    DATA     BYTE      AUXINTIF
      000000FDH   SFRSYM    DATA     BYTE      S4CON
      000000ACH   SFRSYM    DATA     BYTE      S3CON
      0000009AH   SFRSYM    DATA     BYTE      S2CON
      000000B7H   SFRSYM    DATA     BYTE      IPH
      000000CDH   SFRSYM    DATA     BYTE      SPSTAT
      000000DDH   SFRSYM    DATA     BYTE      T4T3M
      000000C1H   SFRSYM    DATA     BYTE      WDT_CONTR
      000000DFH   SFRSYM    DATA     BYTE      IP3
      000000F4H   SFRSYM    DATA     BYTE      USBCON
      000000B5H   SFRSYM    DATA     BYTE      IP2
      000000FFH   SFRSYM    DATA     BYTE      RSTCFG
      000000C7H   SFRSYM    DATA     BYTE      IAP_CONTR
      000000F9H   SFRSYM    DATA     BYTE      LINICR
      0000008EH   SFRSYM    DATA     BYTE      AUXR
      000000AFH   SFRSYM    DATA     BYTE      IE2
      00000088H   SFRSYM    DATA     BYTE      TCON
      00000089H   SFRSYM    DATA     BYTE      TMOD
      00000098H   SFRSYM    DATA     BYTE      SCON
      000000F1H   SFRSYM    DATA     BYTE      CANICR
      00000087H   SFRSYM    DATA     BYTE      PCON
      000000BCH   SFRSYM    DATA     BYTE      ADC_CONTR
      000000E7H   SFRSYM    DATA     BYTE      CMPCR2
      000000E6H   SFRSYM    DATA     BYTE      CMPCR1
      000000DEH   SFRSYM    DATA     BYTE      ADCCFG
      000000B8H   SFRSYM    DATA     BYTE      IP
      0000008FH   SFRSYM    DATA     BYTE      INTCLKO
      000000EEH   SFRSYM    DATA     BYTE      IP3H
      000000B6H   SFRSYM    DATA     BYTE      IP2H
      000000A8H   SFRSYM    DATA     BYTE      IE
      000000BBH   SFRSYM    DATA     BYTE      P_SW3
      000000BAH   SFRSYM    DATA     BYTE      P_SW2
      000000A2H   SFRSYM    DATA     BYTE      P_SW1
      000000CEH   SFRSYM    DATA     BYTE      SPCTL
      000000F8H   SFRSYM    DATA     BYTE      P7
      000000E8H   SFRSYM    DATA     BYTE      P6
      000000C8H   SFRSYM    DATA     BYTE      P5
      000000C0H   SFRSYM    DATA     BYTE      P4
      000000B0H   SFRSYM    DATA     BYTE      P3
      000000A0H   SFRSYM    DATA     BYTE      P2
      00000090H   SFRSYM    DATA     BYTE      P1
      00000080H   SFRSYM    DATA     BYTE      P0

      ---         MODULE    ---      ---       zf_driver_gpio
      00FF6090H   PUBLIC    CODE     ---       gpio_init
      00FF59DCH   PUBLIC    CODE     ---       gpio_get_level
      00FF4DCDH   PUBLIC    CODE     ---       gpio_set_level
      00FF5BCDH   PUBLIC    CODE     ---       gpio_set_impedance
L251 LINKER/LOCATER V4.66.93.0                                                        01/25/2026  01:33:53  PAGE 57


      00000094H   SFRSYM    DATA     BYTE      P0M0
      000000D0H   SFRSYM    DATA     BYTE      PSW
      0000009DH   SFRSYM    DATA     BYTE      IRCBAND
      00000097H   SFRSYM    DATA     BYTE      AUXR2
      000000EFH   SFRSYM    DATA     BYTE      AUXINTIF
      000000FDH   SFRSYM    DATA     BYTE      S4CON
      000000ACH   SFRSYM    DATA     BYTE      S3CON
      0000009AH   SFRSYM    DATA     BYTE      S2CON
      000000B7H   SFRSYM    DATA     BYTE      IPH
      000000CDH   SFRSYM    DATA     BYTE      SPSTAT
      000000DDH   SFRSYM    DATA     BYTE      T4T3M
      000000C1H   SFRSYM    DATA     BYTE      WDT_CONTR
      000000DFH   SFRSYM    DATA     BYTE      IP3
      000000F4H   SFRSYM    DATA     BYTE      USBCON
      000000B5H   SFRSYM    DATA     BYTE      IP2
      000000FFH   SFRSYM    DATA     BYTE      RSTCFG
      000000C7H   SFRSYM    DATA     BYTE      IAP_CONTR
      000000F9H   SFRSYM    DATA     BYTE      LINICR
      0000008EH   SFRSYM    DATA     BYTE      AUXR
      000000AFH   SFRSYM    DATA     BYTE      IE2
      00000088H   SFRSYM    DATA     BYTE      TCON
      00000089H   SFRSYM    DATA     BYTE      TMOD
      00000098H   SFRSYM    DATA     BYTE      SCON
      000000F1H   SFRSYM    DATA     BYTE      CANICR
      00000087H   SFRSYM    DATA     BYTE      PCON
      000000BCH   SFRSYM    DATA     BYTE      ADC_CONTR
      000000E7H   SFRSYM    DATA     BYTE      CMPCR2
      000000E6H   SFRSYM    DATA     BYTE      CMPCR1
      000000DEH   SFRSYM    DATA     BYTE      ADCCFG
      000000B8H   SFRSYM    DATA     BYTE      IP
      0000008FH   SFRSYM    DATA     BYTE      INTCLKO
      000000EEH   SFRSYM    DATA     BYTE      IP3H
      000000B6H   SFRSYM    DATA     BYTE      IP2H
      000000A8H   SFRSYM    DATA     BYTE      IE
      000000BBH   SFRSYM    DATA     BYTE      P_SW3
      000000BAH   SFRSYM    DATA     BYTE      P_SW2
      000000A2H   SFRSYM    DATA     BYTE      P_SW1
      000000CEH   SFRSYM    DATA     BYTE      SPCTL
      000000F8H   SFRSYM    DATA     BYTE      P7
      000000E1H   SFRSYM    DATA     BYTE      P7M1
      000000E8H   SFRSYM    DATA     BYTE      P6
      000000C8H   SFRSYM    DATA     BYTE      P5
      000000CBH   SFRSYM    DATA     BYTE      P6M1
      000000E2H   SFRSYM    DATA     BYTE      P7M0
      000000C0H   SFRSYM    DATA     BYTE      P4
      000000C9H   SFRSYM    DATA     BYTE      P5M1
      000000CCH   SFRSYM    DATA     BYTE      P6M0
      000000B0H   SFRSYM    DATA     BYTE      P3
      000000B3H   SFRSYM    DATA     BYTE      P4M1
      000000CAH   SFRSYM    DATA     BYTE      P5M0
      000000A0H   SFRSYM    DATA     BYTE      P2
      000000B1H   SFRSYM    DATA     BYTE      P3M1
      000000B4H   SFRSYM    DATA     BYTE      P4M0
      00000090H   SFRSYM    DATA     BYTE      P1
      00000095H   SFRSYM    DATA     BYTE      P2M1
      000000B2H   SFRSYM    DATA     BYTE      P3M0
      00000080H   SFRSYM    DATA     BYTE      P0
      00000091H   SFRSYM    DATA     BYTE      P1M1
      00000096H   SFRSYM    DATA     BYTE      P2M0
      00000092H   SFRSYM    DATA     BYTE      P1M0
      00000093H   SFRSYM    DATA     BYTE      P0M1
      00FF4309H   SYMBOL    CODE     ---       gpio_set_dir
      00FF4F5DH   SYMBOL    CODE     ---       gpio_set_mode

      00FF4F5DH   BLOCK     CODE     ---       LVL=0
L251 LINKER/LOCATER V4.66.93.0                                                        01/25/2026  01:33:53  PAGE 58


      WR4         REGSYM    ---      INT       pin
      WR2         REGSYM    ---      INT       mode
      00FF4F5DH   LINE      CODE     ---       #42
      00FF4F61H   LINE      CODE     ---       #47
      00FF4F6DH   LINE      CODE     ---       #49
      00FF4F99H   LINE      CODE     ---       #51
      00FF4F9BH   LINE      CODE     ---       #56
      00FF4FA7H   LINE      CODE     ---       #58
      00FF4FD4H   LINE      CODE     ---       #59
      00FF4FD5H   LINE      CODE     ---       #60
      00FF4FDEH   LINE      CODE     ---       #63
      00FF5020H   LINE      CODE     ---       #65
      00FF5020H   LINE      CODE     ---       #66
      00FF5033H   LINE      CODE     ---       #67
      00FF5035H   LINE      CODE     ---       #68
      00FF5036H   LINE      CODE     ---       #69
      00FF5036H   LINE      CODE     ---       #70
      00FF5049H   LINE      CODE     ---       #71
      00FF504BH   LINE      CODE     ---       #72
      00FF504CH   LINE      CODE     ---       #73
      00FF504CH   LINE      CODE     ---       #74
      00FF505FH   LINE      CODE     ---       #75
      00FF5061H   LINE      CODE     ---       #76
      00FF5062H   LINE      CODE     ---       #77
      00FF5062H   LINE      CODE     ---       #78
      00FF5075H   LINE      CODE     ---       #79
      00FF5077H   LINE      CODE     ---       #80
      00FF5078H   LINE      CODE     ---       #81
      00FF5078H   LINE      CODE     ---       #82
      00FF508BH   LINE      CODE     ---       #83
      00FF508DH   LINE      CODE     ---       #84
      00FF508EH   LINE      CODE     ---       #85
      00FF508EH   LINE      CODE     ---       #86
      00FF50A1H   LINE      CODE     ---       #87
      00FF50A3H   LINE      CODE     ---       #88
      00FF50A4H   LINE      CODE     ---       #89
      00FF50A4H   LINE      CODE     ---       #90
      00FF50B7H   LINE      CODE     ---       #91
      00FF50B9H   LINE      CODE     ---       #92
      00FF50BAH   LINE      CODE     ---       #93
      00FF50BAH   LINE      CODE     ---       #94
      00FF50CDH   LINE      CODE     ---       #95
      00FF50CFH   LINE      CODE     ---       #96
      00FF50CFH   LINE      CODE     ---       #97
      00FF50CFH   LINE      CODE     ---       #98
      00FF50CFH   LINE      CODE     ---       #99
      00FF50CFH   LINE      CODE     ---       #100
      00FF50CFH   LINE      CODE     ---       #104
      00FF50CFH   LINE      CODE     ---       #105
      ---         BLOCKEND  ---      ---       LVL=0
      WR6         REGSYM    ---      INT       pin
      WR4         REGSYM    ---      INT       speed
      R10         REGSYM    ---      BYTE      pin_bit
      R11         REGSYM    ---      BYTE      port_flag

      00FF4309H   BLOCK     CODE     ---       LVL=0
      WR4         REGSYM    ---      INT       pin
      WR2         REGSYM    ---      INT       dir
      00FF4309H   LINE      CODE     ---       #150
      00FF430DH   LINE      CODE     ---       #152
      00FF4359H   LINE      CODE     ---       #154
      00FF4359H   LINE      CODE     ---       #156
      00FF4363H   LINE      CODE     ---       #158
      00FF437BH   LINE      CODE     ---       #159
      00FF437DH   LINE      CODE     ---       #160
L251 LINKER/LOCATER V4.66.93.0                                                        01/25/2026  01:33:53  PAGE 59


      00FF437EH   LINE      CODE     ---       #166
      00FF4387H   LINE      CODE     ---       #168
      00FF439CH   LINE      CODE     ---       #169
      00FF43A0H   LINE      CODE     ---       #170
      00FF43A0H   LINE      CODE     ---       #172
      00FF43A1H   LINE      CODE     ---       #174
      00FF43A1H   LINE      CODE     ---       #176
      00FF43ABH   LINE      CODE     ---       #178
      00FF43C3H   LINE      CODE     ---       #179
      00FF43C5H   LINE      CODE     ---       #180
      00FF43C6H   LINE      CODE     ---       #186
      00FF43CFH   LINE      CODE     ---       #188
      00FF43E4H   LINE      CODE     ---       #189
      00FF43E8H   LINE      CODE     ---       #190
      00FF43E8H   LINE      CODE     ---       #192
      00FF43E9H   LINE      CODE     ---       #194
      00FF43E9H   LINE      CODE     ---       #196
      00FF43F3H   LINE      CODE     ---       #198
      00FF440BH   LINE      CODE     ---       #199
      00FF440DH   LINE      CODE     ---       #200
      00FF440EH   LINE      CODE     ---       #206
      00FF4417H   LINE      CODE     ---       #208
      00FF442CH   LINE      CODE     ---       #209
      00FF4430H   LINE      CODE     ---       #210
      00FF4430H   LINE      CODE     ---       #212
      00FF4431H   LINE      CODE     ---       #214
      00FF4431H   LINE      CODE     ---       #216
      00FF443BH   LINE      CODE     ---       #218
      00FF4453H   LINE      CODE     ---       #219
      00FF4455H   LINE      CODE     ---       #220
      00FF4456H   LINE      CODE     ---       #226
      00FF445FH   LINE      CODE     ---       #228
      00FF4474H   LINE      CODE     ---       #229
      00FF4478H   LINE      CODE     ---       #230
      00FF4478H   LINE      CODE     ---       #232
      00FF4479H   LINE      CODE     ---       #234
      00FF4479H   LINE      CODE     ---       #236
      00FF4483H   LINE      CODE     ---       #238
      00FF449BH   LINE      CODE     ---       #239
      00FF449DH   LINE      CODE     ---       #240
      00FF449EH   LINE      CODE     ---       #246
      00FF44A7H   LINE      CODE     ---       #248
      00FF44BCH   LINE      CODE     ---       #249
      00FF44C0H   LINE      CODE     ---       #250
      00FF44C0H   LINE      CODE     ---       #252
      00FF44C1H   LINE      CODE     ---       #254
      00FF44C1H   LINE      CODE     ---       #256
      00FF44CBH   LINE      CODE     ---       #258
      00FF44E3H   LINE      CODE     ---       #259
      00FF44E5H   LINE      CODE     ---       #260
      00FF44E6H   LINE      CODE     ---       #266
      00FF44EFH   LINE      CODE     ---       #268
      00FF4504H   LINE      CODE     ---       #269
      00FF4508H   LINE      CODE     ---       #270
      00FF4508H   LINE      CODE     ---       #272
      00FF4509H   LINE      CODE     ---       #274
      00FF4509H   LINE      CODE     ---       #276
      00FF4513H   LINE      CODE     ---       #278
      00FF452BH   LINE      CODE     ---       #279
      00FF452DH   LINE      CODE     ---       #280
      00FF452EH   LINE      CODE     ---       #286
      00FF4534H   LINE      CODE     ---       #288
      00FF4549H   LINE      CODE     ---       #289
      00FF454DH   LINE      CODE     ---       #290
      00FF454DH   LINE      CODE     ---       #292
L251 LINKER/LOCATER V4.66.93.0                                                        01/25/2026  01:33:53  PAGE 60


      00FF454EH   LINE      CODE     ---       #294
      00FF454EH   LINE      CODE     ---       #296
      00FF4558H   LINE      CODE     ---       #298
      00FF4570H   LINE      CODE     ---       #299
      00FF4572H   LINE      CODE     ---       #300
      00FF4573H   LINE      CODE     ---       #306
      00FF4579H   LINE      CODE     ---       #308
      00FF458EH   LINE      CODE     ---       #309
      00FF4592H   LINE      CODE     ---       #310
      00FF4592H   LINE      CODE     ---       #313
      00FF4593H   LINE      CODE     ---       #315
      00FF4593H   LINE      CODE     ---       #317
      00FF45A3H   LINE      CODE     ---       #319
      00FF45A3H   LINE      CODE     ---       #320
      00FF45A3H   LINE      CODE     ---       #321
      ---         BLOCKEND  ---      ---       LVL=0

      00FF59DCH   BLOCK     CODE     ---       LVL=0
      WR6         REGSYM    ---      INT       pin
      R5          REGSYM    ---      BYTE      pin_bit
      R4          REGSYM    ---      BYTE      port_flag
      R10         REGSYM    ---      BYTE      status
      00FF59DCH   LINE      CODE     ---       #329
      00FF59DCH   LINE      CODE     ---       #330
      00FF59DCH   LINE      CODE     ---       #331
      00FF59E3H   LINE      CODE     ---       #332
      00FF59E6H   LINE      CODE     ---       #333
      00FF59E8H   LINE      CODE     ---       #336
      00FF5A1CH   LINE      CODE     ---       #338
      00FF5A33H   LINE      CODE     ---       #339
      00FF5A4AH   LINE      CODE     ---       #340
      00FF5A60H   LINE      CODE     ---       #341
      00FF5A76H   LINE      CODE     ---       #342
      00FF5A8CH   LINE      CODE     ---       #343
      00FF5AA2H   LINE      CODE     ---       #344
      00FF5AB8H   LINE      CODE     ---       #345
      00FF5ACCH   LINE      CODE     ---       #346
      00FF5ACCH   LINE      CODE     ---       #347
      00FF5ACCH   LINE      CODE     ---       #349
      00FF5AD4H   LINE      CODE     ---       #350
      ---         BLOCKEND  ---      ---       LVL=0

      00FF4DCDH   BLOCK     CODE     ---       LVL=0
      WR6         REGSYM    ---      INT       pin
      R5          REGSYM    ---      BYTE      dat
      00FF4DCFH   BLOCK     CODE     NEAR LAB  LVL=1
      R4          REGSYM    ---      BYTE      pin_bit
      R11         REGSYM    ---      BYTE      port_flag
      ---         BLOCKEND  ---      ---       LVL=1
      00FF4DCDH   LINE      CODE     ---       #359
      00FF4DCFH   LINE      CODE     ---       #360
      00FF4DCFH   LINE      CODE     ---       #361
      00FF4DD4H   LINE      CODE     ---       #362
      00FF4DD8H   LINE      CODE     ---       #365
      00FF4E0DH   LINE      CODE     ---       #367
      00FF4E37H   LINE      CODE     ---       #368
      00FF4E61H   LINE      CODE     ---       #369
      00FF4E8BH   LINE      CODE     ---       #370
      00FF4EB5H   LINE      CODE     ---       #371
      00FF4EDFH   LINE      CODE     ---       #372
      00FF4F09H   LINE      CODE     ---       #373
      00FF4F33H   LINE      CODE     ---       #374
      00FF4F5CH   LINE      CODE     ---       #375
      00FF4F5CH   LINE      CODE     ---       #376
      00FF4F5CH   LINE      CODE     ---       #377
L251 LINKER/LOCATER V4.66.93.0                                                        01/25/2026  01:33:53  PAGE 61


      ---         BLOCKEND  ---      ---       LVL=0
      WR14        REGSYM    ---      INT       pin

      00FF5BCDH   BLOCK     CODE     ---       LVL=0
      WR6         REGSYM    ---      INT       pin
      R10         REGSYM    ---      BYTE      pin_bit
      R11         REGSYM    ---      BYTE      port_flag
      00FF5BCDH   LINE      CODE     ---       #397
      00FF5BCDH   LINE      CODE     ---       #398
      00FF5BCDH   LINE      CODE     ---       #399
      00FF5BD2H   LINE      CODE     ---       #400
      00FF5BD6H   LINE      CODE     ---       #403
      00FF5C02H   LINE      CODE     ---       #405
      00FF5C18H   LINE      CODE     ---       #406
      00FF5C2EH   LINE      CODE     ---       #407
      00FF5C44H   LINE      CODE     ---       #408
      00FF5C5AH   LINE      CODE     ---       #409
      00FF5C70H   LINE      CODE     ---       #410
      00FF5C86H   LINE      CODE     ---       #411
      00FF5C9CH   LINE      CODE     ---       #412
      00FF5CB1H   LINE      CODE     ---       #413
      00FF5CB1H   LINE      CODE     ---       #414
      00FF5CB1H   LINE      CODE     ---       #415
      ---         BLOCKEND  ---      ---       LVL=0

      00FF6090H   BLOCK     CODE     ---       LVL=0
      WR14        REGSYM    ---      INT       pin
      00010649H   SYMBOL    XDATA    INT       dir
      0001064BH   SYMBOL    XDATA    BYTE      dat
      WR12        REGSYM    ---      INT       mode
      00FF6090H   LINE      CODE     ---       #426
      00FF60A0H   LINE      CODE     ---       #428
      00FF60C8H   LINE      CODE     ---       #430
      00FF60D4H   LINE      CODE     ---       #432
      00FF60DAH   LINE      CODE     ---       #433
      00FF60DAH   LINE      CODE     ---       #434
      00FF60DCH   LINE      CODE     ---       #435
      00FF60E6H   LINE      CODE     ---       #437
      00FF60EAH   LINE      CODE     ---       #439
      00FF60EFH   LINE      CODE     ---       #440
      00FF60F1H   LINE      CODE     ---       #443
      00FF60F8H   LINE      CODE     ---       #444
      00FF60FCH   LINE      CODE     ---       #445
      00FF60FCH   LINE      CODE     ---       #446
      00FF60FEH   LINE      CODE     ---       #447
      00FF610AH   LINE      CODE     ---       #449
      00FF6110H   LINE      CODE     ---       #451
      00FF6119H   LINE      CODE     ---       #452
      00FF611FH   LINE      CODE     ---       #453
      00FF6121H   LINE      CODE     ---       #454
      00FF6127H   LINE      CODE     ---       #456
      00FF6130H   LINE      CODE     ---       #457
      00FF6130H   LINE      CODE     ---       #459
      00FF6139H   LINE      CODE     ---       #460
      ---         BLOCKEND  ---      ---       LVL=0

      ---         MODULE    ---      ---       zf_driver_pit
      00FF50D0H   PUBLIC    CODE     ---       pit_init
      000000D0H   SFRSYM    DATA     BYTE      PSW
      0000009DH   SFRSYM    DATA     BYTE      IRCBAND
      00000097H   SFRSYM    DATA     BYTE      AUXR2
      000000EFH   SFRSYM    DATA     BYTE      AUXINTIF
      000000FDH   SFRSYM    DATA     BYTE      S4CON
      000000ACH   SFRSYM    DATA     BYTE      S3CON
      0000009AH   SFRSYM    DATA     BYTE      S2CON
L251 LINKER/LOCATER V4.66.93.0                                                        01/25/2026  01:33:53  PAGE 62


      000000B7H   SFRSYM    DATA     BYTE      IPH
      000000CDH   SFRSYM    DATA     BYTE      SPSTAT
      000000DDH   SFRSYM    DATA     BYTE      T4T3M
      000000C1H   SFRSYM    DATA     BYTE      WDT_CONTR
      00000088H.6 SFRSYM    DATA     BIT       TR1
      00000088H.4 SFRSYM    DATA     BIT       TR0
      000000D3H   SFRSYM    DATA     BYTE      T4L
      000000D5H   SFRSYM    DATA     BYTE      T3L
      000000D7H   SFRSYM    DATA     BYTE      T2L
      0000008BH   SFRSYM    DATA     BYTE      TL1
      0000008AH   SFRSYM    DATA     BYTE      TL0
      000000D2H   SFRSYM    DATA     BYTE      T4H
      000000D4H   SFRSYM    DATA     BYTE      T3H
      000000D6H   SFRSYM    DATA     BYTE      T2H
      0000008DH   SFRSYM    DATA     BYTE      TH1
      0000008CH   SFRSYM    DATA     BYTE      TH0
      000000DFH   SFRSYM    DATA     BYTE      IP3
      000000F4H   SFRSYM    DATA     BYTE      USBCON
      000000B5H   SFRSYM    DATA     BYTE      IP2
      000000FFH   SFRSYM    DATA     BYTE      RSTCFG
      000000A8H.3 SFRSYM    DATA     BIT       ET1
      000000A8H.1 SFRSYM    DATA     BIT       ET0
      000000C7H   SFRSYM    DATA     BYTE      IAP_CONTR
      000000F9H   SFRSYM    DATA     BYTE      LINICR
      0000008EH   SFRSYM    DATA     BYTE      AUXR
      000000AFH   SFRSYM    DATA     BYTE      IE2
      00000088H   SFRSYM    DATA     BYTE      TCON
      00000089H   SFRSYM    DATA     BYTE      TMOD
      00000098H   SFRSYM    DATA     BYTE      SCON
      000000F1H   SFRSYM    DATA     BYTE      CANICR
      00000087H   SFRSYM    DATA     BYTE      PCON
      000000BCH   SFRSYM    DATA     BYTE      ADC_CONTR
      000000E7H   SFRSYM    DATA     BYTE      CMPCR2
      000000E6H   SFRSYM    DATA     BYTE      CMPCR1
      000000DEH   SFRSYM    DATA     BYTE      ADCCFG
      000000B8H   SFRSYM    DATA     BYTE      IP
      0000008FH   SFRSYM    DATA     BYTE      INTCLKO
      000000EEH   SFRSYM    DATA     BYTE      IP3H
      000000B6H   SFRSYM    DATA     BYTE      IP2H
      000000A8H   SFRSYM    DATA     BYTE      IE
      000000BBH   SFRSYM    DATA     BYTE      P_SW3
      000000BAH   SFRSYM    DATA     BYTE      P_SW2
      000000A2H   SFRSYM    DATA     BYTE      P_SW1
      000000CEH   SFRSYM    DATA     BYTE      SPCTL
      000000F8H   SFRSYM    DATA     BYTE      P7
      000000E8H   SFRSYM    DATA     BYTE      P6
      000000C8H   SFRSYM    DATA     BYTE      P5
      000000C0H   SFRSYM    DATA     BYTE      P4
      000000B0H   SFRSYM    DATA     BYTE      P3
      000000A0H   SFRSYM    DATA     BYTE      P2
      00000090H   SFRSYM    DATA     BYTE      P1
      00000080H   SFRSYM    DATA     BYTE      P0

      00FF50D0H   BLOCK     CODE     ---       LVL=0
      WR30        REGSYM    ---      INT       pit_n
      DR24        REGSYM    ---      DWORD     period
      00FF50D6H   BLOCK     CODE     NEAR LAB  LVL=1
      R15         REGSYM    ---      BYTE      freq_div
      WR28        REGSYM    ---      WORD      period_temp
      WR28        REGSYM    ---      WORD      temp
      ---         BLOCKEND  ---      ---       LVL=1
      00FF50D0H   LINE      CODE     ---       #50
      00FF50D6H   LINE      CODE     ---       #51
      00FF50D6H   LINE      CODE     ---       #52
      00FF50D6H   LINE      CODE     ---       #53
L251 LINKER/LOCATER V4.66.93.0                                                        01/25/2026  01:33:53  PAGE 63


      00FF50D6H   LINE      CODE     ---       #54
      00FF50D6H   LINE      CODE     ---       #57
      00FF50E2H   LINE      CODE     ---       #60
      00FF50EDH   LINE      CODE     ---       #62
      00FF50F1H   LINE      CODE     ---       #64
      00FF50F4H   LINE      CODE     ---       #65
      00FF50F6H   LINE      CODE     ---       #66
      00FF50FCH   LINE      CODE     ---       #68
      00FF50FFH   LINE      CODE     ---       #69
      00FF5101H   LINE      CODE     ---       #70
      00FF5107H   LINE      CODE     ---       #72
      00FF510AH   LINE      CODE     ---       #73
      00FF510CH   LINE      CODE     ---       #74
      00FF5112H   LINE      CODE     ---       #76
      00FF5115H   LINE      CODE     ---       #77
      00FF5117H   LINE      CODE     ---       #78
      00FF511DH   LINE      CODE     ---       #80
      00FF5120H   LINE      CODE     ---       #81
      00FF5122H   LINE      CODE     ---       #88
      00FF5126H   LINE      CODE     ---       #90
      00FF5129H   LINE      CODE     ---       #91
      00FF512BH   LINE      CODE     ---       #92
      00FF5131H   LINE      CODE     ---       #94
      00FF5134H   LINE      CODE     ---       #95
      00FF5136H   LINE      CODE     ---       #96
      00FF513CH   LINE      CODE     ---       #98
      00FF513FH   LINE      CODE     ---       #99
      00FF5141H   LINE      CODE     ---       #100
      00FF5147H   LINE      CODE     ---       #102
      00FF514AH   LINE      CODE     ---       #103
      00FF514CH   LINE      CODE     ---       #104
      00FF5152H   LINE      CODE     ---       #106
      00FF5155H   LINE      CODE     ---       #107
      00FF5155H   LINE      CODE     ---       #112
      00FF5165H   LINE      CODE     ---       #113
      00FF5172H   LINE      CODE     ---       #115
      00FF5178H   LINE      CODE     ---       #117
      00FF517CH   LINE      CODE     ---       #119
      00FF5187H   LINE      CODE     ---       #120
      00FF518BH   LINE      CODE     ---       #121
      00FF5191H   LINE      CODE     ---       #122
      00FF5195H   LINE      CODE     ---       #123
      00FF5197H   LINE      CODE     ---       #124
      00FF5199H   LINE      CODE     ---       #125
      00FF519CH   LINE      CODE     ---       #126
      00FF51A2H   LINE      CODE     ---       #128
      00FF51ADH   LINE      CODE     ---       #129
      00FF51B1H   LINE      CODE     ---       #130
      00FF51B7H   LINE      CODE     ---       #131
      00FF51BBH   LINE      CODE     ---       #132
      00FF51BDH   LINE      CODE     ---       #133
      00FF51BFH   LINE      CODE     ---       #134
      00FF51C1H   LINE      CODE     ---       #135
      00FF51C7H   LINE      CODE     ---       #137
      00FF51D2H   LINE      CODE     ---       #138
      00FF51D8H   LINE      CODE     ---       #139
      00FF51DCH   LINE      CODE     ---       #140
      00FF51DFH   LINE      CODE     ---       #141
      00FF51E2H   LINE      CODE     ---       #142
      00FF51E4H   LINE      CODE     ---       #143
      00FF51EAH   LINE      CODE     ---       #145
      00FF51F5H   LINE      CODE     ---       #146
      00FF51FBH   LINE      CODE     ---       #147
      00FF51FFH   LINE      CODE     ---       #148
      00FF5202H   LINE      CODE     ---       #149
L251 LINKER/LOCATER V4.66.93.0                                                        01/25/2026  01:33:53  PAGE 64


      00FF5205H   LINE      CODE     ---       #150
      00FF5207H   LINE      CODE     ---       #151
      00FF520DH   LINE      CODE     ---       #153
      00FF5218H   LINE      CODE     ---       #154
      00FF521EH   LINE      CODE     ---       #155
      00FF5222H   LINE      CODE     ---       #156
      00FF5225H   LINE      CODE     ---       #157
      00FF5228H   LINE      CODE     ---       #158
      ---         BLOCKEND  ---      ---       LVL=0

      ---         MODULE    ---      ---       zf_driver_pwm
      00FF819BH   PUBLIC    HCONST   ---       PWM_PSCR_ADDR
      00FF81A3H   PUBLIC    HCONST   ---       PWM_CCR_ADDR
      00FF81C3H   PUBLIC    HCONST   ---       PWM_ARR_ADDR
      00FF81CBH   PUBLIC    HCONST   ---       PWM_CCER_ADDR
      00FF81DBH   PUBLIC    HCONST   ---       PWM_CCMR_ADDR
      00FF55B0H   PUBLIC    CODE     ---       pwm_set_duty
      00FF3C17H   PUBLIC    CODE     ---       pwm_init
      00010639H   PUBLIC    XDATA    BYTE      ?pwm_init?BYTE
      000000D0H   SFRSYM    DATA     BYTE      PSW
      0000009DH   SFRSYM    DATA     BYTE      IRCBAND
      00000097H   SFRSYM    DATA     BYTE      AUXR2
      000000EFH   SFRSYM    DATA     BYTE      AUXINTIF
      000000FDH   SFRSYM    DATA     BYTE      S4CON
      000000ACH   SFRSYM    DATA     BYTE      S3CON
      0000009AH   SFRSYM    DATA     BYTE      S2CON
      000000B7H   SFRSYM    DATA     BYTE      IPH
      000000CDH   SFRSYM    DATA     BYTE      SPSTAT
      000000DDH   SFRSYM    DATA     BYTE      T4T3M
      000000C1H   SFRSYM    DATA     BYTE      WDT_CONTR
      000000DFH   SFRSYM    DATA     BYTE      IP3
      000000F4H   SFRSYM    DATA     BYTE      USBCON
      000000B5H   SFRSYM    DATA     BYTE      IP2
      000000FFH   SFRSYM    DATA     BYTE      RSTCFG
      000000C7H   SFRSYM    DATA     BYTE      IAP_CONTR
      000000F9H   SFRSYM    DATA     BYTE      LINICR
      0000008EH   SFRSYM    DATA     BYTE      AUXR
      000000AFH   SFRSYM    DATA     BYTE      IE2
      00000088H   SFRSYM    DATA     BYTE      TCON
      00000089H   SFRSYM    DATA     BYTE      TMOD
      00000098H   SFRSYM    DATA     BYTE      SCON
      000000F1H   SFRSYM    DATA     BYTE      CANICR
      00000087H   SFRSYM    DATA     BYTE      PCON
      000000BCH   SFRSYM    DATA     BYTE      ADC_CONTR
      000000E7H   SFRSYM    DATA     BYTE      CMPCR2
      000000E6H   SFRSYM    DATA     BYTE      CMPCR1
      000000DEH   SFRSYM    DATA     BYTE      ADCCFG
      000000B8H   SFRSYM    DATA     BYTE      IP
      0000008FH   SFRSYM    DATA     BYTE      INTCLKO
      000000EEH   SFRSYM    DATA     BYTE      IP3H
      000000B6H   SFRSYM    DATA     BYTE      IP2H
      000000A8H   SFRSYM    DATA     BYTE      IE
      000000BBH   SFRSYM    DATA     BYTE      P_SW3
      000000BAH   SFRSYM    DATA     BYTE      P_SW2
      000000A2H   SFRSYM    DATA     BYTE      P_SW1
      000000CEH   SFRSYM    DATA     BYTE      SPCTL
      000000F8H   SFRSYM    DATA     BYTE      P7
      000000E8H   SFRSYM    DATA     BYTE      P6
      000000C8H   SFRSYM    DATA     BYTE      P5
      000000C0H   SFRSYM    DATA     BYTE      P4
      000000B0H   SFRSYM    DATA     BYTE      P3
      000000A0H   SFRSYM    DATA     BYTE      P2
      00000090H   SFRSYM    DATA     BYTE      P1
      00000080H   SFRSYM    DATA     BYTE      P0
      WR14        REGSYM    ---      INT       pin
L251 LINKER/LOCATER V4.66.93.0                                                        01/25/2026  01:33:53  PAGE 65


      WR12        REGSYM    ---      WORD      freq_div

      00FF55B0H   BLOCK     CODE     ---       LVL=0
      WR14        REGSYM    ---      INT       pin
      00010641H   SYMBOL    XDATA    DWORD     duty
      00FF55C0H   BLOCK     CODE     NEAR LAB  LVL=1
      00010645H   SYMBOL    XDATA    DWORD     match_temp
      00010649H   SYMBOL    XDATA    DWORD     arr
      ---         BLOCKEND  ---      ---       LVL=1
      00FF55B0H   LINE      CODE     ---       #133
      00FF55C0H   LINE      CODE     ---       #134
      00FF55C0H   LINE      CODE     ---       #136
      00FF5602H   LINE      CODE     ---       #139
      00FF5626H   LINE      CODE     ---       #141
      00FF5636H   LINE      CODE     ---       #143
      00FF565BH   LINE      CODE     ---       #144
      00FF565DH   LINE      CODE     ---       #147
      00FF5673H   LINE      CODE     ---       #148
      00FF5673H   LINE      CODE     ---       #151
      00FF56B8H   LINE      CODE     ---       #152
      00FF56C4H   LINE      CODE     ---       #154
      ---         BLOCKEND  ---      ---       LVL=0

      00FF3C17H   BLOCK     CODE     ---       LVL=0
      WR14        REGSYM    ---      INT       pin
      0001063BH   SYMBOL    XDATA    DWORD     freq
      0001063FH   SYMBOL    XDATA    DWORD     duty
      00FF3C25H   BLOCK     CODE     NEAR LAB  LVL=1
      00010643H   SYMBOL    XDATA    WORD      match_temp
      00010645H   SYMBOL    XDATA    DWORD     period_temp
      WR12        REGSYM    ---      WORD      freq_div
      ---         BLOCKEND  ---      ---       LVL=1
      00FF3C17H   LINE      CODE     ---       #165
      00FF3C25H   LINE      CODE     ---       #166
      00FF3C25H   LINE      CODE     ---       #168
      00FF3C2DH   LINE      CODE     ---       #169
      00FF3C39H   LINE      CODE     ---       #170
      00FF3C39H   LINE      CODE     ---       #173
      00FF3C5DH   LINE      CODE     ---       #175
      00FF3C6EH   LINE      CODE     ---       #179
      00FF3C8BH   LINE      CODE     ---       #180
      00FF3C95H   LINE      CODE     ---       #181
      00FF3CA6H   LINE      CODE     ---       #183
      00FF3CB6H   LINE      CODE     ---       #185
      00FF3CDBH   LINE      CODE     ---       #186
      00FF3CDDH   LINE      CODE     ---       #189
      00FF3CECH   LINE      CODE     ---       #190
      00FF3CECH   LINE      CODE     ---       #192
      00FF3D10H   LINE      CODE     ---       #193
      00FF3D1CH   LINE      CODE     ---       #195
      00FF3D47H   LINE      CODE     ---       #196
      00FF3D53H   LINE      CODE     ---       #198
      00FF3D97H   LINE      CODE     ---       #199
      00FF3DA3H   LINE      CODE     ---       #201
      00FF3DB0H   LINE      CODE     ---       #203
      00FF3DEFH   LINE      CODE     ---       #204
      00FF3E20H   LINE      CODE     ---       #205
      00FF3E86H   LINE      CODE     ---       #207
      00FF3E93H   LINE      CODE     ---       #208
      00FF3E99H   LINE      CODE     ---       #209
      00FF3E9CH   LINE      CODE     ---       #210
      00FF3EADH   LINE      CODE     ---       #212
      00FF3EEAH   LINE      CODE     ---       #213
      00FF3F1BH   LINE      CODE     ---       #214
      00FF3F79H   LINE      CODE     ---       #216
L251 LINKER/LOCATER V4.66.93.0                                                        01/25/2026  01:33:53  PAGE 66


      00FF3F86H   LINE      CODE     ---       #217
      00FF3F93H   LINE      CODE     ---       #218
      00FF3F93H   LINE      CODE     ---       #220
      00FF3FD6H   LINE      CODE     ---       #221
      00FF3FE5H   LINE      CODE     ---       #222
      ---         BLOCKEND  ---      ---       LVL=0

      ---         MODULE    ---      ---       zf_driver_soft_iic
      00FF642BH   PUBLIC    CODE     ---       soft_iic_wait_ack
      00FF698BH   PUBLIC    CODE     ---       soft_iic_stop
      00FF7269H   PUBLIC    CODE     ---       soft_iic_delay
      00FF5FDCH   PUBLIC    CODE     ---       soft_iic_read_data
      00FF6321H   PUBLIC    CODE     ---       soft_iic_send_data
      00FF6BB9H   PUBLIC    CODE     ---       soft_iic_start
      00FF6772H   PUBLIC    CODE     ---       soft_iic_send_ack
      000000D0H   SFRSYM    DATA     BYTE      PSW
      0000009DH   SFRSYM    DATA     BYTE      IRCBAND
      00000097H   SFRSYM    DATA     BYTE      AUXR2
      000000EFH   SFRSYM    DATA     BYTE      AUXINTIF
      000000FDH   SFRSYM    DATA     BYTE      S4CON
      000000ACH   SFRSYM    DATA     BYTE      S3CON
      0000009AH   SFRSYM    DATA     BYTE      S2CON
      000000B7H   SFRSYM    DATA     BYTE      IPH
      000000CDH   SFRSYM    DATA     BYTE      SPSTAT
      000000DDH   SFRSYM    DATA     BYTE      T4T3M
      000000C1H   SFRSYM    DATA     BYTE      WDT_CONTR
      000000DFH   SFRSYM    DATA     BYTE      IP3
      000000F4H   SFRSYM    DATA     BYTE      USBCON
      000000B5H   SFRSYM    DATA     BYTE      IP2
      000000FFH   SFRSYM    DATA     BYTE      RSTCFG
      000000C7H   SFRSYM    DATA     BYTE      IAP_CONTR
      000000F9H   SFRSYM    DATA     BYTE      LINICR
      0000008EH   SFRSYM    DATA     BYTE      AUXR
      000000AFH   SFRSYM    DATA     BYTE      IE2
      00000088H   SFRSYM    DATA     BYTE      TCON
      00000089H   SFRSYM    DATA     BYTE      TMOD
      00000098H   SFRSYM    DATA     BYTE      SCON
      000000F1H   SFRSYM    DATA     BYTE      CANICR
      00000087H   SFRSYM    DATA     BYTE      PCON
      000000BCH   SFRSYM    DATA     BYTE      ADC_CONTR
      000000E7H   SFRSYM    DATA     BYTE      CMPCR2
      000000E6H   SFRSYM    DATA     BYTE      CMPCR1
      000000DEH   SFRSYM    DATA     BYTE      ADCCFG
      000000B8H   SFRSYM    DATA     BYTE      IP
      0000008FH   SFRSYM    DATA     BYTE      INTCLKO
      000000EEH   SFRSYM    DATA     BYTE      IP3H
      000000B6H   SFRSYM    DATA     BYTE      IP2H
      000000A8H   SFRSYM    DATA     BYTE      IE
      000000BBH   SFRSYM    DATA     BYTE      P_SW3
      000000BAH   SFRSYM    DATA     BYTE      P_SW2
      000000A2H   SFRSYM    DATA     BYTE      P_SW1
      000000CEH   SFRSYM    DATA     BYTE      SPCTL
      000000F8H   SFRSYM    DATA     BYTE      P7
      000000E8H   SFRSYM    DATA     BYTE      P6
      000000C8H   SFRSYM    DATA     BYTE      P5
      000000C0H   SFRSYM    DATA     BYTE      P4
      000000B0H   SFRSYM    DATA     BYTE      P3
      000000A0H   SFRSYM    DATA     BYTE      P2
      00000090H   SFRSYM    DATA     BYTE      P1
      00000080H   SFRSYM    DATA     BYTE      P0

      00FF7269H   BLOCK     CODE     ---       LVL=0
      000109B0H   SYMBOL    XDATA    DWORD     delay
      00FF7273H   BLOCK     CODE     NEAR LAB  LVL=1
      000109B4H   SYMBOL    XDATA    DWORD     count
L251 LINKER/LOCATER V4.66.93.0                                                        01/25/2026  01:33:53  PAGE 67


      ---         BLOCKEND  ---      ---       LVL=1
      00FF7269H   LINE      CODE     ---       #53
      00FF7273H   LINE      CODE     ---       #54
      00FF7273H   LINE      CODE     ---       #55
      00FF7287H   LINE      CODE     ---       #56
      00FF72A0H   LINE      CODE     ---       #57
      ---         BLOCKEND  ---      ---       LVL=0

      00FF6BB9H   BLOCK     CODE     ---       LVL=0
      REG=3       REGSYM    ---      ---       soft_iic_obj
      00FF6BB9H   LINE      CODE     ---       #67
      00FF6BBDH   LINE      CODE     ---       #69
      00FF6BD7H   LINE      CODE     ---       #70
      00FF6BDFH   LINE      CODE     ---       #71
      00FF6BE8H   LINE      CODE     ---       #73
      00FF6BF3H   LINE      CODE     ---       #74
      00FF6BFBH   LINE      CODE     ---       #75
      00FF6C06H   LINE      CODE     ---       #76
      00FF6C0DH   LINE      CODE     ---       #77
      ---         BLOCKEND  ---      ---       LVL=0

      00FF698BH   BLOCK     CODE     ---       LVL=0
      REG=3       REGSYM    ---      ---       soft_iic_obj
      00FF698BH   LINE      CODE     ---       #86
      00FF698FH   LINE      CODE     ---       #88
      00FF69A9H   LINE      CODE     ---       #89
      00FF69B1H   LINE      CODE     ---       #90
      00FF69B8H   LINE      CODE     ---       #92
      00FF69C3H   LINE      CODE     ---       #93
      00FF69CBH   LINE      CODE     ---       #94
      00FF69D6H   LINE      CODE     ---       #95
      00FF69DFH   LINE      CODE     ---       #96
      00FF69EAH   LINE      CODE     ---       #97
      ---         BLOCKEND  ---      ---       LVL=0

      00FF6772H   BLOCK     CODE     ---       LVL=0
      REG=3       REGSYM    ---      ---       soft_iic_obj
      000109EEH   SYMBOL    XDATA    BYTE      ack
      00FF6772H   LINE      CODE     ---       #107
      00FF677AH   LINE      CODE     ---       #109
      00FF6794H   LINE      CODE     ---       #110
      00FF679BH   LINE      CODE     ---       #112
      00FF67A1H   LINE      CODE     ---       #114
      00FF67A7H   LINE      CODE     ---       #115
      00FF67A9H   LINE      CODE     ---       #118
      00FF67B1H   LINE      CODE     ---       #119
      00FF67B1H   LINE      CODE     ---       #121
      00FF67BCH   LINE      CODE     ---       #122
      00FF67C4H   LINE      CODE     ---       #123
      00FF67CFH   LINE      CODE     ---       #124
      00FF67D6H   LINE      CODE     ---       #125
      00FF67DFH   LINE      CODE     ---       #126
      ---         BLOCKEND  ---      ---       LVL=0

      00FF642BH   BLOCK     CODE     ---       LVL=0
      REG=3       REGSYM    ---      ---       soft_iic_obj
      00FF642FH   BLOCK     CODE     NEAR LAB  LVL=1
      000109EFH   SYMBOL    XDATA    BYTE      temp
      ---         BLOCKEND  ---      ---       LVL=1
      00FF642BH   LINE      CODE     ---       #135
      00FF642FH   LINE      CODE     ---       #136
      00FF642FH   LINE      CODE     ---       #137
      00FF6434H   LINE      CODE     ---       #138
      00FF644EH   LINE      CODE     ---       #140
      00FF6455H   LINE      CODE     ---       #141
L251 LINKER/LOCATER V4.66.93.0                                                        01/25/2026  01:33:53  PAGE 68


      00FF645EH   LINE      CODE     ---       #145
      00FF6469H   LINE      CODE     ---       #147
      00FF6471H   LINE      CODE     ---       #148
      00FF647CH   LINE      CODE     ---       #150
      00FF6485H   LINE      CODE     ---       #152
      00FF648BH   LINE      CODE     ---       #153
      00FF648BH   LINE      CODE     ---       #154
      00FF6492H   LINE      CODE     ---       #158
      00FF649DH   LINE      CODE     ---       #160
      00FF64A1H   LINE      CODE     ---       #161
      ---         BLOCKEND  ---      ---       LVL=0

      00FF6321H   BLOCK     CODE     ---       LVL=0
      REG=3       REGSYM    ---      ---       soft_iic_obj
      000109E9H   SYMBOL    XDATA    BYTE      dat
      00FF6329H   BLOCK     CODE     NEAR LAB  LVL=1
      000109EAH   SYMBOL    XDATA    BYTE      temp
      ---         BLOCKEND  ---      ---       LVL=1
      00FF6321H   LINE      CODE     ---       #170
      00FF6329H   LINE      CODE     ---       #171
      00FF6329H   LINE      CODE     ---       #172
      00FF632FH   LINE      CODE     ---       #174
      00FF6349H   LINE      CODE     ---       #176
      00FF6349H   LINE      CODE     ---       #179
      00FF636BH   LINE      CODE     ---       #180
      00FF6372H   LINE      CODE     ---       #182
      00FF637DH   LINE      CODE     ---       #183
      00FF6385H   LINE      CODE     ---       #184
      00FF6390H   LINE      CODE     ---       #185
      00FF6397H   LINE      CODE     ---       #186
      00FF639DH   LINE      CODE     ---       #187
      00FF63AAH   LINE      CODE     ---       #188
      ---         BLOCKEND  ---      ---       LVL=0

      00FF5FDCH   BLOCK     CODE     ---       LVL=0
      REG=3       REGSYM    ---      ---       soft_iic_obj
      000109E6H   SYMBOL    XDATA    BYTE      ack
      00FF5FE4H   BLOCK     CODE     NEAR LAB  LVL=1
      000109E7H   SYMBOL    XDATA    BYTE      dat
      000109E8H   SYMBOL    XDATA    BYTE      temp
      ---         BLOCKEND  ---      ---       LVL=1
      00FF5FDCH   LINE      CODE     ---       #197
      00FF5FE4H   LINE      CODE     ---       #198
      00FF5FE4H   LINE      CODE     ---       #199
      00FF5FE9H   LINE      CODE     ---       #200
      00FF5FEFH   LINE      CODE     ---       #201
      00FF6009H   LINE      CODE     ---       #202
      00FF6010H   LINE      CODE     ---       #203
      00FF601BH   LINE      CODE     ---       #204
      00FF6024H   LINE      CODE     ---       #209
      00FF6026H   LINE      CODE     ---       #211
      00FF602DH   LINE      CODE     ---       #212
      00FF6038H   LINE      CODE     ---       #213
      00FF6040H   LINE      CODE     ---       #214
      00FF604BH   LINE      CODE     ---       #215
      00FF6060H   LINE      CODE     ---       #216
      00FF606EH   LINE      CODE     ---       #217
      00FF6075H   LINE      CODE     ---       #221
      00FF6080H   LINE      CODE     ---       #222
      00FF6089H   LINE      CODE     ---       #223
      00FF608DH   LINE      CODE     ---       #224
      ---         BLOCKEND  ---      ---       LVL=0
      REG=3       REGSYM    ---      ---       soft_iic_obj
      REG=3       REGSYM    ---      ---       soft_iic_obj
      REG=3       REGSYM    ---      ---       soft_iic_obj
L251 LINKER/LOCATER V4.66.93.0                                                        01/25/2026  01:33:53  PAGE 69


      REG=3       REGSYM    ---      ---       soft_iic_obj
      REG=3       REGSYM    ---      ---       soft_iic_obj
      REG=3       REGSYM    ---      ---       soft_iic_obj
      REG=3       REGSYM    ---      ---       soft_iic_obj
      REG=3       REGSYM    ---      ---       soft_iic_obj
      REG=3       REGSYM    ---      ---       soft_iic_obj
      REG=3       REGSYM    ---      ---       soft_iic_obj
      REG=3       REGSYM    ---      ---       soft_iic_obj
      REG=3       REGSYM    ---      ---       soft_iic_obj
      REG=3       REGSYM    ---      ---       soft_iic_obj
      REG=3       REGSYM    ---      ---       soft_iic_obj
      REG=3       REGSYM    ---      ---       soft_iic_obj
      REG=3       REGSYM    ---      ---       soft_iic_obj
      REG=3       REGSYM    ---      ---       soft_iic_obj
      REG=3       REGSYM    ---      ---       soft_iic_obj
      REG=3       REGSYM    ---      ---       soft_iic_obj
      REG=3       REGSYM    ---      ---       soft_iic_obj
      REG=3       REGSYM    ---      ---       soft_iic_obj

      ---         MODULE    ---      ---       zf_driver_soft_spi
      000000D0H   SFRSYM    DATA     BYTE      PSW
      0000009DH   SFRSYM    DATA     BYTE      IRCBAND
      00000097H   SFRSYM    DATA     BYTE      AUXR2
      000000EFH   SFRSYM    DATA     BYTE      AUXINTIF
      000000FDH   SFRSYM    DATA     BYTE      S4CON
      000000ACH   SFRSYM    DATA     BYTE      S3CON
      0000009AH   SFRSYM    DATA     BYTE      S2CON
      000000B7H   SFRSYM    DATA     BYTE      IPH
      000000CDH   SFRSYM    DATA     BYTE      SPSTAT
      000000DDH   SFRSYM    DATA     BYTE      T4T3M
      000000C1H   SFRSYM    DATA     BYTE      WDT_CONTR
      000000DFH   SFRSYM    DATA     BYTE      IP3
      000000F4H   SFRSYM    DATA     BYTE      USBCON
      000000B5H   SFRSYM    DATA     BYTE      IP2
      000000FFH   SFRSYM    DATA     BYTE      RSTCFG
      000000C7H   SFRSYM    DATA     BYTE      IAP_CONTR
      000000F9H   SFRSYM    DATA     BYTE      LINICR
      0000008EH   SFRSYM    DATA     BYTE      AUXR
      000000AFH   SFRSYM    DATA     BYTE      IE2
      00000088H   SFRSYM    DATA     BYTE      TCON
      00000089H   SFRSYM    DATA     BYTE      TMOD
      00000098H   SFRSYM    DATA     BYTE      SCON
      000000F1H   SFRSYM    DATA     BYTE      CANICR
      00000087H   SFRSYM    DATA     BYTE      PCON
      000000BCH   SFRSYM    DATA     BYTE      ADC_CONTR
      000000E7H   SFRSYM    DATA     BYTE      CMPCR2
      000000E6H   SFRSYM    DATA     BYTE      CMPCR1
      000000DEH   SFRSYM    DATA     BYTE      ADCCFG
      000000B8H   SFRSYM    DATA     BYTE      IP
      0000008FH   SFRSYM    DATA     BYTE      INTCLKO
      000000EEH   SFRSYM    DATA     BYTE      IP3H
      000000B6H   SFRSYM    DATA     BYTE      IP2H
      000000A8H   SFRSYM    DATA     BYTE      IE
      000000BBH   SFRSYM    DATA     BYTE      P_SW3
      000000BAH   SFRSYM    DATA     BYTE      P_SW2
      000000A2H   SFRSYM    DATA     BYTE      P_SW1
      000000CEH   SFRSYM    DATA     BYTE      SPCTL
      000000F8H   SFRSYM    DATA     BYTE      P7
      000000E8H   SFRSYM    DATA     BYTE      P6
      000000C8H   SFRSYM    DATA     BYTE      P5
      000000C0H   SFRSYM    DATA     BYTE      P4
      000000B0H   SFRSYM    DATA     BYTE      P3
      000000A0H   SFRSYM    DATA     BYTE      P2
      00000090H   SFRSYM    DATA     BYTE      P1
      00000080H   SFRSYM    DATA     BYTE      P0
L251 LINKER/LOCATER V4.66.93.0                                                        01/25/2026  01:33:53  PAGE 70


      DR4         REGSYM    ---      DWORD     x
      REG=3       REGSYM    ---      ---       soft_spi_obj
      R10         REGSYM    ---      BYTE      dat
      REG=3       REGSYM    ---      ---       soft_spi_obj
      WR6         REGSYM    ---      WORD      dat
      REG=3       REGSYM    ---      ---       soft_spi_obj
      REG=3       REGSYM    ---      ---       soft_spi_obj
      REG=3       REGSYM    ---      ---       soft_spi_obj
      REG=3       REGSYM    ---      ---       soft_spi_obj
      REG=3       REGSYM    ---      ---       soft_spi_obj
      REG=3       REGSYM    ---      ---       soft_spi_obj
      REG=3       REGSYM    ---      ---       soft_spi_obj
      REG=3       REGSYM    ---      ---       soft_spi_obj
      REG=3       REGSYM    ---      ---       soft_spi_obj
      REG=3       REGSYM    ---      ---       soft_spi_obj
      REG=3       REGSYM    ---      ---       soft_spi_obj
      REG=3       REGSYM    ---      ---       soft_spi_obj
      REG=3       REGSYM    ---      ---       soft_spi_obj
      REG=3       REGSYM    ---      ---       soft_spi_obj
      REG=3       REGSYM    ---      ---       soft_spi_obj
      REG=3       REGSYM    ---      ---       soft_spi_obj
      REG=3       REGSYM    ---      ---       soft_spi_obj
      REG=3       REGSYM    ---      ---       soft_spi_obj
      REG=3       REGSYM    ---      ---       soft_spi_obj

      ---         MODULE    ---      ---       zf_driver_spi
      000000CFH   SFRSYM    DATA     BYTE      SPDAT
      000000D0H   SFRSYM    DATA     BYTE      PSW
      0000009DH   SFRSYM    DATA     BYTE      IRCBAND
      00000097H   SFRSYM    DATA     BYTE      AUXR2
      000000EFH   SFRSYM    DATA     BYTE      AUXINTIF
      000000FDH   SFRSYM    DATA     BYTE      S4CON
      000000ACH   SFRSYM    DATA     BYTE      S3CON
      0000009AH   SFRSYM    DATA     BYTE      S2CON
      0000009BH   SFRSYM    DATA     BYTE      S2BUF
      000000B7H   SFRSYM    DATA     BYTE      IPH
      000000CDH   SFRSYM    DATA     BYTE      SPSTAT
      000000DDH   SFRSYM    DATA     BYTE      T4T3M
      000000C1H   SFRSYM    DATA     BYTE      WDT_CONTR
      000000DFH   SFRSYM    DATA     BYTE      IP3
      000000F4H   SFRSYM    DATA     BYTE      USBCON
      000000B5H   SFRSYM    DATA     BYTE      IP2
      000000FFH   SFRSYM    DATA     BYTE      RSTCFG
      000000C7H   SFRSYM    DATA     BYTE      IAP_CONTR
      000000F9H   SFRSYM    DATA     BYTE      LINICR
      0000008EH   SFRSYM    DATA     BYTE      AUXR
      000000AFH   SFRSYM    DATA     BYTE      IE2
      00000088H   SFRSYM    DATA     BYTE      TCON
      00000089H   SFRSYM    DATA     BYTE      TMOD
      00000098H   SFRSYM    DATA     BYTE      SCON
      000000F1H   SFRSYM    DATA     BYTE      CANICR
      00000087H   SFRSYM    DATA     BYTE      PCON
      00000099H   SFRSYM    DATA     BYTE      SBUF
      000000BCH   SFRSYM    DATA     BYTE      ADC_CONTR
      000000E7H   SFRSYM    DATA     BYTE      CMPCR2
      000000E6H   SFRSYM    DATA     BYTE      CMPCR1
      0000009AH.1 SFRSYM    DATA     BIT       S2TI
      00000098H.1 SFRSYM    DATA     BIT       TI
      000000DEH   SFRSYM    DATA     BYTE      ADCCFG
      000000B8H   SFRSYM    DATA     BYTE      IP
      0000008FH   SFRSYM    DATA     BYTE      INTCLKO
      000000EEH   SFRSYM    DATA     BYTE      IP3H
      000000B6H   SFRSYM    DATA     BYTE      IP2H
      000000A8H   SFRSYM    DATA     BYTE      IE
      000000BBH   SFRSYM    DATA     BYTE      P_SW3
L251 LINKER/LOCATER V4.66.93.0                                                        01/25/2026  01:33:53  PAGE 71


      000000BAH   SFRSYM    DATA     BYTE      P_SW2
      000000A2H   SFRSYM    DATA     BYTE      P_SW1
      000000CEH   SFRSYM    DATA     BYTE      SPCTL
      000000F8H   SFRSYM    DATA     BYTE      P7
      000000E8H   SFRSYM    DATA     BYTE      P6
      000000C8H   SFRSYM    DATA     BYTE      P5
      000000C0H   SFRSYM    DATA     BYTE      P4
      000000B0H   SFRSYM    DATA     BYTE      P3
      000000A0H   SFRSYM    DATA     BYTE      P2
      00000090H   SFRSYM    DATA     BYTE      P1
      00000080H   SFRSYM    DATA     BYTE      P0
      WR6         REGSYM    ---      INT       spi_n
      R10         REGSYM    ---      BYTE      dat
      WR8         REGSYM    ---      INT       spi_n
      R10         REGSYM    ---      BYTE      dat
      R15         REGSYM    ---      BYTE      ret
      WR6         REGSYM    ---      INT       spi_n
      R5          REGSYM    ---      BYTE      dat
      REG=3       REGSYM    ---      ---       dat
      WR12        REGSYM    ---      INT       spi_n
      WR14        REGSYM    ---      WORD      dat
      REG=3       REGSYM    ---      ---       dat
      WR14        REGSYM    ---      INT       spi_n
      R5          REGSYM    ---      BYTE      register_name
      R13         REGSYM    ---      BYTE      dat
      R11         REGSYM    ---      BYTE      register_name
      REG=3       REGSYM    ---      ---       dat
      WR14        REGSYM    ---      INT       spi_n
      WR12        REGSYM    ---      WORD      dat
      WR14        REGSYM    ---      INT       spi_n
      WR12        REGSYM    ---      WORD      register_name
      WR6         REGSYM    ---      INT       spi_n
      REG=3       REGSYM    ---      ---       dat
      WR14        REGSYM    ---      INT       spi_n
      WR12        REGSYM    ---      WORD      dat
      REG=3       REGSYM    ---      ---       dat
      WR14        REGSYM    ---      INT       spi_n
      R5          REGSYM    ---      BYTE      register_name
      R5          REGSYM    ---      BYTE      register_name
      REG=3       REGSYM    ---      ---       dat
      WR14        REGSYM    ---      INT       spi_n
      WR12        REGSYM    ---      WORD      register_name
      WR12        REGSYM    ---      WORD      dat
      REG=3       REGSYM    ---      ---       dat
      REG=3       REGSYM    ---      ---       write_buffer
      REG=3       REGSYM    ---      ---       write_buffer
      DR12        REGSYM    ---      DWORD     baud

      ---         MODULE    ---      ---       zf_driver_timer
      00FF733CH   PUBLIC    CODE     ---       timer_funciton_check
      000000D0H   SFRSYM    DATA     BYTE      PSW
      0000009DH   SFRSYM    DATA     BYTE      IRCBAND
      00000097H   SFRSYM    DATA     BYTE      AUXR2
      000000EFH   SFRSYM    DATA     BYTE      AUXINTIF
      000000FDH   SFRSYM    DATA     BYTE      S4CON
      000000ACH   SFRSYM    DATA     BYTE      S3CON
      0000009AH   SFRSYM    DATA     BYTE      S2CON
      000000B7H   SFRSYM    DATA     BYTE      IPH
      000000CDH   SFRSYM    DATA     BYTE      SPSTAT
      000000DDH   SFRSYM    DATA     BYTE      T4T3M
      000000C1H   SFRSYM    DATA     BYTE      WDT_CONTR
      000000DFH   SFRSYM    DATA     BYTE      IP3
      000000F4H   SFRSYM    DATA     BYTE      USBCON
      000000B5H   SFRSYM    DATA     BYTE      IP2
      000000FFH   SFRSYM    DATA     BYTE      RSTCFG
L251 LINKER/LOCATER V4.66.93.0                                                        01/25/2026  01:33:53  PAGE 72


      000000C7H   SFRSYM    DATA     BYTE      IAP_CONTR
      000000F9H   SFRSYM    DATA     BYTE      LINICR
      0000008EH   SFRSYM    DATA     BYTE      AUXR
      000000AFH   SFRSYM    DATA     BYTE      IE2
      00000088H   SFRSYM    DATA     BYTE      TCON
      00000089H   SFRSYM    DATA     BYTE      TMOD
      00000098H   SFRSYM    DATA     BYTE      SCON
      000000F1H   SFRSYM    DATA     BYTE      CANICR
      00000087H   SFRSYM    DATA     BYTE      PCON
      000000BCH   SFRSYM    DATA     BYTE      ADC_CONTR
      000000E7H   SFRSYM    DATA     BYTE      CMPCR2
      000000E6H   SFRSYM    DATA     BYTE      CMPCR1
      000000DEH   SFRSYM    DATA     BYTE      ADCCFG
      000000B8H   SFRSYM    DATA     BYTE      IP
      0000008FH   SFRSYM    DATA     BYTE      INTCLKO
      000000EEH   SFRSYM    DATA     BYTE      IP3H
      000000B6H   SFRSYM    DATA     BYTE      IP2H
      000000A8H   SFRSYM    DATA     BYTE      IE
      000000BBH   SFRSYM    DATA     BYTE      P_SW3
      000000BAH   SFRSYM    DATA     BYTE      P_SW2
      000000A2H   SFRSYM    DATA     BYTE      P_SW1
      000000CEH   SFRSYM    DATA     BYTE      SPCTL
      000000F8H   SFRSYM    DATA     BYTE      P7
      000000E8H   SFRSYM    DATA     BYTE      P6
      000000C8H   SFRSYM    DATA     BYTE      P5
      000000C0H   SFRSYM    DATA     BYTE      P4
      000000B0H   SFRSYM    DATA     BYTE      P3
      000000A0H   SFRSYM    DATA     BYTE      P2
      00000090H   SFRSYM    DATA     BYTE      P1
      00000080H   SFRSYM    DATA     BYTE      P0
      00010963H   SYMBOL    XDATA    ---       timer_function_state

      00FF733CH   BLOCK     CODE     ---       LVL=0
      WR2         REGSYM    ---      INT       index
      WR0         REGSYM    ---      INT       mode
      00FF733EH   BLOCK     CODE     NEAR LAB  LVL=1
      R10         REGSYM    ---      BYTE      return_state
      ---         BLOCKEND  ---      ---       LVL=1
      00FF733CH   LINE      CODE     ---       #58
      00FF733EH   LINE      CODE     ---       #59
      00FF733EH   LINE      CODE     ---       #60
      00FF7341H   LINE      CODE     ---       #61
      00FF7354H   LINE      CODE     ---       #63
      00FF735DH   LINE      CODE     ---       #64
      00FF735FH   LINE      CODE     ---       #65
      00FF7363H   LINE      CODE     ---       #67
      00FF7366H   LINE      CODE     ---       #68
      00FF7368H   LINE      CODE     ---       #71
      00FF736AH   LINE      CODE     ---       #72
      00FF736AH   LINE      CODE     ---       #73
      00FF736CH   LINE      CODE     ---       #74
      ---         BLOCKEND  ---      ---       LVL=0

      ---         MODULE    ---      ---       zf_driver_uart
      00FF6A4EH   PUBLIC    CODE     ---       uart_rx_start_buff
      00FF5494H   PUBLIC    CODE     ---       uart_write_buffer
      00FF4833H   PUBLIC    CODE     ---       uart_init
      00FF7144H   PUBLIC    CODE     ---       uart_rx_interrupt
      00FF75ECH   PUBLIC    CODE     ---       uart_write_byte
      00FF5E70H   PUBLIC    CODE     ---       uart_dma_init
      00FF736DH   PUBLIC    CODE     ---       uart_funciton_check
      00FF6DF3H   PUBLIC    CODE     ---       uart_query_byte
      00010977H   PUBLIC    XDATA    ---       uart_rx_buff
      00010637H   PUBLIC    XDATA    BYTE      ?uart_init?BYTE
      000000D0H   SFRSYM    DATA     BYTE      PSW
L251 LINKER/LOCATER V4.66.93.0                                                        01/25/2026  01:33:53  PAGE 73


      0000009DH   SFRSYM    DATA     BYTE      IRCBAND
      00000097H   SFRSYM    DATA     BYTE      AUXR2
      000000EFH   SFRSYM    DATA     BYTE      AUXINTIF
      000000FDH   SFRSYM    DATA     BYTE      S4CON
      000000ACH   SFRSYM    DATA     BYTE      S3CON
      0000009AH   SFRSYM    DATA     BYTE      S2CON
      000000B7H   SFRSYM    DATA     BYTE      IPH
      000000CDH   SFRSYM    DATA     BYTE      SPSTAT
      000000DDH   SFRSYM    DATA     BYTE      T4T3M
      000000C1H   SFRSYM    DATA     BYTE      WDT_CONTR
      00000088H.6 SFRSYM    DATA     BIT       TR1
      000000D7H   SFRSYM    DATA     BYTE      T2L
      000000D6H   SFRSYM    DATA     BYTE      T2H
      000000DFH   SFRSYM    DATA     BYTE      IP3
      000000F4H   SFRSYM    DATA     BYTE      USBCON
      000000B5H   SFRSYM    DATA     BYTE      IP2
      000000FFH   SFRSYM    DATA     BYTE      RSTCFG
      000000C7H   SFRSYM    DATA     BYTE      IAP_CONTR
      000000F9H   SFRSYM    DATA     BYTE      LINICR
      0000008EH   SFRSYM    DATA     BYTE      AUXR
      000000AFH   SFRSYM    DATA     BYTE      IE2
      00000088H   SFRSYM    DATA     BYTE      TCON
      00000089H   SFRSYM    DATA     BYTE      TMOD
      00000098H   SFRSYM    DATA     BYTE      SCON
      000000F1H   SFRSYM    DATA     BYTE      CANICR
      00000087H   SFRSYM    DATA     BYTE      PCON
      000000BCH   SFRSYM    DATA     BYTE      ADC_CONTR
      000000E7H   SFRSYM    DATA     BYTE      CMPCR2
      000000E6H   SFRSYM    DATA     BYTE      CMPCR1
      000000DEH   SFRSYM    DATA     BYTE      ADCCFG
      000000B8H   SFRSYM    DATA     BYTE      IP
      0000008FH   SFRSYM    DATA     BYTE      INTCLKO
      000000EEH   SFRSYM    DATA     BYTE      IP3H
      000000B6H   SFRSYM    DATA     BYTE      IP2H
      000000A8H   SFRSYM    DATA     BYTE      IE
      000000BBH   SFRSYM    DATA     BYTE      P_SW3
      000000BAH   SFRSYM    DATA     BYTE      P_SW2
      000000A2H   SFRSYM    DATA     BYTE      P_SW1
      000000CEH   SFRSYM    DATA     BYTE      SPCTL
      000000F8H   SFRSYM    DATA     BYTE      P7
      000000E8H   SFRSYM    DATA     BYTE      P6
      000000C8H   SFRSYM    DATA     BYTE      P5
      000000C0H   SFRSYM    DATA     BYTE      P4
      000000B0H   SFRSYM    DATA     BYTE      P3
      000000A0H   SFRSYM    DATA     BYTE      P2
      00000090H   SFRSYM    DATA     BYTE      P1
      00000080H   SFRSYM    DATA     BYTE      P0
      00FF8337H   SYMBOL    HCONST   ---       ?tpl?0001
      0001096FH   SYMBOL    XDATA    ---       uart_function_state

      00FF736DH   BLOCK     CODE     ---       LVL=0
      WR2         REGSYM    ---      INT       index
      WR0         REGSYM    ---      INT       mode
      00FF736FH   BLOCK     CODE     NEAR LAB  LVL=1
      R10         REGSYM    ---      BYTE      return_state
      ---         BLOCKEND  ---      ---       LVL=1
      00FF736DH   LINE      CODE     ---       #86
      00FF736FH   LINE      CODE     ---       #87
      00FF736FH   LINE      CODE     ---       #88
      00FF7372H   LINE      CODE     ---       #89
      00FF7385H   LINE      CODE     ---       #91
      00FF738EH   LINE      CODE     ---       #92
      00FF7390H   LINE      CODE     ---       #93
      00FF7394H   LINE      CODE     ---       #95
      00FF7397H   LINE      CODE     ---       #96
L251 LINKER/LOCATER V4.66.93.0                                                        01/25/2026  01:33:53  PAGE 74


      00FF7399H   LINE      CODE     ---       #99
      00FF739BH   LINE      CODE     ---       #100
      00FF739BH   LINE      CODE     ---       #101
      00FF739DH   LINE      CODE     ---       #102
      ---         BLOCKEND  ---      ---       LVL=0

      00FF5494H   BLOCK     CODE     ---       LVL=0
      00010686H   SYMBOL    XDATA    INT       uart_n
      REG=3       REGSYM    ---      ---       buff
      00010688H   SYMBOL    XDATA    WORD      len
      00FF54A4H   BLOCK     CODE     NEAR LAB  LVL=1
      0001068AH   SYMBOL    XDATA    ---       tmp_buff
      000106CAH   SYMBOL    XDATA    WORD      tmp_len
      ---         BLOCKEND  ---      ---       LVL=1
      00FF5494H   LINE      CODE     ---       #111
      00FF54A4H   LINE      CODE     ---       #112
      00FF54A4H   LINE      CODE     ---       #116
      00FF54B9H   LINE      CODE     ---       #117
      00FF54B9H   LINE      CODE     ---       #118
      00FF54BCH   LINE      CODE     ---       #120
      00FF54DAH   LINE      CODE     ---       #121
      00FF54EBH   LINE      CODE     ---       #122
      00FF54FCH   LINE      CODE     ---       #123
      00FF54FEH   LINE      CODE     ---       #126
      00FF551EH   LINE      CODE     ---       #128
      00FF552DH   LINE      CODE     ---       #129
      00FF5548H   LINE      CODE     ---       #130
      00FF5559H   LINE      CODE     ---       #131
      00FF5566H   LINE      CODE     ---       #132
      00FF5573H   LINE      CODE     ---       #134
      00FF5594H   LINE      CODE     ---       #136
      00FF55A0H   LINE      CODE     ---       #137
      00FF55ADH   LINE      CODE     ---       #138
      ---         BLOCKEND  ---      ---       LVL=0
      REG=3       REGSYM    ---      ---       str
      WR4         REGSYM    ---      WORD      len

      00FF75ECH   BLOCK     CODE     ---       LVL=0
      WR6         REGSYM    ---      INT       uart_n
      00010685H   SYMBOL    XDATA    BYTE      dat
      00FF75ECH   LINE      CODE     ---       #159
      00FF75F0H   LINE      CODE     ---       #161
      ---         BLOCKEND  ---      ---       LVL=0

      00FF6A4EH   BLOCK     CODE     ---       LVL=0
      WR8         REGSYM    ---      INT       uart_n
      00FF6A4EH   LINE      CODE     ---       #170
      00FF6A50H   LINE      CODE     ---       #172
      00FF6A6EH   LINE      CODE     ---       #173
      00FF6A7EH   LINE      CODE     ---       #174
      00FF6A91H   LINE      CODE     ---       #175
      00FF6AA0H   LINE      CODE     ---       #176
      00FF6AADH   LINE      CODE     ---       #177
      ---         BLOCKEND  ---      ---       LVL=0

      00FF7144H   BLOCK     CODE     ---       LVL=0
      WR6         REGSYM    ---      INT       uart_n
      R5          REGSYM    ---      BYTE      status
      00FF7144H   LINE      CODE     ---       #186
      00FF7146H   LINE      CODE     ---       #188
      00FF714AH   LINE      CODE     ---       #190
      00FF7162H   LINE      CODE     ---       #191
      00FF7164H   LINE      CODE     ---       #194
      00FF717FH   LINE      CODE     ---       #195
      00FF717FH   LINE      CODE     ---       #196
L251 LINKER/LOCATER V4.66.93.0                                                        01/25/2026  01:33:53  PAGE 75


      ---         BLOCKEND  ---      ---       LVL=0
      WR8         REGSYM    ---      INT       uart_n
      R15         REGSYM    ---      BYTE      dat

      00FF6DF3H   BLOCK     CODE     ---       LVL=0
      WR2         REGSYM    ---      INT       uart_n
      REG=7       REGSYM    ---      ---       dat
      00FF6DF9H   BLOCK     CODE     NEAR LAB  LVL=1
      R15         REGSYM    ---      BYTE      ret
      ---         BLOCKEND  ---      ---       LVL=1
      00FF6DF3H   LINE      CODE     ---       #230
      00FF6DF9H   LINE      CODE     ---       #231
      00FF6DF9H   LINE      CODE     ---       #232
      00FF6DF9H   LINE      CODE     ---       #235
      00FF6E09H   LINE      CODE     ---       #237
      00FF6E23H   LINE      CODE     ---       #239
      00FF6E26H   LINE      CODE     ---       #241
      00FF6E2EH   LINE      CODE     ---       #242
      00FF6E30H   LINE      CODE     ---       #245
      00FF6E32H   LINE      CODE     ---       #246
      00FF6E32H   LINE      CODE     ---       #249
      00FF6E37H   LINE      CODE     ---       #251
      00FF6E39H   LINE      CODE     ---       #252
      ---         BLOCKEND  ---      ---       LVL=0

      00FF5E70H   BLOCK     CODE     ---       LVL=0
      WR8         REGSYM    ---      INT       uart_n
      00FF5E70H   LINE      CODE     ---       #260
      00FF5E74H   LINE      CODE     ---       #262
      00FF5E90H   LINE      CODE     ---       #263
      00FF5E9EH   LINE      CODE     ---       #264
      00FF5EABH   LINE      CODE     ---       #266
      00FF5EB8H   LINE      CODE     ---       #267
      00FF5EC5H   LINE      CODE     ---       #268
      00FF5ED2H   LINE      CODE     ---       #270
      00FF5EDFH   LINE      CODE     ---       #271
      00FF5EF8H   LINE      CODE     ---       #272
      00FF5F0BH   LINE      CODE     ---       #273
      00FF5F1AH   LINE      CODE     ---       #274
      00FF5F1FH   LINE      CODE     ---       #275
      00FF5F24H   LINE      CODE     ---       #277
      ---         BLOCKEND  ---      ---       LVL=0

      00FF4833H   BLOCK     CODE     ---       LVL=0
      WR12        REGSYM    ---      INT       uart_n
      0001063BH   SYMBOL    XDATA    DWORD     baud
      WR14        REGSYM    ---      INT       tx_pin
      0001063FH   SYMBOL    XDATA    INT       rx_pin
      00FF4843H   BLOCK     CODE     NEAR LAB  LVL=1
      WR6         REGSYM    ---      WORD      brt
      ---         BLOCKEND  ---      ---       LVL=1
      00FF4833H   LINE      CODE     ---       #289
      00FF4843H   LINE      CODE     ---       #290
      00FF4843H   LINE      CODE     ---       #299
      00FF4859H   LINE      CODE     ---       #306
      00FF4873H   LINE      CODE     ---       #311
      00FF489DH   LINE      CODE     ---       #314
      00FF48AEH   LINE      CODE     ---       #315
      00FF48C1H   LINE      CODE     ---       #317
      00FF48F2H   LINE      CODE     ---       #319
      00FF4912H   LINE      CODE     ---       #321
      00FF4912H   LINE      CODE     ---       #335
      00FF4915H   LINE      CODE     ---       #336
      00FF4919H   LINE      CODE     ---       #337
      00FF491DH   LINE      CODE     ---       #338
L251 LINKER/LOCATER V4.66.93.0                                                        01/25/2026  01:33:53  PAGE 76


      00FF4920H   LINE      CODE     ---       #339
      00FF4922H   LINE      CODE     ---       #342
      00FF4925H   LINE      CODE     ---       #344
      00FF4937H   LINE      CODE     ---       #346
      00FF493BH   LINE      CODE     ---       #347
      00FF493EH   LINE      CODE     ---       #348
      00FF494AH   LINE      CODE     ---       #350
      00FF494DH   LINE      CODE     ---       #351
      00FF4950H   LINE      CODE     ---       #352
      00FF495CH   LINE      CODE     ---       #354
      00FF495FH   LINE      CODE     ---       #355
      00FF4962H   LINE      CODE     ---       #356
      00FF4974H   LINE      CODE     ---       #358
      00FF4977H   LINE      CODE     ---       #359
      00FF4977H   LINE      CODE     ---       #362
      00FF497AH   LINE      CODE     ---       #365
      00FF497AH   LINE      CODE     ---       #369
      00FF497DH   LINE      CODE     ---       #370
      00FF4981H   LINE      CODE     ---       #371
      00FF4985H   LINE      CODE     ---       #372
      00FF4988H   LINE      CODE     ---       #375
      00FF498BH   LINE      CODE     ---       #377
      00FF499DH   LINE      CODE     ---       #379
      00FF499DH   LINE      CODE     ---       #380
      00FF499FH   LINE      CODE     ---       #381
      00FF49AEH   LINE      CODE     ---       #383
      00FF49B1H   LINE      CODE     ---       #384
      00FF49B1H   LINE      CODE     ---       #388
      00FF49B3H   LINE      CODE     ---       #391
      00FF49B3H   LINE      CODE     ---       #395
      00FF49B6H   LINE      CODE     ---       #396
      00FF49BAH   LINE      CODE     ---       #397
      00FF49BEH   LINE      CODE     ---       #398
      00FF49C1H   LINE      CODE     ---       #408
      00FF49C4H   LINE      CODE     ---       #410
      00FF49D6H   LINE      CODE     ---       #412
      00FF49D6H   LINE      CODE     ---       #413
      00FF49D8H   LINE      CODE     ---       #414
      00FF49E4H   LINE      CODE     ---       #416
      00FF49E7H   LINE      CODE     ---       #417
      00FF49E7H   LINE      CODE     ---       #421
      00FF49E9H   LINE      CODE     ---       #424
      00FF49E9H   LINE      CODE     ---       #428
      00FF49ECH   LINE      CODE     ---       #429
      00FF49F0H   LINE      CODE     ---       #430
      00FF49F4H   LINE      CODE     ---       #431
      00FF49F7H   LINE      CODE     ---       #441
      00FF49FAH   LINE      CODE     ---       #443
      00FF4A0CH   LINE      CODE     ---       #445
      00FF4A10H   LINE      CODE     ---       #446
      00FF4A12H   LINE      CODE     ---       #447
      00FF4A1EH   LINE      CODE     ---       #451
      00FF4A21H   LINE      CODE     ---       #452
      00FF4A21H   LINE      CODE     ---       #456
      00FF4A21H   LINE      CODE     ---       #459
      00FF4A21H   LINE      CODE     ---       #462
      00FF4A26H   LINE      CODE     ---       #464
      ---         BLOCKEND  ---      ---       LVL=0

      ---         MODULE    ---      ---       zf_device_ble6a20
      000000D0H   SFRSYM    DATA     BYTE      PSW
      0000009DH   SFRSYM    DATA     BYTE      IRCBAND
      00000097H   SFRSYM    DATA     BYTE      AUXR2
      000000EFH   SFRSYM    DATA     BYTE      AUXINTIF
      000000FDH   SFRSYM    DATA     BYTE      S4CON
L251 LINKER/LOCATER V4.66.93.0                                                        01/25/2026  01:33:53  PAGE 77


      000000ACH   SFRSYM    DATA     BYTE      S3CON
      0000009AH   SFRSYM    DATA     BYTE      S2CON
      000000B7H   SFRSYM    DATA     BYTE      IPH
      000000CDH   SFRSYM    DATA     BYTE      SPSTAT
      000000DDH   SFRSYM    DATA     BYTE      T4T3M
      000000C1H   SFRSYM    DATA     BYTE      WDT_CONTR
      000000DFH   SFRSYM    DATA     BYTE      IP3
      000000F4H   SFRSYM    DATA     BYTE      USBCON
      000000B5H   SFRSYM    DATA     BYTE      IP2
      000000FFH   SFRSYM    DATA     BYTE      RSTCFG
      000000C7H   SFRSYM    DATA     BYTE      IAP_CONTR
      000000F9H   SFRSYM    DATA     BYTE      LINICR
      0000008EH   SFRSYM    DATA     BYTE      AUXR
      000000AFH   SFRSYM    DATA     BYTE      IE2
      00000088H   SFRSYM    DATA     BYTE      TCON
      00000089H   SFRSYM    DATA     BYTE      TMOD
      00000098H   SFRSYM    DATA     BYTE      SCON
      000000F1H   SFRSYM    DATA     BYTE      CANICR
      00000087H   SFRSYM    DATA     BYTE      PCON
      000000BCH   SFRSYM    DATA     BYTE      ADC_CONTR
      000000E7H   SFRSYM    DATA     BYTE      CMPCR2
      000000E6H   SFRSYM    DATA     BYTE      CMPCR1
      000000DEH   SFRSYM    DATA     BYTE      ADCCFG
      000000B8H   SFRSYM    DATA     BYTE      IP
      0000008FH   SFRSYM    DATA     BYTE      INTCLKO
      000000EEH   SFRSYM    DATA     BYTE      IP3H
      000000B6H   SFRSYM    DATA     BYTE      IP2H
      000000A8H   SFRSYM    DATA     BYTE      IE
      000000BBH   SFRSYM    DATA     BYTE      P_SW3
      000000BAH   SFRSYM    DATA     BYTE      P_SW2
      000000A2H   SFRSYM    DATA     BYTE      P_SW1
      000000CEH   SFRSYM    DATA     BYTE      SPCTL
      000000F8H   SFRSYM    DATA     BYTE      P7
      000000E8H   SFRSYM    DATA     BYTE      P6
      000000C8H   SFRSYM    DATA     BYTE      P5
      000000C0H   SFRSYM    DATA     BYTE      P4
      000000B0H   SFRSYM    DATA     BYTE      P3
      000000A0H   SFRSYM    DATA     BYTE      P2
      00000090H   SFRSYM    DATA     BYTE      P1
      00000080H   SFRSYM    DATA     BYTE      P0
      00010725H   SYMBOL    XDATA    ---       ble6a20_buffer
      00010765H   SYMBOL    XDATA    ---       ble6a20_fifo
      R15         REGSYM    ---      BYTE      dat
      WR12        REGSYM    ---      WORD      time_cnt
      DR12        REGSYM    ---      DWORD     len
      REG=3       REGSYM    ---      ---       str
      REG=3       REGSYM    ---      ---       buff
      DR4         REGSYM    ---      DWORD     len

      ---         MODULE    ---      ---       zf_device_config
      00FF01CEH   PUBLIC    CODE     ---       imu660ra_config_file

      ---         MODULE    ---      ---       zf_device_dl1a
      00010952H   PUBLIC    XDATA    WORD      dl1a_distance_mm
      00010954H   PUBLIC    XDATA    BYTE      dl1a_finsh_flag
      000000D0H   SFRSYM    DATA     BYTE      PSW
      0000009DH   SFRSYM    DATA     BYTE      IRCBAND
      00000097H   SFRSYM    DATA     BYTE      AUXR2
      000000EFH   SFRSYM    DATA     BYTE      AUXINTIF
      000000FDH   SFRSYM    DATA     BYTE      S4CON
      000000ACH   SFRSYM    DATA     BYTE      S3CON
      0000009AH   SFRSYM    DATA     BYTE      S2CON
      000000B7H   SFRSYM    DATA     BYTE      IPH
      000000CDH   SFRSYM    DATA     BYTE      SPSTAT
      000000DDH   SFRSYM    DATA     BYTE      T4T3M
L251 LINKER/LOCATER V4.66.93.0                                                        01/25/2026  01:33:53  PAGE 78


      000000C1H   SFRSYM    DATA     BYTE      WDT_CONTR
      000000DFH   SFRSYM    DATA     BYTE      IP3
      000000F4H   SFRSYM    DATA     BYTE      USBCON
      000000B5H   SFRSYM    DATA     BYTE      IP2
      000000FFH   SFRSYM    DATA     BYTE      RSTCFG
      000000C7H   SFRSYM    DATA     BYTE      IAP_CONTR
      000000F9H   SFRSYM    DATA     BYTE      LINICR
      0000008EH   SFRSYM    DATA     BYTE      AUXR
      000000AFH   SFRSYM    DATA     BYTE      IE2
      00000088H   SFRSYM    DATA     BYTE      TCON
      00000089H   SFRSYM    DATA     BYTE      TMOD
      00000098H   SFRSYM    DATA     BYTE      SCON
      000000F1H   SFRSYM    DATA     BYTE      CANICR
      00000087H   SFRSYM    DATA     BYTE      PCON
      000000BCH   SFRSYM    DATA     BYTE      ADC_CONTR
      000000E7H   SFRSYM    DATA     BYTE      CMPCR2
      000000E6H   SFRSYM    DATA     BYTE      CMPCR1
      000000DEH   SFRSYM    DATA     BYTE      ADCCFG
      000000B8H   SFRSYM    DATA     BYTE      IP
      0000008FH   SFRSYM    DATA     BYTE      INTCLKO
      000000EEH   SFRSYM    DATA     BYTE      IP3H
      000000B6H   SFRSYM    DATA     BYTE      IP2H
      000000A8H   SFRSYM    DATA     BYTE      IE
      000000BBH   SFRSYM    DATA     BYTE      P_SW3
      000000BAH   SFRSYM    DATA     BYTE      P_SW2
      000000A2H   SFRSYM    DATA     BYTE      P_SW1
      000000CEH   SFRSYM    DATA     BYTE      SPCTL
      000000F8H   SFRSYM    DATA     BYTE      P7
      000000E8H   SFRSYM    DATA     BYTE      P6
      000000C8H   SFRSYM    DATA     BYTE      P5
      000000C0H   SFRSYM    DATA     BYTE      P4
      000000B0H   SFRSYM    DATA     BYTE      P3
      000000A0H   SFRSYM    DATA     BYTE      P2
      00000090H   SFRSYM    DATA     BYTE      P1
      00000080H   SFRSYM    DATA     BYTE      P0
      00FF7DFCH   SYMBOL    HCONST   ---       ?tpl?0001
      00FF7E04H   SYMBOL    HCONST   ---       ?tpl?0002
      00FF7E0AH   SYMBOL    HCONST   ---       ?tpl?0003
      00FF7E14H   SYMBOL    HCONST   ---       ?tpl?0004
      00010949H   SYMBOL    XDATA    ---       dl1a_iic_struct
      00010955H   SYMBOL    XDATA    BYTE      dl1a_init_flag
      REG=3       REGSYM    ---      ---       type_is_aperture
      WR30        REGSYM    ---      WORD      timeout_period_mclks
      R5          REGSYM    ---      BYTE      vcsel_period_pclks
      DR24        REGSYM    ---      DWORD     macro_period_ns
      DR28        REGSYM    ---      DWORD     timeout_period_us
      R3          REGSYM    ---      BYTE      vcsel_period_pclks
      DR8         REGSYM    ---      DWORD     macro_period_ns
      WR4         REGSYM    ---      WORD      reg_val
      WR2         REGSYM    ---      WORD      timeout_mclks
      DR8         REGSYM    ---      DWORD     ls_byte
      WR4         REGSYM    ---      WORD      ms_byte
      WR6         REGSYM    ---      WORD      return_data
      REG=3       REGSYM    ---      ---       enables
      WR6         REGSYM    ---      INT       type
      REG=3       REGSYM    ---      ---       timeouts
      R10         REGSYM    ---      BYTE      vhv_init_byte
      R15         REGSYM    ---      BYTE      return_state
      DR12        REGSYM    ---      DWORD     budget_us
      WR6         REGSYM    ---      WORD      dat
      DR4         REGSYM    ---      DWORD     final_range_timeout_us
      DR12        REGSYM    ---      DWORD     budget_us
      DR28        REGSYM    ---      FLOAT     limit_mcps
      WR14        REGSYM    ---      WORD      limit_mcps_16bit
      R15         REGSYM    ---      BYTE      return_state
L251 LINKER/LOCATER V4.66.93.0                                                        01/25/2026  01:33:53  PAGE 79


      R14         REGSYM    ---      BYTE      reg_data_buffer
      WR12        REGSYM    ---      WORD      i

      ---         MODULE    ---      ---       zf_device_dl1b
      0001095FH   PUBLIC    XDATA    WORD      dl1b_distance_mm
      00010961H   PUBLIC    XDATA    BYTE      dl1b_finsh_flag
      000000D0H   SFRSYM    DATA     BYTE      PSW
      0000009DH   SFRSYM    DATA     BYTE      IRCBAND
      00000097H   SFRSYM    DATA     BYTE      AUXR2
      000000EFH   SFRSYM    DATA     BYTE      AUXINTIF
      000000FDH   SFRSYM    DATA     BYTE      S4CON
      000000ACH   SFRSYM    DATA     BYTE      S3CON
      0000009AH   SFRSYM    DATA     BYTE      S2CON
      000000B7H   SFRSYM    DATA     BYTE      IPH
      000000CDH   SFRSYM    DATA     BYTE      SPSTAT
      000000DDH   SFRSYM    DATA     BYTE      T4T3M
      000000C1H   SFRSYM    DATA     BYTE      WDT_CONTR
      000000DFH   SFRSYM    DATA     BYTE      IP3
      000000F4H   SFRSYM    DATA     BYTE      USBCON
      000000B5H   SFRSYM    DATA     BYTE      IP2
      000000FFH   SFRSYM    DATA     BYTE      RSTCFG
      000000C7H   SFRSYM    DATA     BYTE      IAP_CONTR
      000000F9H   SFRSYM    DATA     BYTE      LINICR
      0000008EH   SFRSYM    DATA     BYTE      AUXR
      000000AFH   SFRSYM    DATA     BYTE      IE2
      00000088H   SFRSYM    DATA     BYTE      TCON
      00000089H   SFRSYM    DATA     BYTE      TMOD
      00000098H   SFRSYM    DATA     BYTE      SCON
      000000F1H   SFRSYM    DATA     BYTE      CANICR
      00000087H   SFRSYM    DATA     BYTE      PCON
      000000BCH   SFRSYM    DATA     BYTE      ADC_CONTR
      000000E7H   SFRSYM    DATA     BYTE      CMPCR2
      000000E6H   SFRSYM    DATA     BYTE      CMPCR1
      000000DEH   SFRSYM    DATA     BYTE      ADCCFG
      000000B8H   SFRSYM    DATA     BYTE      IP
      0000008FH   SFRSYM    DATA     BYTE      INTCLKO
      000000EEH   SFRSYM    DATA     BYTE      IP3H
      000000B6H   SFRSYM    DATA     BYTE      IP2H
      000000A8H   SFRSYM    DATA     BYTE      IE
      000000BBH   SFRSYM    DATA     BYTE      P_SW3
      000000BAH   SFRSYM    DATA     BYTE      P_SW2
      000000A2H   SFRSYM    DATA     BYTE      P_SW1
      000000CEH   SFRSYM    DATA     BYTE      SPCTL
      000000F8H   SFRSYM    DATA     BYTE      P7
      000000E8H   SFRSYM    DATA     BYTE      P6
      000000C8H   SFRSYM    DATA     BYTE      P5
      000000C0H   SFRSYM    DATA     BYTE      P4
      000000B0H   SFRSYM    DATA     BYTE      P3
      000000A0H   SFRSYM    DATA     BYTE      P2
      00000090H   SFRSYM    DATA     BYTE      P1
      00000080H   SFRSYM    DATA     BYTE      P0
      00010956H   SYMBOL    XDATA    ---       dl1b_iic_struct
      00010962H   SYMBOL    XDATA    BYTE      dl1b_init_flag
      WR14        REGSYM    ---      INT       dl1b_distance_temp

      ---         MODULE    ---      ---       zf_device_gps_tau1201
      00010219H   PUBLIC    XDATA    BYTE      gps_tau1201_flag
      0001029AH   PUBLIC    XDATA    ---       gps_tau1201
      000103C6H   PUBLIC    XDATA    INT       gps_gga_state
      000103C8H   PUBLIC    XDATA    INT       gps_rmc_state
      000000D0H   SFRSYM    DATA     BYTE      PSW
      0000009DH   SFRSYM    DATA     BYTE      IRCBAND
      00000097H   SFRSYM    DATA     BYTE      AUXR2
      000000EFH   SFRSYM    DATA     BYTE      AUXINTIF
      000000FDH   SFRSYM    DATA     BYTE      S4CON
L251 LINKER/LOCATER V4.66.93.0                                                        01/25/2026  01:33:53  PAGE 80


      000000ACH   SFRSYM    DATA     BYTE      S3CON
      0000009AH   SFRSYM    DATA     BYTE      S2CON
      000000B7H   SFRSYM    DATA     BYTE      IPH
      000000CDH   SFRSYM    DATA     BYTE      SPSTAT
      000000DDH   SFRSYM    DATA     BYTE      T4T3M
      000000C1H   SFRSYM    DATA     BYTE      WDT_CONTR
      000000DFH   SFRSYM    DATA     BYTE      IP3
      000000F4H   SFRSYM    DATA     BYTE      USBCON
      000000B5H   SFRSYM    DATA     BYTE      IP2
      000000FFH   SFRSYM    DATA     BYTE      RSTCFG
      000000C7H   SFRSYM    DATA     BYTE      IAP_CONTR
      000000F9H   SFRSYM    DATA     BYTE      LINICR
      0000008EH   SFRSYM    DATA     BYTE      AUXR
      000000AFH   SFRSYM    DATA     BYTE      IE2
      00000088H   SFRSYM    DATA     BYTE      TCON
      00000089H   SFRSYM    DATA     BYTE      TMOD
      00000098H   SFRSYM    DATA     BYTE      SCON
      000000F1H   SFRSYM    DATA     BYTE      CANICR
      00000087H   SFRSYM    DATA     BYTE      PCON
      000000BCH   SFRSYM    DATA     BYTE      ADC_CONTR
      000000E7H   SFRSYM    DATA     BYTE      CMPCR2
      000000E6H   SFRSYM    DATA     BYTE      CMPCR1
      000000DEH   SFRSYM    DATA     BYTE      ADCCFG
      000000B8H   SFRSYM    DATA     BYTE      IP
      0000008FH   SFRSYM    DATA     BYTE      INTCLKO
      000000EEH   SFRSYM    DATA     BYTE      IP3H
      000000B6H   SFRSYM    DATA     BYTE      IP2H
      000000A8H   SFRSYM    DATA     BYTE      IE
      000000BBH   SFRSYM    DATA     BYTE      P_SW3
      000000BAH   SFRSYM    DATA     BYTE      P_SW2
      000000A2H   SFRSYM    DATA     BYTE      P_SW1
      000000CEH   SFRSYM    DATA     BYTE      SPCTL
      000000F8H   SFRSYM    DATA     BYTE      P7
      000000E8H   SFRSYM    DATA     BYTE      P6
      000000C8H   SFRSYM    DATA     BYTE      P5
      000000C0H   SFRSYM    DATA     BYTE      P4
      000000B0H   SFRSYM    DATA     BYTE      P3
      000000A0H   SFRSYM    DATA     BYTE      P2
      00000090H   SFRSYM    DATA     BYTE      P1
      00000080H   SFRSYM    DATA     BYTE      P0
      00FF80D7H   SYMBOL    HCONST   ---       ?tpl?0001
      00FF80DCH   SYMBOL    HCONST   ---       ?tpl?0002
      00FF80F8H   SYMBOL    HCONST   ---       ?tpl?0003
      00FF8103H   SYMBOL    HCONST   ---       ?tpl?0004
      00FF810EH   SYMBOL    HCONST   ---       ?tpl?0005
      00FF8119H   SYMBOL    HCONST   ---       ?tpl?0006
      00FF8124H   SYMBOL    HCONST   ---       ?tpl?0007
      00FF812FH   SYMBOL    HCONST   ---       ?tpl?0008
      00FF813AH   SYMBOL    HCONST   ---       ?tpl?0009
      00FF8145H   SYMBOL    HCONST   ---       ?tpl?000A
      00FF8150H   SYMBOL    HCONST   ---       ?tpl?000B
      00FF815BH   SYMBOL    HCONST   ---       ?tpl?000C
      00FF8166H   SYMBOL    HCONST   ---       ?tpl?000D
      00010202H   SYMBOL    XDATA    ---       gps_tau1201_receiver_fifo
      0001021AH   SYMBOL    XDATA    ---       gps_gga_buffer
      000102C5H   SYMBOL    XDATA    BYTE      gps_tau1201_state
      000102C6H   SYMBOL    XDATA    ---       gps_rmc_buffer
      00010346H   SYMBOL    XDATA    ---       gps_tau1201_receiver_buffer
      REG=3       REGSYM    ---      ---       str
      REG=7       REGSYM    ---      ---       temp
      R7          REGSYM    ---      BYTE      len
      R10         REGSYM    ---      BYTE      len1
      REG=3       REGSYM    ---      ---       s
      WR6         REGSYM    ---      INT       return_value
      REG=3       REGSYM    ---      ---       s
L251 LINKER/LOCATER V4.66.93.0                                                        01/25/2026  01:33:53  PAGE 81


      DR4         REGSYM    ---      FLOAT     return_value
      REG=3       REGSYM    ---      ---       s
      DR4         REGSYM    ---      FLOAT     return_value
      REG=7       REGSYM    ---      ---       time
      R6          REGSYM    ---      BYTE      day_num
      REG=0       REGSYM    ---      ---       line
      REG=3       REGSYM    ---      ---       gps
      R10         REGSYM    ---      BYTE      state
      R7          REGSYM    ---      BYTE      temp
      DR24        REGSYM    ---      FLOAT     longitude
      DR20        REGSYM    ---      FLOAT     lati_cent_tmp
      DR4         REGSYM    ---      FLOAT     lati_second_tmp
      DR24        REGSYM    ---      FLOAT     long_cent_tmp
      DR4         REGSYM    ---      FLOAT     long_second_tmp
      DR4         REGSYM    ---      FLOAT     speed_tmp
      REG=0       REGSYM    ---      ---       line
      R11         REGSYM    ---      BYTE      state
      DR24        REGSYM    ---      FLOAT     latitude1
      DR28        REGSYM    ---      FLOAT     longitude1
      DR24        REGSYM    ---      FLOAT     rad_longitude1
      DR28        REGSYM    ---      FLOAT     rad_longitude2
      DR28        REGSYM    ---      FLOAT     distance
      DR4         REGSYM    ---      FLOAT     b
      DR12        REGSYM    ---      DWORD     data_len

      ---         MODULE    ---      ---       zf_device_icm20602
      00010921H   PUBLIC    XDATA    INT       icm20602_acc_x
      00010923H   PUBLIC    XDATA    INT       icm20602_acc_y
      00010925H   PUBLIC    XDATA    INT       icm20602_acc_z
      00010927H   PUBLIC    XDATA    INT       icm20602_gyro_x
      00010929H   PUBLIC    XDATA    INT       icm20602_gyro_y
      0001092BH   PUBLIC    XDATA    INT       icm20602_gyro_z
      0001092DH   PUBLIC    XDATA    ---       icm20602_transition_factor
      000000D0H   SFRSYM    DATA     BYTE      PSW
      0000009DH   SFRSYM    DATA     BYTE      IRCBAND
      00000097H   SFRSYM    DATA     BYTE      AUXR2
      000000EFH   SFRSYM    DATA     BYTE      AUXINTIF
      000000FDH   SFRSYM    DATA     BYTE      S4CON
      000000ACH   SFRSYM    DATA     BYTE      S3CON
      0000009AH   SFRSYM    DATA     BYTE      S2CON
      000000B7H   SFRSYM    DATA     BYTE      IPH
      000000CDH   SFRSYM    DATA     BYTE      SPSTAT
      000000DDH   SFRSYM    DATA     BYTE      T4T3M
      000000C1H   SFRSYM    DATA     BYTE      WDT_CONTR
      000000DFH   SFRSYM    DATA     BYTE      IP3
      000000F4H   SFRSYM    DATA     BYTE      USBCON
      000000B5H   SFRSYM    DATA     BYTE      IP2
      000000FFH   SFRSYM    DATA     BYTE      RSTCFG
      000000C7H   SFRSYM    DATA     BYTE      IAP_CONTR
      000000F9H   SFRSYM    DATA     BYTE      LINICR
      0000008EH   SFRSYM    DATA     BYTE      AUXR
      000000AFH   SFRSYM    DATA     BYTE      IE2
      000000C0H.3 SFRSYM    DATA     BIT       P43
      000000C0H.2 SFRSYM    DATA     BIT       P42
      00000088H   SFRSYM    DATA     BYTE      TCON
      00000089H   SFRSYM    DATA     BYTE      TMOD
      000000C0H.1 SFRSYM    DATA     BIT       P41
      00000098H   SFRSYM    DATA     BYTE      SCON
      000000C0H.0 SFRSYM    DATA     BIT       P40
      000000F1H   SFRSYM    DATA     BYTE      CANICR
      00000087H   SFRSYM    DATA     BYTE      PCON
      000000BCH   SFRSYM    DATA     BYTE      ADC_CONTR
      000000E7H   SFRSYM    DATA     BYTE      CMPCR2
      000000E6H   SFRSYM    DATA     BYTE      CMPCR1
      000000DEH   SFRSYM    DATA     BYTE      ADCCFG
L251 LINKER/LOCATER V4.66.93.0                                                        01/25/2026  01:33:53  PAGE 82


      000000B8H   SFRSYM    DATA     BYTE      IP
      0000008FH   SFRSYM    DATA     BYTE      INTCLKO
      000000EEH   SFRSYM    DATA     BYTE      IP3H
      000000B6H   SFRSYM    DATA     BYTE      IP2H
      000000A8H   SFRSYM    DATA     BYTE      IE
      000000BBH   SFRSYM    DATA     BYTE      P_SW3
      000000BAH   SFRSYM    DATA     BYTE      P_SW2
      000000A2H   SFRSYM    DATA     BYTE      P_SW1
      000000CEH   SFRSYM    DATA     BYTE      SPCTL
      000000F8H   SFRSYM    DATA     BYTE      P7
      000000E8H   SFRSYM    DATA     BYTE      P6
      000000C8H   SFRSYM    DATA     BYTE      P5
      000000C0H   SFRSYM    DATA     BYTE      P4
      000000B0H   SFRSYM    DATA     BYTE      P3
      000000A0H   SFRSYM    DATA     BYTE      P2
      00000090H   SFRSYM    DATA     BYTE      P1
      00000080H   SFRSYM    DATA     BYTE      P0
      R7          REGSYM    ---      BYTE      byte
      R6          REGSYM    ---      BYTE      i
      R7          REGSYM    ---      BYTE      cmd
      R15         REGSYM    ---      BYTE      val
      R7          REGSYM    ---      BYTE      cmd
      REG=3       REGSYM    ---      ---       val
      R7          REGSYM    ---      BYTE      cmd
      REG=3       REGSYM    ---      ---       val
      R11         REGSYM    ---      BYTE      reg
      R7          REGSYM    ---      BYTE      dat
      R7          REGSYM    ---      BYTE      reg
      R3          REGSYM    ---      BYTE      reg
      REG=1       REGSYM    ---      ---       dat
      DR28        REGSYM    ---      DWORD     len
      R14         REGSYM    ---      BYTE      dat
      R15         REGSYM    ---      BYTE      return_state
      WR12        REGSYM    ---      WORD      timeout_count
      R14         REGSYM    ---      BYTE      val
      R15         REGSYM    ---      BYTE      return_state
      WR12        REGSYM    ---      WORD      timeout_count

      ---         MODULE    ---      ---       zf_device_imu660ra
      00010935H   PUBLIC    XDATA    INT       imu660ra_acc_x
      00010937H   PUBLIC    XDATA    INT       imu660ra_acc_y
      00010939H   PUBLIC    XDATA    INT       imu660ra_acc_z
      0001093BH   PUBLIC    XDATA    INT       imu660ra_gyro_x
      0001093DH   PUBLIC    XDATA    INT       imu660ra_gyro_y
      0001093FH   PUBLIC    XDATA    INT       imu660ra_gyro_z
      00010941H   PUBLIC    XDATA    ---       imu660ra_transition_factor
      000000D0H   SFRSYM    DATA     BYTE      PSW
      0000009DH   SFRSYM    DATA     BYTE      IRCBAND
      00000097H   SFRSYM    DATA     BYTE      AUXR2
      000000EFH   SFRSYM    DATA     BYTE      AUXINTIF
      000000FDH   SFRSYM    DATA     BYTE      S4CON
      000000ACH   SFRSYM    DATA     BYTE      S3CON
      0000009AH   SFRSYM    DATA     BYTE      S2CON
      000000B7H   SFRSYM    DATA     BYTE      IPH
      000000CDH   SFRSYM    DATA     BYTE      SPSTAT
      000000DDH   SFRSYM    DATA     BYTE      T4T3M
      000000C1H   SFRSYM    DATA     BYTE      WDT_CONTR
      000000DFH   SFRSYM    DATA     BYTE      IP3
      000000F4H   SFRSYM    DATA     BYTE      USBCON
      000000B5H   SFRSYM    DATA     BYTE      IP2
      000000FFH   SFRSYM    DATA     BYTE      RSTCFG
      000000C7H   SFRSYM    DATA     BYTE      IAP_CONTR
      000000F9H   SFRSYM    DATA     BYTE      LINICR
      0000008EH   SFRSYM    DATA     BYTE      AUXR
      000000AFH   SFRSYM    DATA     BYTE      IE2
L251 LINKER/LOCATER V4.66.93.0                                                        01/25/2026  01:33:53  PAGE 83


      000000C0H.3 SFRSYM    DATA     BIT       P43
      000000C0H.2 SFRSYM    DATA     BIT       P42
      00000088H   SFRSYM    DATA     BYTE      TCON
      00000089H   SFRSYM    DATA     BYTE      TMOD
      000000C0H.1 SFRSYM    DATA     BIT       P41
      00000098H   SFRSYM    DATA     BYTE      SCON
      000000C0H.0 SFRSYM    DATA     BIT       P40
      000000F1H   SFRSYM    DATA     BYTE      CANICR
      00000087H   SFRSYM    DATA     BYTE      PCON
      000000BCH   SFRSYM    DATA     BYTE      ADC_CONTR
      000000E7H   SFRSYM    DATA     BYTE      CMPCR2
      000000E6H   SFRSYM    DATA     BYTE      CMPCR1
      000000DEH   SFRSYM    DATA     BYTE      ADCCFG
      000000B8H   SFRSYM    DATA     BYTE      IP
      0000008FH   SFRSYM    DATA     BYTE      INTCLKO
      000000EEH   SFRSYM    DATA     BYTE      IP3H
      000000B6H   SFRSYM    DATA     BYTE      IP2H
      000000A8H   SFRSYM    DATA     BYTE      IE
      000000BBH   SFRSYM    DATA     BYTE      P_SW3
      000000BAH   SFRSYM    DATA     BYTE      P_SW2
      000000A2H   SFRSYM    DATA     BYTE      P_SW1
      000000CEH   SFRSYM    DATA     BYTE      SPCTL
      000000F8H   SFRSYM    DATA     BYTE      P7
      000000E8H   SFRSYM    DATA     BYTE      P6
      000000C8H   SFRSYM    DATA     BYTE      P5
      000000C0H   SFRSYM    DATA     BYTE      P4
      000000B0H   SFRSYM    DATA     BYTE      P3
      000000A0H   SFRSYM    DATA     BYTE      P2
      00000090H   SFRSYM    DATA     BYTE      P1
      00000080H   SFRSYM    DATA     BYTE      P0
      R7          REGSYM    ---      BYTE      byte
      R6          REGSYM    ---      BYTE      i
      R7          REGSYM    ---      BYTE      cmd
      R15         REGSYM    ---      BYTE      val
      R11         REGSYM    ---      BYTE      cmd
      DR12        REGSYM    ---      DWORD     len
      R7          REGSYM    ---      BYTE      cmd
      REG=3       REGSYM    ---      ---       val
      R11         REGSYM    ---      BYTE      reg
      R7          REGSYM    ---      BYTE      dat
      R3          REGSYM    ---      BYTE      reg
      REG=1       REGSYM    ---      ---       dat
      DR28        REGSYM    ---      DWORD     len
      R7          REGSYM    ---      BYTE      reg
      R5          REGSYM    ---      BYTE      reg
      REG=3       REGSYM    ---      ---       dat
      R14         REGSYM    ---      BYTE      dat
      R15         REGSYM    ---      BYTE      return_state
      WR12        REGSYM    ---      WORD      timeout_count
      R15         REGSYM    ---      BYTE      return_state

      ---         MODULE    ---      ---       zf_device_imu660rb
      00FF6D07H   PUBLIC    CODE     ---       imu660rb_get_gyro
      00FF7612H   PUBLIC    CODE     ---       imu660rb_gyro_transition
      00FF68B9H   PUBLIC    CODE     ---       imu660rb_init
      00FF6D57H   PUBLIC    CODE     ---       imu660rb_get_acc
      00FF7624H   PUBLIC    CODE     ---       imu660rb_acc_transition
      0001097BH   PUBLIC    XDATA    INT       imu660rb_acc_x
      0001097DH   PUBLIC    XDATA    INT       imu660rb_acc_y
      0001097FH   PUBLIC    XDATA    INT       imu660rb_acc_z
      00010981H   PUBLIC    XDATA    INT       imu660rb_gyro_x
      00010983H   PUBLIC    XDATA    INT       imu660rb_gyro_y
      00010985H   PUBLIC    XDATA    INT       imu660rb_gyro_z
      000000D0H   SFRSYM    DATA     BYTE      PSW
      0000009DH   SFRSYM    DATA     BYTE      IRCBAND
L251 LINKER/LOCATER V4.66.93.0                                                        01/25/2026  01:33:53  PAGE 84


      00000097H   SFRSYM    DATA     BYTE      AUXR2
      000000EFH   SFRSYM    DATA     BYTE      AUXINTIF
      000000FDH   SFRSYM    DATA     BYTE      S4CON
      000000ACH   SFRSYM    DATA     BYTE      S3CON
      0000009AH   SFRSYM    DATA     BYTE      S2CON
      000000B7H   SFRSYM    DATA     BYTE      IPH
      000000CDH   SFRSYM    DATA     BYTE      SPSTAT
      000000DDH   SFRSYM    DATA     BYTE      T4T3M
      000000C1H   SFRSYM    DATA     BYTE      WDT_CONTR
      000000DFH   SFRSYM    DATA     BYTE      IP3
      000000F4H   SFRSYM    DATA     BYTE      USBCON
      000000B5H   SFRSYM    DATA     BYTE      IP2
      000000FFH   SFRSYM    DATA     BYTE      RSTCFG
      000000C7H   SFRSYM    DATA     BYTE      IAP_CONTR
      000000F9H   SFRSYM    DATA     BYTE      LINICR
      0000008EH   SFRSYM    DATA     BYTE      AUXR
      000000AFH   SFRSYM    DATA     BYTE      IE2
      000000C0H.3 SFRSYM    DATA     BIT       P43
      000000C0H.2 SFRSYM    DATA     BIT       P42
      00000088H   SFRSYM    DATA     BYTE      TCON
      00000089H   SFRSYM    DATA     BYTE      TMOD
      000000C0H.1 SFRSYM    DATA     BIT       P41
      00000098H   SFRSYM    DATA     BYTE      SCON
      000000C0H.0 SFRSYM    DATA     BIT       P40
      000000F1H   SFRSYM    DATA     BYTE      CANICR
      00000087H   SFRSYM    DATA     BYTE      PCON
      000000BCH   SFRSYM    DATA     BYTE      ADC_CONTR
      000000E7H   SFRSYM    DATA     BYTE      CMPCR2
      000000E6H   SFRSYM    DATA     BYTE      CMPCR1
      000000DEH   SFRSYM    DATA     BYTE      ADCCFG
      000000B8H   SFRSYM    DATA     BYTE      IP
      0000008FH   SFRSYM    DATA     BYTE      INTCLKO
      000000EEH   SFRSYM    DATA     BYTE      IP3H
      000000B6H   SFRSYM    DATA     BYTE      IP2H
      000000A8H   SFRSYM    DATA     BYTE      IE
      000000BBH   SFRSYM    DATA     BYTE      P_SW3
      000000BAH   SFRSYM    DATA     BYTE      P_SW2
      000000A2H   SFRSYM    DATA     BYTE      P_SW1
      000000CEH   SFRSYM    DATA     BYTE      SPCTL
      000000F8H   SFRSYM    DATA     BYTE      P7
      000000E8H   SFRSYM    DATA     BYTE      P6
      000000C8H   SFRSYM    DATA     BYTE      P5
      000000C0H   SFRSYM    DATA     BYTE      P4
      000000B0H   SFRSYM    DATA     BYTE      P3
      000000A0H   SFRSYM    DATA     BYTE      P2
      00000090H   SFRSYM    DATA     BYTE      P1
      00000080H   SFRSYM    DATA     BYTE      P0
      00FF75D6H   SYMBOL    CODE     ---       imu660rb_read_register
      00FF0003H   SYMBOL    CODE     ---       imu660rb_write_register
      00FF7597H   SYMBOL    CODE     ---       imu660rb_simspi_wr_byte
      00FF742CH   SYMBOL    CODE     ---       imu660rb_self_check
      00FF6F92H   SYMBOL    CODE     ---       imu660rb_simspi_r_reg_bytes
      00FF0026H   SYMBOL    CODE     ---       imu660rb_simspi_r_reg_byte
      00FF7646H   SYMBOL    CODE     ---       imu660rb_simspi_w_reg_byte
      00FF7636H   SYMBOL    CODE     ---       imu660rb_read_registers

      00FF7597H   BLOCK     CODE     ---       LVL=0
      R7          REGSYM    ---      BYTE      byte
      00FF7599H   BLOCK     CODE     NEAR LAB  LVL=1
      R6          REGSYM    ---      BYTE      i
      ---         BLOCKEND  ---      ---       LVL=1
      00FF7597H   LINE      CODE     ---       #152
      00FF7599H   LINE      CODE     ---       #153
      00FF7599H   LINE      CODE     ---       #155
      00FF759BH   LINE      CODE     ---       #157
L251 LINKER/LOCATER V4.66.93.0                                                        01/25/2026  01:33:53  PAGE 85


      00FF759DH   LINE      CODE     ---       #158
      00FF75A2H   LINE      CODE     ---       #159
      00FF75A4H   LINE      CODE     ---       #160
      00FF75A6H   LINE      CODE     ---       #161
      00FF75ACH   LINE      CODE     ---       #162
      00FF75B3H   LINE      CODE     ---       #163
      00FF75B5H   LINE      CODE     ---       #164
      00FF75B7H   LINE      CODE     ---       #165
      ---         BLOCKEND  ---      ---       LVL=0

      00FF7646H   BLOCK     CODE     ---       LVL=0
      R7          REGSYM    ---      BYTE      cmd
      R15         REGSYM    ---      BYTE      val
      00FF7646H   LINE      CODE     ---       #174
      00FF764AH   LINE      CODE     ---       #176
      00FF764AH   LINE      CODE     ---       #177
      00FF764DH   LINE      CODE     ---       #178
      00FF7652H   LINE      CODE     ---       #179
      ---         BLOCKEND  ---      ---       LVL=0

      00FF0026H   BLOCK     CODE     ---       LVL=0
      R7          REGSYM    ---      BYTE      cmd
      REG=3       REGSYM    ---      ---       val
      00FF0026H   LINE      CODE     ---       #188
      00FF002CH   LINE      CODE     ---       #190
      00FF002EH   LINE      CODE     ---       #191
      00FF0031H   LINE      CODE     ---       #192
      00FF0036H   LINE      CODE     ---       #193
      00FF003DH   LINE      CODE     ---       #194
      00FF003FH   LINE      CODE     ---       #195
      ---         BLOCKEND  ---      ---       LVL=0

      00FF6F92H   BLOCK     CODE     ---       LVL=0
      R7          REGSYM    ---      BYTE      cmd
      REG=3       REGSYM    ---      ---       val
      00010641H   SYMBOL    XDATA    DWORD     num
      00FF6F92H   LINE      CODE     ---       #223
      00FF6FA2H   LINE      CODE     ---       #225
      00FF6FA5H   LINE      CODE     ---       #226
      00FF6FAAH   LINE      CODE     ---       #227
      00FF6FACH   LINE      CODE     ---       #229
      00FF6FB5H   LINE      CODE     ---       #230
      00FF6FCEH   LINE      CODE     ---       #231
      ---         BLOCKEND  ---      ---       LVL=0

      00FF0003H   BLOCK     CODE     ---       LVL=0
      R11         REGSYM    ---      BYTE      reg
      R7          REGSYM    ---      BYTE      dat
      00FF0003H   LINE      CODE     ---       #241
      00FF0003H   LINE      CODE     ---       #243
      00FF0005H   LINE      CODE     ---       #244
      00FF0008H   LINE      CODE     ---       #245
      00FF000AH   LINE      CODE     ---       #246
      ---         BLOCKEND  ---      ---       LVL=0

      00FF75D6H   BLOCK     CODE     ---       LVL=0
      R7          REGSYM    ---      BYTE      reg
      0001063BH   SYMBOL    XDATA    BYTE      dat
      00FF75D6H   LINE      CODE     ---       #255
      00FF75D6H   LINE      CODE     ---       #256
      00FF75D6H   LINE      CODE     ---       #258
      00FF75D8H   LINE      CODE     ---       #259
      00FF75E5H   LINE      CODE     ---       #260
      00FF75E7H   LINE      CODE     ---       #261
      00FF75EBH   LINE      CODE     ---       #262
L251 LINKER/LOCATER V4.66.93.0                                                        01/25/2026  01:33:53  PAGE 86


      ---         BLOCKEND  ---      ---       LVL=0

      00FF7636H   BLOCK     CODE     ---       LVL=0
      R3          REGSYM    ---      BYTE      reg
      REG=1       REGSYM    ---      ---       dat
      DR28        REGSYM    ---      DWORD     len
      00FF7636H   LINE      CODE     ---       #273
      00FF763AH   LINE      CODE     ---       #275
      00FF763CH   LINE      CODE     ---       #276
      00FF7643H   LINE      CODE     ---       #277
      00FF7645H   LINE      CODE     ---       #278
      ---         BLOCKEND  ---      ---       LVL=0

      00FF742CH   BLOCK     CODE     ---       LVL=0
      00FF742EH   BLOCK     CODE     NEAR LAB  LVL=1
      R14         REGSYM    ---      BYTE      dat
      R15         REGSYM    ---      BYTE      return_state
      WR12        REGSYM    ---      WORD      timeout_count
      ---         BLOCKEND  ---      ---       LVL=1
      00FF742CH   LINE      CODE     ---       #300
      00FF742EH   LINE      CODE     ---       #301
      00FF742EH   LINE      CODE     ---       #302
      00FF7430H   LINE      CODE     ---       #303
      00FF7432H   LINE      CODE     ---       #304
      00FF7432H   LINE      CODE     ---       #306
      00FF743CH   LINE      CODE     ---       #308
      00FF743FH   LINE      CODE     ---       #309
      00FF7441H   LINE      CODE     ---       #310
      00FF7441H   LINE      CODE     ---       #311
      00FF7448H   LINE      CODE     ---       #312
      00FF744FH   LINE      CODE     ---       #313
      00FF7454H   LINE      CODE     ---       #314
      00FF7456H   LINE      CODE     ---       #315
      ---         BLOCKEND  ---      ---       LVL=0

      00FF6D57H   BLOCK     CODE     ---       LVL=0
      0001063BH   SYMBOL    XDATA    ---       dat
      00FF6D57H   LINE      CODE     ---       #325
      00FF6D57H   LINE      CODE     ---       #326
      00FF6D57H   LINE      CODE     ---       #329
      00FF6D68H   LINE      CODE     ---       #330
      00FF6D7EH   LINE      CODE     ---       #331
      00FF6D92H   LINE      CODE     ---       #332
      00FF6DA6H   LINE      CODE     ---       #333
      ---         BLOCKEND  ---      ---       LVL=0

      00FF6D07H   BLOCK     CODE     ---       LVL=0
      0001063BH   SYMBOL    XDATA    ---       dat
      00FF6D07H   LINE      CODE     ---       #342
      00FF6D07H   LINE      CODE     ---       #343
      00FF6D07H   LINE      CODE     ---       #346
      00FF6D18H   LINE      CODE     ---       #347
      00FF6D2EH   LINE      CODE     ---       #348
      00FF6D42H   LINE      CODE     ---       #349
      00FF6D56H   LINE      CODE     ---       #350
      ---         BLOCKEND  ---      ---       LVL=0

      00FF7624H   BLOCK     CODE     ---       LVL=0
      WR8         REGSYM    ---      INT       acc_value
      DR4         REGSYM    ---      FLOAT     acc_data
      00FF7624H   LINE      CODE     ---       #359
      00FF7624H   LINE      CODE     ---       #360
      00FF7624H   LINE      CODE     ---       #361
      00FF7624H   LINE      CODE     ---       #362
      00FF7624H   LINE      CODE     ---       #364
L251 LINKER/LOCATER V4.66.93.0                                                        01/25/2026  01:33:53  PAGE 87


      00FF7624H   LINE      CODE     ---       #365
      00FF7624H   LINE      CODE     ---       #366
      00FF7636H   LINE      CODE     ---       #367
      00FF7636H   LINE      CODE     ---       #368
      00FF7636H   LINE      CODE     ---       #369
      00FF7636H   LINE      CODE     ---       #370
      00FF7636H   LINE      CODE     ---       #371
      ---         BLOCKEND  ---      ---       LVL=0

      00FF7612H   BLOCK     CODE     ---       LVL=0
      WR8         REGSYM    ---      INT       gyro_value
      DR4         REGSYM    ---      FLOAT     gyro_data
      00FF7612H   LINE      CODE     ---       #380
      00FF7612H   LINE      CODE     ---       #381
      00FF7612H   LINE      CODE     ---       #382
      00FF7612H   LINE      CODE     ---       #383
      00FF7612H   LINE      CODE     ---       #385
      00FF7612H   LINE      CODE     ---       #386
      00FF7612H   LINE      CODE     ---       #387
      00FF7612H   LINE      CODE     ---       #388
      00FF7612H   LINE      CODE     ---       #389
      00FF7624H   LINE      CODE     ---       #390
      00FF7624H   LINE      CODE     ---       #391
      00FF7624H   LINE      CODE     ---       #392
      00FF7624H   LINE      CODE     ---       #393
      00FF7624H   LINE      CODE     ---       #394
      ---         BLOCKEND  ---      ---       LVL=0

      00FF68B9H   BLOCK     CODE     ---       LVL=0
      00FF68BBH   BLOCK     CODE     NEAR LAB  LVL=1
      R15         REGSYM    ---      BYTE      return_state
      ---         BLOCKEND  ---      ---       LVL=1
      00FF68B9H   LINE      CODE     ---       #403
      00FF68BBH   LINE      CODE     ---       #404
      00FF68BBH   LINE      CODE     ---       #405
      00FF68BDH   LINE      CODE     ---       #406
      00FF68C4H   LINE      CODE     ---       #426
      00FF68C4H   LINE      CODE     ---       #427
      00FF68C9H   LINE      CODE     ---       #432
      00FF68D4H   LINE      CODE     ---       #433
      00FF68D7H   LINE      CODE     ---       #434
      00FF68D9H   LINE      CODE     ---       #435
      00FF68D9H   LINE      CODE     ---       #437
      00FF68E1H   LINE      CODE     ---       #438
      00FF68E9H   LINE      CODE     ---       #445
      00FF68F1H   LINE      CODE     ---       #454
      00FF68F9H   LINE      CODE     ---       #455
      00FF6901H   LINE      CODE     ---       #456
      00FF6908H   LINE      CODE     ---       #457
      00FF690FH   LINE      CODE     ---       #458
      00FF6916H   LINE      CODE     ---       #459
      00FF691EH   LINE      CODE     ---       #461
      00FF691EH   LINE      CODE     ---       #462
      00FF6920H   LINE      CODE     ---       #463
      ---         BLOCKEND  ---      ---       LVL=0

      ---         MODULE    ---      ---       zf_device_imu963ra
      000108EBH   PUBLIC    XDATA    INT       imu963ra_acc_x
      000108EDH   PUBLIC    XDATA    INT       imu963ra_acc_y
      000108EFH   PUBLIC    XDATA    INT       imu963ra_acc_z
      000108F1H   PUBLIC    XDATA    INT       imu963ra_mag_x
      000108F3H   PUBLIC    XDATA    INT       imu963ra_mag_y
      000108F5H   PUBLIC    XDATA    INT       imu963ra_mag_z
      000108F7H   PUBLIC    XDATA    INT       imu963ra_gyro_x
      000108F9H   PUBLIC    XDATA    INT       imu963ra_gyro_y
L251 LINKER/LOCATER V4.66.93.0                                                        01/25/2026  01:33:53  PAGE 88


      000108FBH   PUBLIC    XDATA    INT       imu963ra_gyro_z
      000108FDH   PUBLIC    XDATA    ---       imu963ra_transition_factor
      000000D0H   SFRSYM    DATA     BYTE      PSW
      0000009DH   SFRSYM    DATA     BYTE      IRCBAND
      00000097H   SFRSYM    DATA     BYTE      AUXR2
      000000EFH   SFRSYM    DATA     BYTE      AUXINTIF
      000000FDH   SFRSYM    DATA     BYTE      S4CON
      000000ACH   SFRSYM    DATA     BYTE      S3CON
      0000009AH   SFRSYM    DATA     BYTE      S2CON
      000000B7H   SFRSYM    DATA     BYTE      IPH
      000000CDH   SFRSYM    DATA     BYTE      SPSTAT
      000000DDH   SFRSYM    DATA     BYTE      T4T3M
      000000C1H   SFRSYM    DATA     BYTE      WDT_CONTR
      000000DFH   SFRSYM    DATA     BYTE      IP3
      000000F4H   SFRSYM    DATA     BYTE      USBCON
      000000B5H   SFRSYM    DATA     BYTE      IP2
      000000FFH   SFRSYM    DATA     BYTE      RSTCFG
      000000C7H   SFRSYM    DATA     BYTE      IAP_CONTR
      000000F9H   SFRSYM    DATA     BYTE      LINICR
      0000008EH   SFRSYM    DATA     BYTE      AUXR
      000000AFH   SFRSYM    DATA     BYTE      IE2
      000000C0H.3 SFRSYM    DATA     BIT       P43
      000000C0H.2 SFRSYM    DATA     BIT       P42
      00000088H   SFRSYM    DATA     BYTE      TCON
      00000089H   SFRSYM    DATA     BYTE      TMOD
      000000C0H.1 SFRSYM    DATA     BIT       P41
      00000098H   SFRSYM    DATA     BYTE      SCON
      000000C0H.0 SFRSYM    DATA     BIT       P40
      000000F1H   SFRSYM    DATA     BYTE      CANICR
      00000087H   SFRSYM    DATA     BYTE      PCON
      000000BCH   SFRSYM    DATA     BYTE      ADC_CONTR
      000000E7H   SFRSYM    DATA     BYTE      CMPCR2
      000000E6H   SFRSYM    DATA     BYTE      CMPCR1
      000000DEH   SFRSYM    DATA     BYTE      ADCCFG
      000000B8H   SFRSYM    DATA     BYTE      IP
      0000008FH   SFRSYM    DATA     BYTE      INTCLKO
      000000EEH   SFRSYM    DATA     BYTE      IP3H
      000000B6H   SFRSYM    DATA     BYTE      IP2H
      000000A8H   SFRSYM    DATA     BYTE      IE
      000000BBH   SFRSYM    DATA     BYTE      P_SW3
      000000BAH   SFRSYM    DATA     BYTE      P_SW2
      000000A2H   SFRSYM    DATA     BYTE      P_SW1
      000000CEH   SFRSYM    DATA     BYTE      SPCTL
      000000F8H   SFRSYM    DATA     BYTE      P7
      000000E8H   SFRSYM    DATA     BYTE      P6
      000000C8H   SFRSYM    DATA     BYTE      P5
      000000C0H   SFRSYM    DATA     BYTE      P4
      000000B0H   SFRSYM    DATA     BYTE      P3
      000000A0H   SFRSYM    DATA     BYTE      P2
      00000090H   SFRSYM    DATA     BYTE      P1
      00000080H   SFRSYM    DATA     BYTE      P0
      R7          REGSYM    ---      BYTE      byte
      R6          REGSYM    ---      BYTE      i
      R7          REGSYM    ---      BYTE      cmd
      R15         REGSYM    ---      BYTE      val
      R7          REGSYM    ---      BYTE      cmd
      REG=3       REGSYM    ---      ---       val
      R7          REGSYM    ---      BYTE      cmd
      REG=3       REGSYM    ---      ---       val
      R11         REGSYM    ---      BYTE      reg
      R7          REGSYM    ---      BYTE      dat
      R10         REGSYM    ---      BYTE      reg
      R3          REGSYM    ---      BYTE      reg
      REG=1       REGSYM    ---      ---       dat
      DR28        REGSYM    ---      DWORD     len
L251 LINKER/LOCATER V4.66.93.0                                                        01/25/2026  01:33:53  PAGE 89


      R15         REGSYM    ---      BYTE      addr
      R13         REGSYM    ---      BYTE      reg
      R14         REGSYM    ---      BYTE      dat
      R12         REGSYM    ---      BYTE      return_state
      R10         REGSYM    ---      BYTE      addr
      R15         REGSYM    ---      BYTE      reg
      WR12        REGSYM    ---      WORD      timeout_count
      R10         REGSYM    ---      BYTE      addr
      R15         REGSYM    ---      BYTE      reg
      R15         REGSYM    ---      BYTE      return_state
      R14         REGSYM    ---      BYTE      dat
      WR12        REGSYM    ---      WORD      timeout_count
      R15         REGSYM    ---      BYTE      return_state
      R14         REGSYM    ---      BYTE      dat
      WR12        REGSYM    ---      WORD      timeout_count
      R11         REGSYM    ---      BYTE      temp_status
      R15         REGSYM    ---      BYTE      return_state

      ---         MODULE    ---      ---       zf_device_ips114
      000109B8H   PUBLIC    XDATA    WORD      ips114_pencolor
      000109BAH   PUBLIC    XDATA    WORD      ips114_bgcolor
      000109BCH   PUBLIC    XDATA    INT       ips114_display_dir
      000109BEH   PUBLIC    XDATA    BYTE      ips114_x_max
      000109BFH   PUBLIC    XDATA    BYTE      ips114_y_max
      000000D0H   SFRSYM    DATA     BYTE      PSW
      0000009DH   SFRSYM    DATA     BYTE      IRCBAND
      00000097H   SFRSYM    DATA     BYTE      AUXR2
      000000EFH   SFRSYM    DATA     BYTE      AUXINTIF
      000000FDH   SFRSYM    DATA     BYTE      S4CON
      000000ACH   SFRSYM    DATA     BYTE      S3CON
      0000009AH   SFRSYM    DATA     BYTE      S2CON
      000000B7H   SFRSYM    DATA     BYTE      IPH
      000000CDH   SFRSYM    DATA     BYTE      SPSTAT
      000000DDH   SFRSYM    DATA     BYTE      T4T3M
      000000C1H   SFRSYM    DATA     BYTE      WDT_CONTR
      000000DFH   SFRSYM    DATA     BYTE      IP3
      000000F4H   SFRSYM    DATA     BYTE      USBCON
      000000B5H   SFRSYM    DATA     BYTE      IP2
      000000FFH   SFRSYM    DATA     BYTE      RSTCFG
      000000C7H   SFRSYM    DATA     BYTE      IAP_CONTR
      000000F9H   SFRSYM    DATA     BYTE      LINICR
      0000008EH   SFRSYM    DATA     BYTE      AUXR
      000000AFH   SFRSYM    DATA     BYTE      IE2
      00000088H   SFRSYM    DATA     BYTE      TCON
      00000089H   SFRSYM    DATA     BYTE      TMOD
      00000098H   SFRSYM    DATA     BYTE      SCON
      000000A0H.2 SFRSYM    DATA     BIT       P22
      000000A0H.1 SFRSYM    DATA     BIT       P21
      000000A0H.0 SFRSYM    DATA     BIT       P20
      000000F1H   SFRSYM    DATA     BYTE      CANICR
      00000087H   SFRSYM    DATA     BYTE      PCON
      000000BCH   SFRSYM    DATA     BYTE      ADC_CONTR
      000000E7H   SFRSYM    DATA     BYTE      CMPCR2
      000000E6H   SFRSYM    DATA     BYTE      CMPCR1
      000000DEH   SFRSYM    DATA     BYTE      ADCCFG
      000000B8H   SFRSYM    DATA     BYTE      IP
      0000008FH   SFRSYM    DATA     BYTE      INTCLKO
      000000EEH   SFRSYM    DATA     BYTE      IP3H
      000000B6H   SFRSYM    DATA     BYTE      IP2H
      000000A8H   SFRSYM    DATA     BYTE      IE
      000000BBH   SFRSYM    DATA     BYTE      P_SW3
      000000BAH   SFRSYM    DATA     BYTE      P_SW2
      000000A2H   SFRSYM    DATA     BYTE      P_SW1
      000000CEH   SFRSYM    DATA     BYTE      SPCTL
      000000F8H   SFRSYM    DATA     BYTE      P7
L251 LINKER/LOCATER V4.66.93.0                                                        01/25/2026  01:33:53  PAGE 90


      000000E8H   SFRSYM    DATA     BYTE      P6
      000000C8H   SFRSYM    DATA     BYTE      P5
      000000C0H   SFRSYM    DATA     BYTE      P4
      000000B0H   SFRSYM    DATA     BYTE      P3
      000000A0H   SFRSYM    DATA     BYTE      P2
      00000090H   SFRSYM    DATA     BYTE      P1
      00000080H   SFRSYM    DATA     BYTE      P0
      R5          REGSYM    ---      BYTE      dat
      WR12        REGSYM    ---      WORD      x2
      WR14        REGSYM    ---      WORD      y2
      WR14        REGSYM    ---      WORD      color
      WR12        REGSYM    ---      WORD      i
      WR6         REGSYM    ---      INT       dir
      WR6         REGSYM    ---      WORD      pen
      WR4         REGSYM    ---      WORD      bgcolor
      WR12        REGSYM    ---      WORD      x
      WR14        REGSYM    ---      WORD      y
      WR12        REGSYM    ---      WORD      x
      WR14        REGSYM    ---      WORD      y
      REG=3       REGSYM    ---      ---       dat
      WR12        REGSYM    ---      WORD      x
      WR14        REGSYM    ---      WORD      y
      WR12        REGSYM    ---      WORD      x
      WR14        REGSYM    ---      WORD      y
      WR12        REGSYM    ---      WORD      x
      WR14        REGSYM    ---      WORD      y
      WR12        REGSYM    ---      WORD      x
      WR14        REGSYM    ---      WORD      y
      WR12        REGSYM    ---      WORD      y
      R15         REGSYM    ---      BYTE      num
      R14         REGSYM    ---      BYTE      length
      DR12        REGSYM    ---      FLOAT     dat
      R10         REGSYM    ---      CHAR      point
      REG=3       REGSYM    ---      ---       p
      REG=3       REGSYM    ---      ---       p

      ---         MODULE    ---      ---       zf_device_ips200
      00010993H   PUBLIC    XDATA    WORD      ips200_pencolor
      00010995H   PUBLIC    XDATA    WORD      ips200_bgcolor
      00010997H   PUBLIC    XDATA    INT       ips200_display_dir
      00010999H   PUBLIC    XDATA    WORD      ips200_x_max
      0001099BH   PUBLIC    XDATA    WORD      ips200_y_max
      000000D0H   SFRSYM    DATA     BYTE      PSW
      0000009DH   SFRSYM    DATA     BYTE      IRCBAND
      00000097H   SFRSYM    DATA     BYTE      AUXR2
      000000EFH   SFRSYM    DATA     BYTE      AUXINTIF
      000000FDH   SFRSYM    DATA     BYTE      S4CON
      000000ACH   SFRSYM    DATA     BYTE      S3CON
      0000009AH   SFRSYM    DATA     BYTE      S2CON
      000000B7H   SFRSYM    DATA     BYTE      IPH
      000000CDH   SFRSYM    DATA     BYTE      SPSTAT
      000000DDH   SFRSYM    DATA     BYTE      T4T3M
      000000C1H   SFRSYM    DATA     BYTE      WDT_CONTR
      000000DFH   SFRSYM    DATA     BYTE      IP3
      000000F4H   SFRSYM    DATA     BYTE      USBCON
      000000B5H   SFRSYM    DATA     BYTE      IP2
      000000FFH   SFRSYM    DATA     BYTE      RSTCFG
      000000C7H   SFRSYM    DATA     BYTE      IAP_CONTR
      000000F9H   SFRSYM    DATA     BYTE      LINICR
      0000008EH   SFRSYM    DATA     BYTE      AUXR
      000000AFH   SFRSYM    DATA     BYTE      IE2
      00000088H   SFRSYM    DATA     BYTE      TCON
      00000089H   SFRSYM    DATA     BYTE      TMOD
      00000098H   SFRSYM    DATA     BYTE      SCON
      000000A0H.2 SFRSYM    DATA     BIT       P22
L251 LINKER/LOCATER V4.66.93.0                                                        01/25/2026  01:33:53  PAGE 91


      000000A0H.1 SFRSYM    DATA     BIT       P21
      000000A0H.0 SFRSYM    DATA     BIT       P20
      000000F1H   SFRSYM    DATA     BYTE      CANICR
      00000087H   SFRSYM    DATA     BYTE      PCON
      000000BCH   SFRSYM    DATA     BYTE      ADC_CONTR
      000000E7H   SFRSYM    DATA     BYTE      CMPCR2
      000000E6H   SFRSYM    DATA     BYTE      CMPCR1
      000000DEH   SFRSYM    DATA     BYTE      ADCCFG
      000000B8H   SFRSYM    DATA     BYTE      IP
      0000008FH   SFRSYM    DATA     BYTE      INTCLKO
      000000EEH   SFRSYM    DATA     BYTE      IP3H
      000000B6H   SFRSYM    DATA     BYTE      IP2H
      000000A8H   SFRSYM    DATA     BYTE      IE
      000000BBH   SFRSYM    DATA     BYTE      P_SW3
      000000BAH   SFRSYM    DATA     BYTE      P_SW2
      000000A2H   SFRSYM    DATA     BYTE      P_SW1
      000000CEH   SFRSYM    DATA     BYTE      SPCTL
      000000F8H   SFRSYM    DATA     BYTE      P7
      000000E8H   SFRSYM    DATA     BYTE      P6
      000000C8H   SFRSYM    DATA     BYTE      P5
      000000C0H   SFRSYM    DATA     BYTE      P4
      000000B0H   SFRSYM    DATA     BYTE      P3
      000000A0H   SFRSYM    DATA     BYTE      P2
      00000090H   SFRSYM    DATA     BYTE      P1
      00000080H   SFRSYM    DATA     BYTE      P0
      R5          REGSYM    ---      BYTE      dat
      WR12        REGSYM    ---      WORD      x2
      WR14        REGSYM    ---      WORD      y2
      WR14        REGSYM    ---      WORD      color
      WR12        REGSYM    ---      WORD      i
      WR6         REGSYM    ---      INT       dir
      WR6         REGSYM    ---      WORD      pen
      WR4         REGSYM    ---      WORD      bgcolor
      WR12        REGSYM    ---      WORD      x
      WR14        REGSYM    ---      WORD      y
      WR12        REGSYM    ---      WORD      x
      WR14        REGSYM    ---      WORD      y
      REG=3       REGSYM    ---      ---       dat
      WR12        REGSYM    ---      WORD      x
      WR14        REGSYM    ---      WORD      y
      WR12        REGSYM    ---      WORD      x
      WR14        REGSYM    ---      WORD      y
      WR12        REGSYM    ---      WORD      x
      WR14        REGSYM    ---      WORD      y
      WR12        REGSYM    ---      WORD      x
      WR14        REGSYM    ---      WORD      y
      WR12        REGSYM    ---      WORD      y
      R15         REGSYM    ---      BYTE      num
      R14         REGSYM    ---      BYTE      length
      DR12        REGSYM    ---      FLOAT     dat
      R10         REGSYM    ---      CHAR      point
      REG=3       REGSYM    ---      ---       p
      REG=3       REGSYM    ---      ---       p

      ---         MODULE    ---      ---       zf_device_ips200pro
      00010857H   PUBLIC    XDATA    ---       ips200pro_information
      00010860H   PUBLIC    XDATA    ---       ips200pro_time
      000000D0H   SFRSYM    DATA     BYTE      PSW
      0000009DH   SFRSYM    DATA     BYTE      IRCBAND
      00000097H   SFRSYM    DATA     BYTE      AUXR2
      000000EFH   SFRSYM    DATA     BYTE      AUXINTIF
      000000FDH   SFRSYM    DATA     BYTE      S4CON
      000000ACH   SFRSYM    DATA     BYTE      S3CON
      0000009AH   SFRSYM    DATA     BYTE      S2CON
      000000B7H   SFRSYM    DATA     BYTE      IPH
L251 LINKER/LOCATER V4.66.93.0                                                        01/25/2026  01:33:53  PAGE 92


      000000CDH   SFRSYM    DATA     BYTE      SPSTAT
      000000DDH   SFRSYM    DATA     BYTE      T4T3M
      000000C1H   SFRSYM    DATA     BYTE      WDT_CONTR
      000000DFH   SFRSYM    DATA     BYTE      IP3
      000000F4H   SFRSYM    DATA     BYTE      USBCON
      000000B5H   SFRSYM    DATA     BYTE      IP2
      000000FFH   SFRSYM    DATA     BYTE      RSTCFG
      000000C7H   SFRSYM    DATA     BYTE      IAP_CONTR
      000000F9H   SFRSYM    DATA     BYTE      LINICR
      0000008EH   SFRSYM    DATA     BYTE      AUXR
      000000AFH   SFRSYM    DATA     BYTE      IE2
      00000088H   SFRSYM    DATA     BYTE      TCON
      00000089H   SFRSYM    DATA     BYTE      TMOD
      00000098H   SFRSYM    DATA     BYTE      SCON
      000000F1H   SFRSYM    DATA     BYTE      CANICR
      00000087H   SFRSYM    DATA     BYTE      PCON
      000000BCH   SFRSYM    DATA     BYTE      ADC_CONTR
      000000E7H   SFRSYM    DATA     BYTE      CMPCR2
      000000E6H   SFRSYM    DATA     BYTE      CMPCR1
      000000DEH   SFRSYM    DATA     BYTE      ADCCFG
      000000B8H   SFRSYM    DATA     BYTE      IP
      0000008FH   SFRSYM    DATA     BYTE      INTCLKO
      000000EEH   SFRSYM    DATA     BYTE      IP3H
      000000B6H   SFRSYM    DATA     BYTE      IP2H
      000000A8H   SFRSYM    DATA     BYTE      IE
      000000BBH   SFRSYM    DATA     BYTE      P_SW3
      000000BAH   SFRSYM    DATA     BYTE      P_SW2
      000000A2H   SFRSYM    DATA     BYTE      P_SW1
      000000CEH   SFRSYM    DATA     BYTE      SPCTL
      000000F8H   SFRSYM    DATA     BYTE      P7
      000000E8H   SFRSYM    DATA     BYTE      P6
      000000C8H   SFRSYM    DATA     BYTE      P5
      000000C0H   SFRSYM    DATA     BYTE      P4
      000000B0H   SFRSYM    DATA     BYTE      P3
      000000A0H   SFRSYM    DATA     BYTE      P2
      00000090H   SFRSYM    DATA     BYTE      P1
      00000080H   SFRSYM    DATA     BYTE      P0
      00010824H   SYMBOL    XDATA    ---       ips200pro_printf_buffer
      00010868H   SYMBOL    XDATA    BYTE      ips200pro_page_num
      DR12        REGSYM    ---      DWORD     wait_time
      DR12        REGSYM    ---      DWORD     length
      REG=3       REGSYM    ---      ---       buffer
      WR2         REGSYM    ---      INT       command1
      WR0         REGSYM    ---      INT       command2
      R10         REGSYM    ---      BYTE      widgets_id
      REG=7       REGSYM    ---      ---       temp
      REG=6       REGSYM    ---      ---       p
      R3          REGSYM    ---      BYTE      tmp
      WR8         REGSYM    ---      WORD      i
      WR6         REGSYM    ---      INT       command2
      REG=3       REGSYM    ---      ---       temp
      R11         REGSYM    ---      BYTE      return_state
      WR6         REGSYM    ---      WORD      year
      R11         REGSYM    ---      BYTE      month
      R10         REGSYM    ---      BYTE      day
      R11         REGSYM    ---      BYTE      return_state
      R6          REGSYM    ---      BYTE      hour
      R7          REGSYM    ---      BYTE      minute
      R10         REGSYM    ---      BYTE      second
      R11         REGSYM    ---      BYTE      return_state
      WR6         REGSYM    ---      WORD      child_id
      WR4         REGSYM    ---      WORD      parent_id
      R11         REGSYM    ---      BYTE      return_state
      WR6         REGSYM    ---      INT       format
      R11         REGSYM    ---      BYTE      return_state
L251 LINKER/LOCATER V4.66.93.0                                                        01/25/2026  01:33:53  PAGE 93


      R7          REGSYM    ---      BYTE      backlight
      R11         REGSYM    ---      BYTE      return_state
      WR6         REGSYM    ---      INT       dir
      R11         REGSYM    ---      BYTE      return_state
      R7          REGSYM    ---      BYTE      crc_state
      R11         REGSYM    ---      BYTE      return_state
      WR6         REGSYM    ---      INT       font
      R11         REGSYM    ---      BYTE      return_state
      R7          REGSYM    ---      BYTE      state
      R11         REGSYM    ---      BYTE      return_state
      REG=3       REGSYM    ---      ---       time
      REG=3       REGSYM    ---      ---       time
      REG=3       REGSYM    ---      ---       information
      REG=3       REGSYM    ---      ---       stack_size
      R11         REGSYM    ---      BYTE      return_state
      WR2         REGSYM    ---      WORD      widgets_id
      WR4         REGSYM    ---      INT       x
      WR8         REGSYM    ---      INT       y
      WR0         REGSYM    ---      WORD      width
      R15         REGSYM    ---      BYTE      return_state
      WR2         REGSYM    ---      WORD      widgets_id
      R11         REGSYM    ---      BYTE      return_state
      WR2         REGSYM    ---      WORD      widgets_id
      WR4         REGSYM    ---      INT       font_size
      R11         REGSYM    ---      BYTE      return_state
      WR2         REGSYM    ---      WORD      widgets_id
      WR4         REGSYM    ---      INT       color_type
      WR0         REGSYM    ---      WORD      color
      R11         REGSYM    ---      BYTE      return_state
      WR2         REGSYM    ---      WORD      widgets_id
      WR4         REGSYM    ---      INT       x
      WR0         REGSYM    ---      INT       y
      R11         REGSYM    ---      BYTE      return_state
      WR2         REGSYM    ---      WORD      widgets_id
      R5          REGSYM    ---      BYTE      state
      R11         REGSYM    ---      BYTE      return_state
      REG=3       REGSYM    ---      ---       str
      WR2         REGSYM    ---      WORD      page_id
      WR4         REGSYM    ---      INT       anim_en
      R11         REGSYM    ---      BYTE      return_state
      WR4         REGSYM    ---      WORD      page_id
      R3          REGSYM    ---      BYTE      state
      R11         REGSYM    ---      BYTE      return_state
      REG=3       REGSYM    ---      ---       str
      R11         REGSYM    ---      BYTE      return_state
      WR6         REGSYM    ---      INT       title_position
      R5          REGSYM    ---      BYTE      title_width
      R11         REGSYM    ---      BYTE      return_state
      WR4         REGSYM    ---      INT       x
      WR2         REGSYM    ---      INT       y
      WR8         REGSYM    ---      WORD      width
      WR0         REGSYM    ---      WORD      height
      R15         REGSYM    ---      BYTE      return_state
      00010869H   SYMBOL    XDATA    BYTE      lebel_num
      WR14        REGSYM    ---      WORD      label_id
      DR4         REGSYM    ---      LONG      str_length
      R13         REGSYM    ---      BYTE      return_state
      REG=1       REGSYM    ---      ---       arg
      REG=3       REGSYM    ---      ---       str
      R11         REGSYM    ---      BYTE      return_state
      WR2         REGSYM    ---      WORD      label_id
      WR4         REGSYM    ---      INT       mode
      R11         REGSYM    ---      BYTE      return_state
      WR4         REGSYM    ---      INT       x
      WR2         REGSYM    ---      INT       y
L251 LINKER/LOCATER V4.66.93.0                                                        01/25/2026  01:33:53  PAGE 94


      WR8         REGSYM    ---      WORD      row_num
      WR0         REGSYM    ---      WORD      col_num
      R15         REGSYM    ---      BYTE      return_state
      0001086AH   SYMBOL    XDATA    BYTE      table_num
      WR12        REGSYM    ---      WORD      table_id
      R14         REGSYM    ---      BYTE      row
      R15         REGSYM    ---      BYTE      col
      REG=1       REGSYM    ---      ---       arg
      WR0         REGSYM    ---      WORD      table_id
      R3          REGSYM    ---      BYTE      col
      WR4         REGSYM    ---      WORD      width
      R11         REGSYM    ---      BYTE      return_state
      WR8         REGSYM    ---      WORD      table_id
      R11         REGSYM    ---      BYTE      row
      R10         REGSYM    ---      BYTE      col
      R11         REGSYM    ---      BYTE      return_state
      WR4         REGSYM    ---      INT       x
      WR2         REGSYM    ---      INT       y
      WR8         REGSYM    ---      WORD      siz
      WR0         REGSYM    ---      INT       style
      R15         REGSYM    ---      BYTE      return_state
      0001086BH   SYMBOL    XDATA    BYTE      meter_num
      WR2         REGSYM    ---      WORD      meter_id
      WR4         REGSYM    ---      INT       value
      R11         REGSYM    ---      BYTE      return_state
      WR4         REGSYM    ---      INT       x
      WR2         REGSYM    ---      INT       y
      WR8         REGSYM    ---      WORD      clock_size
      WR0         REGSYM    ---      INT       clock_type
      R15         REGSYM    ---      BYTE      return_state
      0001086CH   SYMBOL    XDATA    BYTE      clock_num
      WR4         REGSYM    ---      INT       x
      WR2         REGSYM    ---      INT       y
      WR8         REGSYM    ---      WORD      width
      WR0         REGSYM    ---      WORD      height
      R15         REGSYM    ---      BYTE      return_state
      0001086DH   SYMBOL    XDATA    BYTE      progress_bar_num
      WR8         REGSYM    ---      WORD      progress_bar_id
      R11         REGSYM    ---      BYTE      start_value
      R10         REGSYM    ---      BYTE      end_value
      R11         REGSYM    ---      BYTE      return_state
      WR4         REGSYM    ---      INT       x
      WR2         REGSYM    ---      INT       y
      WR10        REGSYM    ---      WORD      width
      WR0         REGSYM    ---      WORD      height
      R11         REGSYM    ---      BYTE      return_state
      WR6         REGSYM    ---      WORD      year
      R3          REGSYM    ---      BYTE      month
      WR4         REGSYM    ---      INT       mode
      R11         REGSYM    ---      BYTE      return_state
      WR4         REGSYM    ---      INT       x
      WR2         REGSYM    ---      INT       y
      WR8         REGSYM    ---      WORD      width
      WR0         REGSYM    ---      WORD      height
      R15         REGSYM    ---      BYTE      return_state
      0001086EH   SYMBOL    XDATA    BYTE      waveform_num
      WR10        REGSYM    ---      WORD      waveform_id
      R5          REGSYM    ---      BYTE      line_id
      REG=7       REGSYM    ---      ---       dat
      WR8         REGSYM    ---      WORD      length
      R11         REGSYM    ---      BYTE      return_state
      WR6         REGSYM    ---      WORD      i
      WR0         REGSYM    ---      WORD      waveform_id
      WR4         REGSYM    ---      WORD      line_id
      WR2         REGSYM    ---      WORD      line_state
L251 LINKER/LOCATER V4.66.93.0                                                        01/25/2026  01:33:53  PAGE 95


      R11         REGSYM    ---      BYTE      return_state
      WR2         REGSYM    ---      WORD      waveform_id
      R5          REGSYM    ---      BYTE      line_type
      R11         REGSYM    ---      BYTE      return_state
      WR2         REGSYM    ---      WORD      waveform_id
      R11         REGSYM    ---      BYTE      return_state
      WR4         REGSYM    ---      INT       x
      WR2         REGSYM    ---      INT       y
      WR8         REGSYM    ---      WORD      width
      WR0         REGSYM    ---      WORD      height
      R15         REGSYM    ---      BYTE      return_state
      0001086FH   SYMBOL    XDATA    BYTE      image_num
      WR14        REGSYM    ---      WORD      image_id
      REG=0       REGSYM    ---      ---       image
      WR8         REGSYM    ---      WORD      width
      R10         REGSYM    ---      BYTE      threshold
      R13         REGSYM    ---      BYTE      return_state
      WR30        REGSYM    ---      WORD      image_id
      R10         REGSYM    ---      BYTE      line_id
      REG=0       REGSYM    ---      ---       line_data
      WR8         REGSYM    ---      WORD      line_length
      R15         REGSYM    ---      BYTE      return_state
      WR8         REGSYM    ---      WORD      image_id
      R10         REGSYM    ---      BYTE      rectangle_id
      WR4         REGSYM    ---      INT       x
      WR2         REGSYM    ---      INT       y
      WR0         REGSYM    ---      WORD      rectangle_width
      R15         REGSYM    ---      BYTE      return_state
      WR4         REGSYM    ---      INT       x
      WR2         REGSYM    ---      INT       y
      WR8         REGSYM    ---      WORD      width
      WR0         REGSYM    ---      WORD      height
      R15         REGSYM    ---      BYTE      return_state
      00010870H   SYMBOL    XDATA    BYTE      container_num
      WR0         REGSYM    ---      WORD      container_id
      WR4         REGSYM    ---      WORD      border_width
      WR2         REGSYM    ---      WORD      radius
      R11         REGSYM    ---      BYTE      return_state
      REG=3       REGSYM    ---      ---       str

      ---         MODULE    ---      ---       zf_device_tft180
      000109C0H   PUBLIC    XDATA    WORD      tft180_pencolor
      000109C2H   PUBLIC    XDATA    WORD      tft180_bgcolor
      000109C4H   PUBLIC    XDATA    INT       tft180_display_dir
      000109C6H   PUBLIC    XDATA    BYTE      tft180_x_max
      000109C7H   PUBLIC    XDATA    BYTE      tft180_y_max
      000000D0H   SFRSYM    DATA     BYTE      PSW
      0000009DH   SFRSYM    DATA     BYTE      IRCBAND
      00000097H   SFRSYM    DATA     BYTE      AUXR2
      000000EFH   SFRSYM    DATA     BYTE      AUXINTIF
      000000FDH   SFRSYM    DATA     BYTE      S4CON
      000000ACH   SFRSYM    DATA     BYTE      S3CON
      0000009AH   SFRSYM    DATA     BYTE      S2CON
      000000B7H   SFRSYM    DATA     BYTE      IPH
      000000CDH   SFRSYM    DATA     BYTE      SPSTAT
      000000DDH   SFRSYM    DATA     BYTE      T4T3M
      000000C1H   SFRSYM    DATA     BYTE      WDT_CONTR
      000000DFH   SFRSYM    DATA     BYTE      IP3
      000000F4H   SFRSYM    DATA     BYTE      USBCON
      000000B5H   SFRSYM    DATA     BYTE      IP2
      000000FFH   SFRSYM    DATA     BYTE      RSTCFG
      000000C7H   SFRSYM    DATA     BYTE      IAP_CONTR
      000000F9H   SFRSYM    DATA     BYTE      LINICR
      0000008EH   SFRSYM    DATA     BYTE      AUXR
      000000AFH   SFRSYM    DATA     BYTE      IE2
L251 LINKER/LOCATER V4.66.93.0                                                        01/25/2026  01:33:53  PAGE 96


      00000088H   SFRSYM    DATA     BYTE      TCON
      00000089H   SFRSYM    DATA     BYTE      TMOD
      00000098H   SFRSYM    DATA     BYTE      SCON
      000000A0H.2 SFRSYM    DATA     BIT       P22
      000000A0H.1 SFRSYM    DATA     BIT       P21
      000000A0H.0 SFRSYM    DATA     BIT       P20
      000000F1H   SFRSYM    DATA     BYTE      CANICR
      00000087H   SFRSYM    DATA     BYTE      PCON
      000000BCH   SFRSYM    DATA     BYTE      ADC_CONTR
      000000E7H   SFRSYM    DATA     BYTE      CMPCR2
      000000E6H   SFRSYM    DATA     BYTE      CMPCR1
      000000DEH   SFRSYM    DATA     BYTE      ADCCFG
      000000B8H   SFRSYM    DATA     BYTE      IP
      0000008FH   SFRSYM    DATA     BYTE      INTCLKO
      000000EEH   SFRSYM    DATA     BYTE      IP3H
      000000B6H   SFRSYM    DATA     BYTE      IP2H
      000000A8H   SFRSYM    DATA     BYTE      IE
      000000BBH   SFRSYM    DATA     BYTE      P_SW3
      000000BAH   SFRSYM    DATA     BYTE      P_SW2
      000000A2H   SFRSYM    DATA     BYTE      P_SW1
      000000CEH   SFRSYM    DATA     BYTE      SPCTL
      000000F8H   SFRSYM    DATA     BYTE      P7
      000000E8H   SFRSYM    DATA     BYTE      P6
      000000C8H   SFRSYM    DATA     BYTE      P5
      000000C0H   SFRSYM    DATA     BYTE      P4
      000000B0H   SFRSYM    DATA     BYTE      P3
      000000A0H   SFRSYM    DATA     BYTE      P2
      00000090H   SFRSYM    DATA     BYTE      P1
      00000080H   SFRSYM    DATA     BYTE      P0
      R5          REGSYM    ---      BYTE      dat
      WR12        REGSYM    ---      WORD      x2
      WR14        REGSYM    ---      WORD      y2
      WR14        REGSYM    ---      WORD      color
      WR6         REGSYM    ---      INT       dir
      WR6         REGSYM    ---      WORD      pen
      WR4         REGSYM    ---      WORD      bgcolor
      WR12        REGSYM    ---      WORD      x
      WR14        REGSYM    ---      WORD      y
      WR12        REGSYM    ---      WORD      x
      WR14        REGSYM    ---      WORD      y
      REG=3       REGSYM    ---      ---       dat
      WR12        REGSYM    ---      WORD      x
      WR14        REGSYM    ---      WORD      y
      WR12        REGSYM    ---      WORD      x
      WR14        REGSYM    ---      WORD      y
      WR12        REGSYM    ---      WORD      x
      WR14        REGSYM    ---      WORD      y
      WR12        REGSYM    ---      WORD      x
      WR14        REGSYM    ---      WORD      y
      WR12        REGSYM    ---      WORD      y
      R15         REGSYM    ---      BYTE      num
      R14         REGSYM    ---      BYTE      length
      DR12        REGSYM    ---      FLOAT     dat
      R10         REGSYM    ---      CHAR      point
      REG=3       REGSYM    ---      ---       p

      ---         MODULE    ---      ---       zf_device_tsl1401
      00010000H   PUBLIC    XDATA    BYTE      tsl1401_finish_flag
      00010001H   PUBLIC    XDATA    ---       tsl1401_data
      000000D0H   SFRSYM    DATA     BYTE      PSW
      0000009DH   SFRSYM    DATA     BYTE      IRCBAND
      00000097H   SFRSYM    DATA     BYTE      AUXR2
      000000EFH   SFRSYM    DATA     BYTE      AUXINTIF
      000000FDH   SFRSYM    DATA     BYTE      S4CON
      000000ACH   SFRSYM    DATA     BYTE      S3CON
L251 LINKER/LOCATER V4.66.93.0                                                        01/25/2026  01:33:53  PAGE 97


      0000009AH   SFRSYM    DATA     BYTE      S2CON
      000000B7H   SFRSYM    DATA     BYTE      IPH
      000000CDH   SFRSYM    DATA     BYTE      SPSTAT
      000000DDH   SFRSYM    DATA     BYTE      T4T3M
      000000C1H   SFRSYM    DATA     BYTE      WDT_CONTR
      000000DFH   SFRSYM    DATA     BYTE      IP3
      000000F4H   SFRSYM    DATA     BYTE      USBCON
      000000B5H   SFRSYM    DATA     BYTE      IP2
      000000FFH   SFRSYM    DATA     BYTE      RSTCFG
      000000C7H   SFRSYM    DATA     BYTE      IAP_CONTR
      000000F9H   SFRSYM    DATA     BYTE      LINICR
      0000008EH   SFRSYM    DATA     BYTE      AUXR
      000000AFH   SFRSYM    DATA     BYTE      IE2
      00000088H   SFRSYM    DATA     BYTE      TCON
      00000089H   SFRSYM    DATA     BYTE      TMOD
      00000098H   SFRSYM    DATA     BYTE      SCON
      000000F1H   SFRSYM    DATA     BYTE      CANICR
      00000087H   SFRSYM    DATA     BYTE      PCON
      000000BCH   SFRSYM    DATA     BYTE      ADC_CONTR
      000000E7H   SFRSYM    DATA     BYTE      CMPCR2
      000000E6H   SFRSYM    DATA     BYTE      CMPCR1
      000000DEH   SFRSYM    DATA     BYTE      ADCCFG
      000000B8H   SFRSYM    DATA     BYTE      IP
      0000008FH   SFRSYM    DATA     BYTE      INTCLKO
      000000EEH   SFRSYM    DATA     BYTE      IP3H
      000000B6H   SFRSYM    DATA     BYTE      IP2H
      000000A8H   SFRSYM    DATA     BYTE      IE
      000000BBH   SFRSYM    DATA     BYTE      P_SW3
      000000BAH   SFRSYM    DATA     BYTE      P_SW2
      000000A2H   SFRSYM    DATA     BYTE      P_SW1
      000000CEH   SFRSYM    DATA     BYTE      SPCTL
      000000F8H   SFRSYM    DATA     BYTE      P7
      000000E8H   SFRSYM    DATA     BYTE      P6
      000000C8H   SFRSYM    DATA     BYTE      P5
      000000C0H   SFRSYM    DATA     BYTE      P4
      000000B0H   SFRSYM    DATA     BYTE      P3
      000000A0H   SFRSYM    DATA     BYTE      P2
      00000090H   SFRSYM    DATA     BYTE      P1
      00000080H   SFRSYM    DATA     BYTE      P0
      00010201H   SYMBOL    XDATA    BYTE      tsl1401_init_state
      R15         REGSYM    ---      BYTE      i
      WR14        REGSYM    ---      INT       uart_n
      R13         REGSYM    ---      BYTE      index
      R12         REGSYM    ---      BYTE      i

      ---         MODULE    ---      ---       zf_device_type
      000109C8H   PUBLIC    XDATA    ---       tof_module_exti_handler
      000109CAH   PUBLIC    XDATA    INT       wireless_type
      000109CCH   PUBLIC    XDATA    INT       tof_type
      000109CEH   PUBLIC    XDATA    INT       gps_type
      000000D0H   SFRSYM    DATA     BYTE      PSW
      0000009DH   SFRSYM    DATA     BYTE      IRCBAND
      00000097H   SFRSYM    DATA     BYTE      AUXR2
      000000EFH   SFRSYM    DATA     BYTE      AUXINTIF
      000000FDH   SFRSYM    DATA     BYTE      S4CON
      000000ACH   SFRSYM    DATA     BYTE      S3CON
      0000009AH   SFRSYM    DATA     BYTE      S2CON
      000000B7H   SFRSYM    DATA     BYTE      IPH
      000000CDH   SFRSYM    DATA     BYTE      SPSTAT
      000000DDH   SFRSYM    DATA     BYTE      T4T3M
      000000C1H   SFRSYM    DATA     BYTE      WDT_CONTR
      000000DFH   SFRSYM    DATA     BYTE      IP3
      000000F4H   SFRSYM    DATA     BYTE      USBCON
      000000B5H   SFRSYM    DATA     BYTE      IP2
      000000FFH   SFRSYM    DATA     BYTE      RSTCFG
L251 LINKER/LOCATER V4.66.93.0                                                        01/25/2026  01:33:53  PAGE 98


      000000C7H   SFRSYM    DATA     BYTE      IAP_CONTR
      000000F9H   SFRSYM    DATA     BYTE      LINICR
      0000008EH   SFRSYM    DATA     BYTE      AUXR
      000000AFH   SFRSYM    DATA     BYTE      IE2
      00000088H   SFRSYM    DATA     BYTE      TCON
      00000089H   SFRSYM    DATA     BYTE      TMOD
      00000098H   SFRSYM    DATA     BYTE      SCON
      000000F1H   SFRSYM    DATA     BYTE      CANICR
      00000087H   SFRSYM    DATA     BYTE      PCON
      000000BCH   SFRSYM    DATA     BYTE      ADC_CONTR
      000000E7H   SFRSYM    DATA     BYTE      CMPCR2
      000000E6H   SFRSYM    DATA     BYTE      CMPCR1
      000000DEH   SFRSYM    DATA     BYTE      ADCCFG
      000000B8H   SFRSYM    DATA     BYTE      IP
      0000008FH   SFRSYM    DATA     BYTE      INTCLKO
      000000EEH   SFRSYM    DATA     BYTE      IP3H
      000000B6H   SFRSYM    DATA     BYTE      IP2H
      000000A8H   SFRSYM    DATA     BYTE      IE
      000000BBH   SFRSYM    DATA     BYTE      P_SW3
      000000BAH   SFRSYM    DATA     BYTE      P_SW2
      000000A2H   SFRSYM    DATA     BYTE      P_SW1
      000000CEH   SFRSYM    DATA     BYTE      SPCTL
      000000F8H   SFRSYM    DATA     BYTE      P7
      000000E8H   SFRSYM    DATA     BYTE      P6
      000000C8H   SFRSYM    DATA     BYTE      P5
      000000C0H   SFRSYM    DATA     BYTE      P4
      000000B0H   SFRSYM    DATA     BYTE      P3
      000000A0H   SFRSYM    DATA     BYTE      P2
      00000090H   SFRSYM    DATA     BYTE      P1
      00000080H   SFRSYM    DATA     BYTE      P0
      WR6         REGSYM    ---      INT       type_set
      WR4         REGSYM    ---      INT       uartx
      REG=0       REGSYM    ---      ---       uart_callback
      WR6         REGSYM    ---      INT       type_set
      REG=0       REGSYM    ---      ---       exti_callback
      WR6         REGSYM    ---      INT       type_set
      WR4         REGSYM    ---      INT       uartx
      REG=0       REGSYM    ---      ---       uart_callback

      ---         MODULE    ---      ---       zf_device_wireless_uart
      000000D0H   SFRSYM    DATA     BYTE      PSW
      0000009DH   SFRSYM    DATA     BYTE      IRCBAND
      00000097H   SFRSYM    DATA     BYTE      AUXR2
      000000EFH   SFRSYM    DATA     BYTE      AUXINTIF
      000000FDH   SFRSYM    DATA     BYTE      S4CON
      000000ACH   SFRSYM    DATA     BYTE      S3CON
      0000009AH   SFRSYM    DATA     BYTE      S2CON
      000000B7H   SFRSYM    DATA     BYTE      IPH
      000000CDH   SFRSYM    DATA     BYTE      SPSTAT
      000000DDH   SFRSYM    DATA     BYTE      T4T3M
      000000C1H   SFRSYM    DATA     BYTE      WDT_CONTR
      000000DFH   SFRSYM    DATA     BYTE      IP3
      000000F4H   SFRSYM    DATA     BYTE      USBCON
      000000B5H   SFRSYM    DATA     BYTE      IP2
      000000FFH   SFRSYM    DATA     BYTE      RSTCFG
      000000C7H   SFRSYM    DATA     BYTE      IAP_CONTR
      000000F9H   SFRSYM    DATA     BYTE      LINICR
      0000008EH   SFRSYM    DATA     BYTE      AUXR
      000000AFH   SFRSYM    DATA     BYTE      IE2
      00000088H   SFRSYM    DATA     BYTE      TCON
      00000089H   SFRSYM    DATA     BYTE      TMOD
      00000098H   SFRSYM    DATA     BYTE      SCON
      000000F1H   SFRSYM    DATA     BYTE      CANICR
      00000087H   SFRSYM    DATA     BYTE      PCON
      000000BCH   SFRSYM    DATA     BYTE      ADC_CONTR
L251 LINKER/LOCATER V4.66.93.0                                                        01/25/2026  01:33:53  PAGE 99


      000000E7H   SFRSYM    DATA     BYTE      CMPCR2
      000000E6H   SFRSYM    DATA     BYTE      CMPCR1
      000000DEH   SFRSYM    DATA     BYTE      ADCCFG
      000000B8H   SFRSYM    DATA     BYTE      IP
      0000008FH   SFRSYM    DATA     BYTE      INTCLKO
      000000EEH   SFRSYM    DATA     BYTE      IP3H
      000000B6H   SFRSYM    DATA     BYTE      IP2H
      000000A8H   SFRSYM    DATA     BYTE      IE
      000000BBH   SFRSYM    DATA     BYTE      P_SW3
      000000BAH   SFRSYM    DATA     BYTE      P_SW2
      000000A2H   SFRSYM    DATA     BYTE      P_SW1
      000000CEH   SFRSYM    DATA     BYTE      SPCTL
      000000F8H   SFRSYM    DATA     BYTE      P7
      000000E8H   SFRSYM    DATA     BYTE      P6
      000000C8H   SFRSYM    DATA     BYTE      P5
      000000C0H   SFRSYM    DATA     BYTE      P4
      000000B0H   SFRSYM    DATA     BYTE      P3
      000000A0H   SFRSYM    DATA     BYTE      P2
      00000090H   SFRSYM    DATA     BYTE      P1
      00000080H   SFRSYM    DATA     BYTE      P0
      0001077CH   SYMBOL    XDATA    ---       wireless_uart_fifo
      00010793H   SYMBOL    XDATA    ---       wireless_uart_buffer
      R15         REGSYM    ---      BYTE      dat
      WR12        REGSYM    ---      WORD      time_cnt
      DR12        REGSYM    ---      DWORD     len
      REG=3       REGSYM    ---      ---       str
      REG=3       REGSYM    ---      ---       buff
      DR4         REGSYM    ---      DWORD     len

      ---         MODULE    ---      ---       seekfree_assistant
      000103D2H   PUBLIC    XDATA    ---       seekfree_assistant_oscilloscope_data
      0001040DH   PUBLIC    XDATA    ---       seekfree_assistant_parameter_update_flag
      00010415H   PUBLIC    XDATA    ---       seekfree_assistant_parameter
      000000D0H   SFRSYM    DATA     BYTE      PSW
      0000009DH   SFRSYM    DATA     BYTE      IRCBAND
      00000097H   SFRSYM    DATA     BYTE      AUXR2
      000000EFH   SFRSYM    DATA     BYTE      AUXINTIF
      000000FDH   SFRSYM    DATA     BYTE      S4CON
      000000ACH   SFRSYM    DATA     BYTE      S3CON
      0000009AH   SFRSYM    DATA     BYTE      S2CON
      000000B7H   SFRSYM    DATA     BYTE      IPH
      000000CDH   SFRSYM    DATA     BYTE      SPSTAT
      000000DDH   SFRSYM    DATA     BYTE      T4T3M
      000000C1H   SFRSYM    DATA     BYTE      WDT_CONTR
      000000DFH   SFRSYM    DATA     BYTE      IP3
      000000F4H   SFRSYM    DATA     BYTE      USBCON
      000000B5H   SFRSYM    DATA     BYTE      IP2
      000000FFH   SFRSYM    DATA     BYTE      RSTCFG
      000000C7H   SFRSYM    DATA     BYTE      IAP_CONTR
      000000F9H   SFRSYM    DATA     BYTE      LINICR
      0000008EH   SFRSYM    DATA     BYTE      AUXR
      000000AFH   SFRSYM    DATA     BYTE      IE2
      00000088H   SFRSYM    DATA     BYTE      TCON
      00000089H   SFRSYM    DATA     BYTE      TMOD
      00000098H   SFRSYM    DATA     BYTE      SCON
      000000F1H   SFRSYM    DATA     BYTE      CANICR
      00000087H   SFRSYM    DATA     BYTE      PCON
      000000BCH   SFRSYM    DATA     BYTE      ADC_CONTR
      000000E7H   SFRSYM    DATA     BYTE      CMPCR2
      000000E6H   SFRSYM    DATA     BYTE      CMPCR1
      000000DEH   SFRSYM    DATA     BYTE      ADCCFG
      000000B8H   SFRSYM    DATA     BYTE      IP
      0000008FH   SFRSYM    DATA     BYTE      INTCLKO
      000000EEH   SFRSYM    DATA     BYTE      IP3H
      000000B6H   SFRSYM    DATA     BYTE      IP2H
L251 LINKER/LOCATER V4.66.93.0                                                        01/25/2026  01:33:53  PAGE 100


      000000A8H   SFRSYM    DATA     BYTE      IE
      000000BBH   SFRSYM    DATA     BYTE      P_SW3
      000000BAH   SFRSYM    DATA     BYTE      P_SW2
      000000A2H   SFRSYM    DATA     BYTE      P_SW1
      000000CEH   SFRSYM    DATA     BYTE      SPCTL
      000000F8H   SFRSYM    DATA     BYTE      P7
      000000A8H.7 SFRSYM    DATA     BIT       EA
      000000E8H   SFRSYM    DATA     BYTE      P6
      000000C8H   SFRSYM    DATA     BYTE      P5
      000000C0H   SFRSYM    DATA     BYTE      P4
      000000B0H   SFRSYM    DATA     BYTE      P3
      000000A0H   SFRSYM    DATA     BYTE      P2
      00000090H   SFRSYM    DATA     BYTE      P1
      00000080H   SFRSYM    DATA     BYTE      P0
      000103CAH   SYMBOL    XDATA    ---       seekfree_assistant_camera_dot_data
      000103F6H   SYMBOL    XDATA    ---       seekfree_assistant_fifo
      00010435H   SYMBOL    XDATA    ---       seekfree_assistant_camera_buffer
      0001047FH   SYMBOL    XDATA    ---       seekfree_assistant_camera_data
      00010487H   SYMBOL    XDATA    ---       seekfree_assistant_buffer
      00FF802BH   SYMBOL    HCONST   ---       ?tpl?0001
      00FF804FH   SYMBOL    HCONST   ---       ?tpl?0002
      REG=6       REGSYM    ---      ---       buffer
      DR28        REGSYM    ---      DWORD     length
      R11         REGSYM    ---      BYTE      temp_sum
      WR12        REGSYM    ---      INT       camera_type
      R9          REGSYM    ---      BYTE      boundary_num
      WR14        REGSYM    ---      WORD      width
      WR6         REGSYM    ---      INT       camera_type
      REG=0       REGSYM    ---      ---       image_addr
      WR4         REGSYM    ---      WORD      width
      REG=7       REGSYM    ---      ---       seekfree_assistant_oscilloscope
      R15         REGSYM    ---      BYTE      packet_size
      R15         REGSYM    ---      BYTE      i
      REG=3       REGSYM    ---      ---       buffer
      WR8         REGSYM    ---      INT       boundary_type
      WR2         REGSYM    ---      WORD      dot_num
      REG=7       REGSYM    ---      ---       dot_x1
      R4          REGSYM    ---      BYTE      i
      R7          REGSYM    ---      BYTE      boundary_num
      R5          REGSYM    ---      BYTE      boundary_data_type
      REG=3       REGSYM    ---      ---       receive_packet

      ---         MODULE    ---      ---       seekfree_assistant_interface
      000109DEH   PUBLIC    XDATA    ---       seekfree_assistant_receive_callback
      000109E0H   PUBLIC    XDATA    ---       seekfree_assistant_transfer_callback
      000000D0H   SFRSYM    DATA     BYTE      PSW
      0000009DH   SFRSYM    DATA     BYTE      IRCBAND
      00000097H   SFRSYM    DATA     BYTE      AUXR2
      000000EFH   SFRSYM    DATA     BYTE      AUXINTIF
      000000FDH   SFRSYM    DATA     BYTE      S4CON
      000000ACH   SFRSYM    DATA     BYTE      S3CON
      0000009AH   SFRSYM    DATA     BYTE      S2CON
      000000B7H   SFRSYM    DATA     BYTE      IPH
      000000CDH   SFRSYM    DATA     BYTE      SPSTAT
      000000DDH   SFRSYM    DATA     BYTE      T4T3M
      000000C1H   SFRSYM    DATA     BYTE      WDT_CONTR
      000000DFH   SFRSYM    DATA     BYTE      IP3
      000000F4H   SFRSYM    DATA     BYTE      USBCON
      000000B5H   SFRSYM    DATA     BYTE      IP2
      000000FFH   SFRSYM    DATA     BYTE      RSTCFG
      000000C7H   SFRSYM    DATA     BYTE      IAP_CONTR
      000000F9H   SFRSYM    DATA     BYTE      LINICR
      0000008EH   SFRSYM    DATA     BYTE      AUXR
      000000AFH   SFRSYM    DATA     BYTE      IE2
      00000088H   SFRSYM    DATA     BYTE      TCON
L251 LINKER/LOCATER V4.66.93.0                                                        01/25/2026  01:33:53  PAGE 101


      00000089H   SFRSYM    DATA     BYTE      TMOD
      00000098H   SFRSYM    DATA     BYTE      SCON
      000000F1H   SFRSYM    DATA     BYTE      CANICR
      00000087H   SFRSYM    DATA     BYTE      PCON
      000000BCH   SFRSYM    DATA     BYTE      ADC_CONTR
      000000E7H   SFRSYM    DATA     BYTE      CMPCR2
      000000E6H   SFRSYM    DATA     BYTE      CMPCR1
      000000DEH   SFRSYM    DATA     BYTE      ADCCFG
      000000B8H   SFRSYM    DATA     BYTE      IP
      0000008FH   SFRSYM    DATA     BYTE      INTCLKO
      000000EEH   SFRSYM    DATA     BYTE      IP3H
      000000B6H   SFRSYM    DATA     BYTE      IP2H
      000000A8H   SFRSYM    DATA     BYTE      IE
      000000BBH   SFRSYM    DATA     BYTE      P_SW3
      000000BAH   SFRSYM    DATA     BYTE      P_SW2
      000000A2H   SFRSYM    DATA     BYTE      P_SW1
      000000CEH   SFRSYM    DATA     BYTE      SPCTL
      000000F8H   SFRSYM    DATA     BYTE      P7
      000000E8H   SFRSYM    DATA     BYTE      P6
      000000C8H   SFRSYM    DATA     BYTE      P5
      000000C0H   SFRSYM    DATA     BYTE      P4
      000000B0H   SFRSYM    DATA     BYTE      P3
      000000A0H   SFRSYM    DATA     BYTE      P2
      00000090H   SFRSYM    DATA     BYTE      P1
      00000080H   SFRSYM    DATA     BYTE      P0
      WR6         REGSYM    ---      INT       transfer_device

      ---         MODULE    ---      ---       motor
      00FF66FDH   PUBLIC    CODE     ---       Motor_Init
      00FF7500H   PUBLIC    CODE     ---       Motor_RightBackward
      00FF7527H   PUBLIC    CODE     ---       Motor_LeftBackward
      00FF74B0H   PUBLIC    CODE     ---       Motor_RightForward
      00FF74D8H   PUBLIC    CODE     ---       Motor_LeftForward
      000000D0H   SFRSYM    DATA     BYTE      PSW
      0000009DH   SFRSYM    DATA     BYTE      IRCBAND
      00000097H   SFRSYM    DATA     BYTE      AUXR2
      000000EFH   SFRSYM    DATA     BYTE      AUXINTIF
      000000FDH   SFRSYM    DATA     BYTE      S4CON
      000000ACH   SFRSYM    DATA     BYTE      S3CON
      0000009AH   SFRSYM    DATA     BYTE      S2CON
      000000B7H   SFRSYM    DATA     BYTE      IPH
      000000CDH   SFRSYM    DATA     BYTE      SPSTAT
      000000DDH   SFRSYM    DATA     BYTE      T4T3M
      000000C1H   SFRSYM    DATA     BYTE      WDT_CONTR
      000000DFH   SFRSYM    DATA     BYTE      IP3
      000000F4H   SFRSYM    DATA     BYTE      USBCON
      000000B5H   SFRSYM    DATA     BYTE      IP2
      000000FFH   SFRSYM    DATA     BYTE      RSTCFG
      000000C7H   SFRSYM    DATA     BYTE      IAP_CONTR
      000000F9H   SFRSYM    DATA     BYTE      LINICR
      0000008EH   SFRSYM    DATA     BYTE      AUXR
      000000AFH   SFRSYM    DATA     BYTE      IE2
      00000088H   SFRSYM    DATA     BYTE      TCON
      00000089H   SFRSYM    DATA     BYTE      TMOD
      00000098H   SFRSYM    DATA     BYTE      SCON
      000000F1H   SFRSYM    DATA     BYTE      CANICR
      00000087H   SFRSYM    DATA     BYTE      PCON
      000000BCH   SFRSYM    DATA     BYTE      ADC_CONTR
      000000E7H   SFRSYM    DATA     BYTE      CMPCR2
      000000E6H   SFRSYM    DATA     BYTE      CMPCR1
      000000DEH   SFRSYM    DATA     BYTE      ADCCFG
      000000B8H   SFRSYM    DATA     BYTE      IP
      0000008FH   SFRSYM    DATA     BYTE      INTCLKO
      000000EEH   SFRSYM    DATA     BYTE      IP3H
      000000B6H   SFRSYM    DATA     BYTE      IP2H
L251 LINKER/LOCATER V4.66.93.0                                                        01/25/2026  01:33:53  PAGE 102


      000000A8H   SFRSYM    DATA     BYTE      IE
      000000BBH   SFRSYM    DATA     BYTE      P_SW3
      000000BAH   SFRSYM    DATA     BYTE      P_SW2
      000000A2H   SFRSYM    DATA     BYTE      P_SW1
      000000CEH   SFRSYM    DATA     BYTE      SPCTL
      000000F8H   SFRSYM    DATA     BYTE      P7
      000000E8H   SFRSYM    DATA     BYTE      P6
      000000C8H   SFRSYM    DATA     BYTE      P5
      000000C0H   SFRSYM    DATA     BYTE      P4
      000000B0H   SFRSYM    DATA     BYTE      P3
      000000A0H   SFRSYM    DATA     BYTE      P2
      00000090H   SFRSYM    DATA     BYTE      P1
      00000080H   SFRSYM    DATA     BYTE      P0
      000109EBH   SYMBOL    XDATA    CHAR      dir
      000109ECH   SYMBOL    XDATA    CHAR      duty

      00FF66FDH   BLOCK     CODE     ---       LVL=0
      00FF66FDH   LINE      CODE     ---       #34
      00FF66FDH   LINE      CODE     ---       #37
      00FF670DH   LINE      CODE     ---       #38
      00FF6724H   LINE      CODE     ---       #41
      00FF6734H   LINE      CODE     ---       #42
      00FF674BH   LINE      CODE     ---       #45
      00FF675BH   LINE      CODE     ---       #46
      ---         BLOCKEND  ---      ---       LVL=0

      00FF74D8H   BLOCK     CODE     ---       LVL=0
      R15         REGSYM    ---      BYTE      pwm
      00FF74D8H   LINE      CODE     ---       #109
      00FF74DCH   LINE      CODE     ---       #111
      00FF74E5H   LINE      CODE     ---       #112
      00FF74FDH   LINE      CODE     ---       #113
      ---         BLOCKEND  ---      ---       LVL=0

      00FF74B0H   BLOCK     CODE     ---       LVL=0
      R15         REGSYM    ---      BYTE      pwm
      00FF74B0H   LINE      CODE     ---       #121
      00FF74B4H   LINE      CODE     ---       #123
      00FF74BDH   LINE      CODE     ---       #124
      00FF74D5H   LINE      CODE     ---       #125
      ---         BLOCKEND  ---      ---       LVL=0

      00FF7527H   BLOCK     CODE     ---       LVL=0
      R15         REGSYM    ---      BYTE      pwm
      00FF7527H   LINE      CODE     ---       #133
      00FF752BH   LINE      CODE     ---       #135
      00FF7533H   LINE      CODE     ---       #136
      00FF754BH   LINE      CODE     ---       #137
      ---         BLOCKEND  ---      ---       LVL=0

      00FF7500H   BLOCK     CODE     ---       LVL=0
      R15         REGSYM    ---      BYTE      pwm
      00FF7500H   LINE      CODE     ---       #145
      00FF7504H   LINE      CODE     ---       #147
      00FF750CH   LINE      CODE     ---       #148
      00FF7524H   LINE      CODE     ---       #149
      ---         BLOCKEND  ---      ---       LVL=0
      R15         REGSYM    ---      BYTE      pwm

      ---         MODULE    ---      ---       key
      00FF7180H   PUBLIC    CODE     ---       key_init
      000109E2H   PUBLIC    XDATA    BYTE      key_up
      000109E3H   PUBLIC    XDATA    BYTE      key_down
      000109E4H   PUBLIC    XDATA    BYTE      key_old
      000109E5H   PUBLIC    XDATA    BYTE      key_val
L251 LINKER/LOCATER V4.66.93.0                                                        01/25/2026  01:33:53  PAGE 103


      000000D0H   SFRSYM    DATA     BYTE      PSW
      0000009DH   SFRSYM    DATA     BYTE      IRCBAND
      00000097H   SFRSYM    DATA     BYTE      AUXR2
      000000EFH   SFRSYM    DATA     BYTE      AUXINTIF
      000000FDH   SFRSYM    DATA     BYTE      S4CON
      000000ACH   SFRSYM    DATA     BYTE      S3CON
      0000009AH   SFRSYM    DATA     BYTE      S2CON
      000000B7H   SFRSYM    DATA     BYTE      IPH
      000000CDH   SFRSYM    DATA     BYTE      SPSTAT
      000000DDH   SFRSYM    DATA     BYTE      T4T3M
      000000C1H   SFRSYM    DATA     BYTE      WDT_CONTR
      000000DFH   SFRSYM    DATA     BYTE      IP3
      000000F4H   SFRSYM    DATA     BYTE      USBCON
      000000B5H   SFRSYM    DATA     BYTE      IP2
      000000FFH   SFRSYM    DATA     BYTE      RSTCFG
      000000C7H   SFRSYM    DATA     BYTE      IAP_CONTR
      000000F9H   SFRSYM    DATA     BYTE      LINICR
      0000008EH   SFRSYM    DATA     BYTE      AUXR
      000000AFH   SFRSYM    DATA     BYTE      IE2
      00000088H   SFRSYM    DATA     BYTE      TCON
      00000089H   SFRSYM    DATA     BYTE      TMOD
      00000098H   SFRSYM    DATA     BYTE      SCON
      000000F1H   SFRSYM    DATA     BYTE      CANICR
      00000087H   SFRSYM    DATA     BYTE      PCON
      000000BCH   SFRSYM    DATA     BYTE      ADC_CONTR
      000000E7H   SFRSYM    DATA     BYTE      CMPCR2
      000000E6H   SFRSYM    DATA     BYTE      CMPCR1
      000000DEH   SFRSYM    DATA     BYTE      ADCCFG
      000000B8H   SFRSYM    DATA     BYTE      IP
      0000008FH   SFRSYM    DATA     BYTE      INTCLKO
      000000EEH   SFRSYM    DATA     BYTE      IP3H
      000000B6H   SFRSYM    DATA     BYTE      IP2H
      000000A8H   SFRSYM    DATA     BYTE      IE
      000000BBH   SFRSYM    DATA     BYTE      P_SW3
      000000BAH   SFRSYM    DATA     BYTE      P_SW2
      000000A2H   SFRSYM    DATA     BYTE      P_SW1
      000000CEH   SFRSYM    DATA     BYTE      SPCTL
      000000F8H   SFRSYM    DATA     BYTE      P7
      000000E8H   SFRSYM    DATA     BYTE      P6
      000000C8H   SFRSYM    DATA     BYTE      P5
      000000C0H   SFRSYM    DATA     BYTE      P4
      000000B0H   SFRSYM    DATA     BYTE      P3
      000000A0H   SFRSYM    DATA     BYTE      P2
      00000090H   SFRSYM    DATA     BYTE      P1
      00000080H   SFRSYM    DATA     BYTE      P0

      00FF7180H   BLOCK     CODE     ---       LVL=0
      00FF7180H   LINE      CODE     ---       #15
      00FF7180H   LINE      CODE     ---       #17
      00FF718FH   LINE      CODE     ---       #18
      00FF719EH   LINE      CODE     ---       #19
      00FF71ADH   LINE      CODE     ---       #20
      ---         BLOCKEND  ---      ---       LVL=0
      R15         REGSYM    ---      BYTE      key_temp

      ---         MODULE    ---      ---       adc
      00FF63ADH   PUBLIC    CODE     ---       adc_sample
      00FF71BCH   PUBLIC    CODE     ---       limit
      00FF6CB6H   PUBLIC    CODE     ---       Adc_Getval_Fast
      00FF7485H   PUBLIC    CODE     ---       Adc_All_Init
      000108A4H   PUBLIC    XDATA    BYTE      channel_index
      000108A5H   PUBLIC    XDATA    ---       adc_val_list
      000108AFH   PUBLIC    XDATA    ---       max_min_adc
      000108C3H   PUBLIC    XDATA    ---       channel_list
      000000D0H   SFRSYM    DATA     BYTE      PSW
L251 LINKER/LOCATER V4.66.93.0                                                        01/25/2026  01:33:53  PAGE 104


      0000009DH   SFRSYM    DATA     BYTE      IRCBAND
      00000097H   SFRSYM    DATA     BYTE      AUXR2
      000000EFH   SFRSYM    DATA     BYTE      AUXINTIF
      000000FDH   SFRSYM    DATA     BYTE      S4CON
      000000ACH   SFRSYM    DATA     BYTE      S3CON
      0000009AH   SFRSYM    DATA     BYTE      S2CON
      000000B7H   SFRSYM    DATA     BYTE      IPH
      000000CDH   SFRSYM    DATA     BYTE      SPSTAT
      000000DDH   SFRSYM    DATA     BYTE      T4T3M
      000000C1H   SFRSYM    DATA     BYTE      WDT_CONTR
      000000DFH   SFRSYM    DATA     BYTE      IP3
      000000F4H   SFRSYM    DATA     BYTE      USBCON
      000000B5H   SFRSYM    DATA     BYTE      IP2
      000000FFH   SFRSYM    DATA     BYTE      RSTCFG
      000000C7H   SFRSYM    DATA     BYTE      IAP_CONTR
      000000F9H   SFRSYM    DATA     BYTE      LINICR
      0000008EH   SFRSYM    DATA     BYTE      AUXR
      000000AFH   SFRSYM    DATA     BYTE      IE2
      00000088H   SFRSYM    DATA     BYTE      TCON
      00000089H   SFRSYM    DATA     BYTE      TMOD
      00000098H   SFRSYM    DATA     BYTE      SCON
      000000F1H   SFRSYM    DATA     BYTE      CANICR
      00000087H   SFRSYM    DATA     BYTE      PCON
      000000BCH   SFRSYM    DATA     BYTE      ADC_CONTR
      000000E7H   SFRSYM    DATA     BYTE      CMPCR2
      000000E6H   SFRSYM    DATA     BYTE      CMPCR1
      000000DEH   SFRSYM    DATA     BYTE      ADCCFG
      000000B8H   SFRSYM    DATA     BYTE      IP
      0000008FH   SFRSYM    DATA     BYTE      INTCLKO
      000000EEH   SFRSYM    DATA     BYTE      IP3H
      000000B6H   SFRSYM    DATA     BYTE      IP2H
      000000A8H   SFRSYM    DATA     BYTE      IE
      000000BBH   SFRSYM    DATA     BYTE      P_SW3
      000000BAH   SFRSYM    DATA     BYTE      P_SW2
      000000A2H   SFRSYM    DATA     BYTE      P_SW1
      000000CEH   SFRSYM    DATA     BYTE      SPCTL
      000000F8H   SFRSYM    DATA     BYTE      P7
      000000E8H   SFRSYM    DATA     BYTE      P6
      000000C8H   SFRSYM    DATA     BYTE      P5
      000000C0H   SFRSYM    DATA     BYTE      P4
      000000B0H   SFRSYM    DATA     BYTE      P3
      000000A0H   SFRSYM    DATA     BYTE      P2
      00000090H   SFRSYM    DATA     BYTE      P1
      00000080H   SFRSYM    DATA     BYTE      P0

      00FF7485H   BLOCK     CODE     ---       LVL=0
      00FF7485H   LINE      CODE     ---       #35
      00FF7485H   LINE      CODE     ---       #37
      00FF748EH   LINE      CODE     ---       #38
      00FF7495H   LINE      CODE     ---       #39
      00FF749EH   LINE      CODE     ---       #40
      00FF74A7H   LINE      CODE     ---       #41
      ---         BLOCKEND  ---      ---       LVL=0

      00FF71BCH   BLOCK     CODE     ---       LVL=0
      WR2         REGSYM    ---      WORD      adc_val
      R1          REGSYM    ---      BYTE      index
      00FF71BCH   LINE      CODE     ---       #52
      00FF71C0H   LINE      CODE     ---       #54
      00FF71D8H   LINE      CODE     ---       #56
      00FF71DAH   LINE      CODE     ---       #57
      00FF71DAH   LINE      CODE     ---       #58
      00FF71F1H   LINE      CODE     ---       #60
      00FF71F3H   LINE      CODE     ---       #61
      00FF71F3H   LINE      CODE     ---       #62
L251 LINKER/LOCATER V4.66.93.0                                                        01/25/2026  01:33:53  PAGE 105


      00FF71F5H   LINE      CODE     ---       #63
      ---         BLOCKEND  ---      ---       LVL=0

      00FF6CB6H   BLOCK     CODE     ---       LVL=0
      00FF6CB6H   LINE      CODE     ---       #163
      00FF6CB6H   LINE      CODE     ---       #165
      00FF6CBBH   LINE      CODE     ---       #167
      00FF6CF6H   LINE      CODE     ---       #171
      00FF6D06H   LINE      CODE     ---       #172
      ---         BLOCKEND  ---      ---       LVL=0
      WR14        REGSYM    ---      INT       ch
      WR4         REGSYM    ---      WORD      k
      WR12        REGSYM    ---      WORD      tmp

      00FF63ADH   BLOCK     CODE     ---       LVL=0
      WR14        REGSYM    ---      INT       ch
      00FF63B1H   BLOCK     CODE     NEAR LAB  LVL=1
      WR6         REGSYM    ---      WORD      temp
      0001063BH   SYMBOL    XDATA    WORD      sum
      0001063DH   SYMBOL    XDATA    WORD      max
      0001063FH   SYMBOL    XDATA    WORD      min
      00010641H   SYMBOL    XDATA    BYTE      i
      ---         BLOCKEND  ---      ---       LVL=1
      00FF63ADH   LINE      CODE     ---       #245
      00FF63B1H   LINE      CODE     ---       #246
      00FF63B1H   LINE      CODE     ---       #251
      00FF63B4H   LINE      CODE     ---       #252
      00FF63BAH   LINE      CODE     ---       #253
      00FF63C0H   LINE      CODE     ---       #254
      00FF63C6H   LINE      CODE     ---       #257
      00FF63CBH   LINE      CODE     ---       #259
      00FF63D2H   LINE      CODE     ---       #260
      00FF63DCH   LINE      CODE     ---       #262
      00FF63E2H   LINE      CODE     ---       #263
      00FF63E2H   LINE      CODE     ---       #264
      00FF63ECH   LINE      CODE     ---       #266
      00FF63F2H   LINE      CODE     ---       #267
      00FF63F2H   LINE      CODE     ---       #268
      00FF63FDH   LINE      CODE     ---       #269
      00FF640CH   LINE      CODE     ---       #272
      00FF6428H   LINE      CODE     ---       #274
      00FF6428H   LINE      CODE     ---       #275
      ---         BLOCKEND  ---      ---       LVL=0
      WR14        REGSYM    ---      INT       ch
      WR6         REGSYM    ---      WORD      temp
      REG=7       REGSYM    ---      ---       arr
      R7          REGSYM    ---      BYTE      i
      R6          REGSYM    ---      BYTE      j
      WR4         REGSYM    ---      WORD      temp
      WR14        REGSYM    ---      INT       ch
      R13         REGSYM    ---      BYTE      i

      ---         MODULE    ---      ---       uart
      00010871H   PUBLIC    XDATA    ---       buf
      000108A3H   PUBLIC    XDATA    BYTE      cnt
      000000D0H   SFRSYM    DATA     BYTE      PSW
      0000009DH   SFRSYM    DATA     BYTE      IRCBAND
      00000097H   SFRSYM    DATA     BYTE      AUXR2
      000000EFH   SFRSYM    DATA     BYTE      AUXINTIF
      000000FDH   SFRSYM    DATA     BYTE      S4CON
      000000ACH   SFRSYM    DATA     BYTE      S3CON
      0000009AH   SFRSYM    DATA     BYTE      S2CON
      000000B7H   SFRSYM    DATA     BYTE      IPH
      000000CDH   SFRSYM    DATA     BYTE      SPSTAT
      000000DDH   SFRSYM    DATA     BYTE      T4T3M
L251 LINKER/LOCATER V4.66.93.0                                                        01/25/2026  01:33:53  PAGE 106


      000000C1H   SFRSYM    DATA     BYTE      WDT_CONTR
      000000DFH   SFRSYM    DATA     BYTE      IP3
      000000F4H   SFRSYM    DATA     BYTE      USBCON
      000000B5H   SFRSYM    DATA     BYTE      IP2
      000000FFH   SFRSYM    DATA     BYTE      RSTCFG
      000000C7H   SFRSYM    DATA     BYTE      IAP_CONTR
      000000F9H   SFRSYM    DATA     BYTE      LINICR
      0000008EH   SFRSYM    DATA     BYTE      AUXR
      000000AFH   SFRSYM    DATA     BYTE      IE2
      00000088H   SFRSYM    DATA     BYTE      TCON
      00000089H   SFRSYM    DATA     BYTE      TMOD
      00000098H   SFRSYM    DATA     BYTE      SCON
      000000F1H   SFRSYM    DATA     BYTE      CANICR
      00000087H   SFRSYM    DATA     BYTE      PCON
      000000BCH   SFRSYM    DATA     BYTE      ADC_CONTR
      000000E7H   SFRSYM    DATA     BYTE      CMPCR2
      000000E6H   SFRSYM    DATA     BYTE      CMPCR1
      000000DEH   SFRSYM    DATA     BYTE      ADCCFG
      000000B8H   SFRSYM    DATA     BYTE      IP
      0000008FH   SFRSYM    DATA     BYTE      INTCLKO
      000000EEH   SFRSYM    DATA     BYTE      IP3H
      000000B6H   SFRSYM    DATA     BYTE      IP2H
      000000A8H   SFRSYM    DATA     BYTE      IE
      000000BBH   SFRSYM    DATA     BYTE      P_SW3
      000000BAH   SFRSYM    DATA     BYTE      P_SW2
      000000A2H   SFRSYM    DATA     BYTE      P_SW1
      000000CEH   SFRSYM    DATA     BYTE      SPCTL
      000000F8H   SFRSYM    DATA     BYTE      P7
      000000E8H   SFRSYM    DATA     BYTE      P6
      000000C8H   SFRSYM    DATA     BYTE      P5
      000000C0H   SFRSYM    DATA     BYTE      P4
      000000B0H   SFRSYM    DATA     BYTE      P3
      000000A0H   SFRSYM    DATA     BYTE      P2
      00000090H   SFRSYM    DATA     BYTE      P1
      00000080H   SFRSYM    DATA     BYTE      P0

      ---         MODULE    ---      ---       pid
      00FF522BH   PUBLIC    CODE     ---       pid_calc_position
      00FF5CB2H   PUBLIC    CODE     ---       motor_pid_control
      00FF56C9H   PUBLIC    CODE     ---       pd_direction_gyro_loop
      00FF0066H   PUBLIC    CODE     ---       constrain_float
      00FF61E6H   PUBLIC    CODE     ---       pid_init
      00FF7663H   PUBLIC    CODE     ---       pid_set_target
      00FF5366H   PUBLIC    CODE     ---       pid_calc_increment
      00FF6F52H   PUBLIC    CODE     ---       pd_init
      00010507H   PUBLIC    XDATA    ---       pd_angle
      00010517H   PUBLIC    XDATA    ---       pid_SDSD
      00010557H   PUBLIC    XDATA    ---       pid_motor_right
      00010597H   PUBLIC    XDATA    ---       pid_motor_left
      000105D7H   PUBLIC    XDATA    ---       pd_gyro
      000105E7H   PUBLIC    XDATA    ---       pd_direction
      00010633H   PUBLIC    XDATA    BYTE      ?pid_init?BYTE
      00010639H   PUBLIC    XDATA    BYTE      ?constrain_float?BYTE
      00010633H   PUBLIC    XDATA    BYTE      ?pd_init?BYTE
      000000D0H   SFRSYM    DATA     BYTE      PSW
      0000009DH   SFRSYM    DATA     BYTE      IRCBAND
      00000097H   SFRSYM    DATA     BYTE      AUXR2
      000000EFH   SFRSYM    DATA     BYTE      AUXINTIF
      000000FDH   SFRSYM    DATA     BYTE      S4CON
      000000ACH   SFRSYM    DATA     BYTE      S3CON
      0000009AH   SFRSYM    DATA     BYTE      S2CON
      000000B7H   SFRSYM    DATA     BYTE      IPH
      000000CDH   SFRSYM    DATA     BYTE      SPSTAT
      000000DDH   SFRSYM    DATA     BYTE      T4T3M
      000000C1H   SFRSYM    DATA     BYTE      WDT_CONTR
L251 LINKER/LOCATER V4.66.93.0                                                        01/25/2026  01:33:53  PAGE 107


      000000DFH   SFRSYM    DATA     BYTE      IP3
      000000F4H   SFRSYM    DATA     BYTE      USBCON
      000000B5H   SFRSYM    DATA     BYTE      IP2
      000000FFH   SFRSYM    DATA     BYTE      RSTCFG
      000000C7H   SFRSYM    DATA     BYTE      IAP_CONTR
      000000F9H   SFRSYM    DATA     BYTE      LINICR
      0000008EH   SFRSYM    DATA     BYTE      AUXR
      000000AFH   SFRSYM    DATA     BYTE      IE2
      00000088H   SFRSYM    DATA     BYTE      TCON
      00000089H   SFRSYM    DATA     BYTE      TMOD
      00000098H   SFRSYM    DATA     BYTE      SCON
      000000F1H   SFRSYM    DATA     BYTE      CANICR
      00000087H   SFRSYM    DATA     BYTE      PCON
      000000BCH   SFRSYM    DATA     BYTE      ADC_CONTR
      000000E7H   SFRSYM    DATA     BYTE      CMPCR2
      000000E6H   SFRSYM    DATA     BYTE      CMPCR1
      000000DEH   SFRSYM    DATA     BYTE      ADCCFG
      000000B8H   SFRSYM    DATA     BYTE      IP
      0000008FH   SFRSYM    DATA     BYTE      INTCLKO
      000000EEH   SFRSYM    DATA     BYTE      IP3H
      000000B6H   SFRSYM    DATA     BYTE      IP2H
      000000A8H   SFRSYM    DATA     BYTE      IE
      000000BBH   SFRSYM    DATA     BYTE      P_SW3
      000000BAH   SFRSYM    DATA     BYTE      P_SW2
      000000A2H   SFRSYM    DATA     BYTE      P_SW1
      000000CEH   SFRSYM    DATA     BYTE      SPCTL
      000000F8H   SFRSYM    DATA     BYTE      P7
      000000E8H   SFRSYM    DATA     BYTE      P6
      000000C8H   SFRSYM    DATA     BYTE      P5
      000000C0H   SFRSYM    DATA     BYTE      P4
      000000B0H   SFRSYM    DATA     BYTE      P3
      000000A0H   SFRSYM    DATA     BYTE      P2
      00000090H   SFRSYM    DATA     BYTE      P1
      00000080H   SFRSYM    DATA     BYTE      P0

      00FF61E6H   BLOCK     CODE     ---       LVL=0
      REG=2       REGSYM    ---      ---       pid
      DR4         REGSYM    ---      FLOAT     kp
      0001063BH   SYMBOL    XDATA    FLOAT     ki
      0001063FH   SYMBOL    XDATA    FLOAT     kd
      00FF61E6H   LINE      CODE     ---       #22
      00FF61E8H   LINE      CODE     ---       #24
      00FF61EFH   LINE      CODE     ---       #25
      00FF6201H   LINE      CODE     ---       #26
      00FF6213H   LINE      CODE     ---       #27
      00FF621DH   LINE      CODE     ---       #28
      00FF6225H   LINE      CODE     ---       #29
      00FF622DH   LINE      CODE     ---       #30
      00FF6235H   LINE      CODE     ---       #31
      00FF623DH   LINE      CODE     ---       #32
      00FF6245H   LINE      CODE     ---       #33
      00FF624DH   LINE      CODE     ---       #34
      00FF6255H   LINE      CODE     ---       #35
      00FF625DH   LINE      CODE     ---       #36
      00FF6265H   LINE      CODE     ---       #37
      00FF6271H   LINE      CODE     ---       #38
      00FF627DH   LINE      CODE     ---       #39
      00FF6289H   LINE      CODE     ---       #40
      ---         BLOCKEND  ---      ---       LVL=0
      REG=2       REGSYM    ---      ---       pid
      DR4         REGSYM    ---      FLOAT     kp

      00FF7663H   BLOCK     CODE     ---       LVL=0
      REG=7       REGSYM    ---      ---       pid
      DR4         REGSYM    ---      FLOAT     target
L251 LINKER/LOCATER V4.66.93.0                                                        01/25/2026  01:33:53  PAGE 108


      00FF7663H   LINE      CODE     ---       #65
      00FF7665H   LINE      CODE     ---       #67
      00FF7670H   LINE      CODE     ---       #68
      ---         BLOCKEND  ---      ---       LVL=0
      REG=2       REGSYM    ---      ---       pid

      00FF0066H   BLOCK     CODE     ---       LVL=0
      DR28        REGSYM    ---      FLOAT     value
      DR24        REGSYM    ---      FLOAT     min_val
      00010641H   SYMBOL    XDATA    FLOAT     max_val
      00FF0066H   LINE      CODE     ---       #95
      00FF006AH   LINE      CODE     ---       #97
      00FF006FH   LINE      CODE     ---       #98
      00FF0072H   LINE      CODE     ---       #99
      00FF0085H   LINE      CODE     ---       #100
      00FF0088H   LINE      CODE     ---       #102
      00FF008AH   LINE      CODE     ---       #103
      ---         BLOCKEND  ---      ---       LVL=0

      00FF522BH   BLOCK     CODE     ---       LVL=0
      REG=3       REGSYM    ---      ---       pid
      DR28        REGSYM    ---      FLOAT     actual
      00FF522BH   LINE      CODE     ---       #111
      00FF5231H   LINE      CODE     ---       #113
      00FF5239H   LINE      CODE     ---       #114
      00FF524EH   LINE      CODE     ---       #115
      00FF526DH   LINE      CODE     ---       #116
      00FF529DH   LINE      CODE     ---       #117
      00FF52B7H   LINE      CODE     ---       #118
      00FF52D2H   LINE      CODE     ---       #119
      00FF52F8H   LINE      CODE     ---       #120
      00FF5308H   LINE      CODE     ---       #121
      00FF532EH   LINE      CODE     ---       #122
      00FF535BH   LINE      CODE     ---       #123
      00FF5363H   LINE      CODE     ---       #124
      ---         BLOCKEND  ---      ---       LVL=0

      00FF5366H   BLOCK     CODE     ---       LVL=0
      REG=3       REGSYM    ---      ---       pid
      DR28        REGSYM    ---      FLOAT     actual
      00FF536CH   BLOCK     CODE     NEAR LAB  LVL=1
      DR0         REGSYM    ---      FLOAT     increment
      ---         BLOCKEND  ---      ---       LVL=1
      00FF5366H   LINE      CODE     ---       #132
      00FF536CH   LINE      CODE     ---       #133
      00FF536CH   LINE      CODE     ---       #135
      00FF5374H   LINE      CODE     ---       #136
      00FF5389H   LINE      CODE     ---       #137
      00FF53AEH   LINE      CODE     ---       #138
      00FF53C9H   LINE      CODE     ---       #139
      00FF5405H   LINE      CODE     ---       #140
      00FF5425H   LINE      CODE     ---       #141
      00FF5435H   LINE      CODE     ---       #142
      00FF5445H   LINE      CODE     ---       #143
      00FF545CH   LINE      CODE     ---       #144
      00FF5489H   LINE      CODE     ---       #145
      00FF5491H   LINE      CODE     ---       #146
      ---         BLOCKEND  ---      ---       LVL=0

      00FF5CB2H   BLOCK     CODE     ---       LVL=0
      WR8         REGSYM    ---      INT       encoder_left
      WR14        REGSYM    ---      INT       encoder_right
      00FF5CB6H   BLOCK     CODE     NEAR LAB  LVL=1
      0001063BH   SYMBOL    XDATA    FLOAT     output_left
      DR12        REGSYM    ---      FLOAT     output_right
L251 LINKER/LOCATER V4.66.93.0                                                        01/25/2026  01:33:53  PAGE 109


      0001063FH   SYMBOL    XDATA    BYTE      pwm_left
      00010640H   SYMBOL    XDATA    BYTE      pwm_right
      ---         BLOCKEND  ---      ---       LVL=1
      00FF5CB2H   LINE      CODE     ---       #157
      00FF5CB6H   LINE      CODE     ---       #158
      00FF5CB6H   LINE      CODE     ---       #165
      00FF5CD2H   LINE      CODE     ---       #166
      00FF5CE6H   LINE      CODE     ---       #169
      00FF5CF9H   LINE      CODE     ---       #171
      00FF5D15H   LINE      CODE     ---       #172
      00FF5D18H   LINE      CODE     ---       #173
      00FF5D1AH   LINE      CODE     ---       #176
      00FF5D43H   LINE      CODE     ---       #177
      00FF5D46H   LINE      CODE     ---       #178
      00FF5D46H   LINE      CODE     ---       #181
      00FF5D4FH   LINE      CODE     ---       #183
      00FF5D6BH   LINE      CODE     ---       #184
      00FF5D6EH   LINE      CODE     ---       #185
      00FF5D70H   LINE      CODE     ---       #188
      00FF5D91H   LINE      CODE     ---       #189
      00FF5D94H   LINE      CODE     ---       #190
      00FF5D94H   LINE      CODE     ---       #191
      ---         BLOCKEND  ---      ---       LVL=0

      00FF6F52H   BLOCK     CODE     ---       LVL=0
      REG=2       REGSYM    ---      ---       pd
      DR4         REGSYM    ---      FLOAT     kp
      0001063BH   SYMBOL    XDATA    FLOAT     kd
      0001063FH   SYMBOL    XDATA    FLOAT     kp_gyro
      00010643H   SYMBOL    XDATA    FLOAT     kd_gyro
      00FF6F52H   LINE      CODE     ---       #207
      00FF6F54H   LINE      CODE     ---       #209
      00FF6F5BH   LINE      CODE     ---       #210
      00FF6F6DH   LINE      CODE     ---       #211
      00FF6F7FH   LINE      CODE     ---       #212
      00FF6F91H   LINE      CODE     ---       #213
      ---         BLOCKEND  ---      ---       LVL=0
      DR20        REGSYM    ---      FLOAT     err_position
      000105F7H   SYMBOL    XDATA    ---       err_position_history
      00010607H   SYMBOL    XDATA    ---       err_gyro_history
      DR28        REGSYM    ---      FLOAT     expect_gyro
      DR20        REGSYM    ---      FLOAT     err_gyro
      DR28        REGSYM    ---      FLOAT     correction
      DR24        REGSYM    ---      FLOAT     current_angle
      DR0         REGSYM    ---      FLOAT     target_angle
      0001060FH   SYMBOL    XDATA    ---       err_angle_history
      DR16        REGSYM    ---      FLOAT     err_angle
      DR20        REGSYM    ---      FLOAT     expect_gyro
      DR24        REGSYM    ---      FLOAT     expect_gyro
      DR28        REGSYM    ---      FLOAT     actual_gyro
      0001061BH   SYMBOL    XDATA    ---       err_gyro_history
      DR24        REGSYM    ---      FLOAT     err_gyro
      WR22        REGSYM    ---      INT       output

      00FF56C9H   BLOCK     CODE     ---       LVL=0
      DR20        REGSYM    ---      FLOAT     err_position
      00FF56CBH   BLOCK     CODE     NEAR LAB  LVL=1
      00010623H   SYMBOL    XDATA    ---       err_position_history
      00010633H   SYMBOL    XDATA    ---       err_gyro_history
      DR28        REGSYM    ---      FLOAT     expect_gyro
      DR20        REGSYM    ---      FLOAT     err_gyro
      DR28        REGSYM    ---      FLOAT     correction
      ---         BLOCKEND  ---      ---       LVL=1
      00FF56C9H   LINE      CODE     ---       #347
      00FF56CBH   LINE      CODE     ---       #348
L251 LINKER/LOCATER V4.66.93.0                                                        01/25/2026  01:33:53  PAGE 110


      00FF56CBH   LINE      CODE     ---       #357
      00FF56DFH   LINE      CODE     ---       #358
      00FF56F3H   LINE      CODE     ---       #359
      00FF56FDH   LINE      CODE     ---       #362
      00FF5731H   LINE      CODE     ---       #366
      00FF573EH   LINE      CODE     ---       #367
      00FF5742H   LINE      CODE     ---       #368
      00FF5751H   LINE      CODE     ---       #369
      00FF5753H   LINE      CODE     ---       #373
      00FF5764H   LINE      CODE     ---       #376
      00FF5778H   LINE      CODE     ---       #377
      00FF5782H   LINE      CODE     ---       #380
      00FF57B6H   LINE      CODE     ---       #384
      00FF57BDH   LINE      CODE     ---       #385
      00FF57C1H   LINE      CODE     ---       #386
      00FF57D0H   LINE      CODE     ---       #387
      00FF57D2H   LINE      CODE     ---       #389
      00FF57D4H   LINE      CODE     ---       #390
      ---         BLOCKEND  ---      ---       LVL=0

      ---         MODULE    ---      ---       encoder
      00FF7459H   PUBLIC    CODE     ---       iir_lowpass
      00FF72D7H   PUBLIC    CODE     ---       Encoder_Init
      00FF5F27H   PUBLIC    CODE     ---       Encoder_Get_Filtered
      0001098FH   PUBLIC    XDATA    INT       encoder_data_dir_L
      00010991H   PUBLIC    XDATA    INT       encoder_data_dir_R
      00010637H   PUBLIC    XDATA    BYTE      ?iir_lowpass?BYTE
      000000D0H   SFRSYM    DATA     BYTE      PSW
      0000009DH   SFRSYM    DATA     BYTE      IRCBAND
      00000097H   SFRSYM    DATA     BYTE      AUXR2
      000000EFH   SFRSYM    DATA     BYTE      AUXINTIF
      000000FDH   SFRSYM    DATA     BYTE      S4CON
      000000ACH   SFRSYM    DATA     BYTE      S3CON
      0000009AH   SFRSYM    DATA     BYTE      S2CON
      000000B7H   SFRSYM    DATA     BYTE      IPH
      000000CDH   SFRSYM    DATA     BYTE      SPSTAT
      000000DDH   SFRSYM    DATA     BYTE      T4T3M
      000000C1H   SFRSYM    DATA     BYTE      WDT_CONTR
      000000DFH   SFRSYM    DATA     BYTE      IP3
      000000F4H   SFRSYM    DATA     BYTE      USBCON
      000000B5H   SFRSYM    DATA     BYTE      IP2
      000000FFH   SFRSYM    DATA     BYTE      RSTCFG
      000000C7H   SFRSYM    DATA     BYTE      IAP_CONTR
      000000F9H   SFRSYM    DATA     BYTE      LINICR
      0000008EH   SFRSYM    DATA     BYTE      AUXR
      000000AFH   SFRSYM    DATA     BYTE      IE2
      00000088H   SFRSYM    DATA     BYTE      TCON
      00000089H   SFRSYM    DATA     BYTE      TMOD
      00000098H   SFRSYM    DATA     BYTE      SCON
      000000F1H   SFRSYM    DATA     BYTE      CANICR
      00000087H   SFRSYM    DATA     BYTE      PCON
      000000BCH   SFRSYM    DATA     BYTE      ADC_CONTR
      000000E7H   SFRSYM    DATA     BYTE      CMPCR2
      000000E6H   SFRSYM    DATA     BYTE      CMPCR1
      000000DEH   SFRSYM    DATA     BYTE      ADCCFG
      000000B8H   SFRSYM    DATA     BYTE      IP
      0000008FH   SFRSYM    DATA     BYTE      INTCLKO
      000000EEH   SFRSYM    DATA     BYTE      IP3H
      000000B6H   SFRSYM    DATA     BYTE      IP2H
      000000A8H   SFRSYM    DATA     BYTE      IE
      000000BBH   SFRSYM    DATA     BYTE      P_SW3
      000000BAH   SFRSYM    DATA     BYTE      P_SW2
      000000A2H   SFRSYM    DATA     BYTE      P_SW1
      000000CEH   SFRSYM    DATA     BYTE      SPCTL
      000000F8H   SFRSYM    DATA     BYTE      P7
L251 LINKER/LOCATER V4.66.93.0                                                        01/25/2026  01:33:53  PAGE 111


      000000E8H   SFRSYM    DATA     BYTE      P6
      000000C8H   SFRSYM    DATA     BYTE      P5
      000000C0H   SFRSYM    DATA     BYTE      P4
      000000B0H   SFRSYM    DATA     BYTE      P3
      000000A0H   SFRSYM    DATA     BYTE      P2
      00000090H   SFRSYM    DATA     BYTE      P1
      00000080H   SFRSYM    DATA     BYTE      P0
      00010987H   SYMBOL    XDATA    FLOAT     last_encoder_L
      0001098BH   SYMBOL    XDATA    FLOAT     last_encoder_R

      00FF72D7H   BLOCK     CODE     ---       LVL=0
      00FF72D7H   LINE      CODE     ---       #23
      00FF72D7H   LINE      CODE     ---       #25
      00FF72E4H   LINE      CODE     ---       #26
      00FF72F3H   LINE      CODE     ---       #27
      00FF72FFH   LINE      CODE     ---       #28
      00FF7309H   LINE      CODE     ---       #29
      ---         BLOCKEND  ---      ---       LVL=0

      00FF7459H   BLOCK     CODE     ---       LVL=0
      DR24        REGSYM    ---      FLOAT     new_val
      DR28        REGSYM    ---      FLOAT     last_val
      0001063FH   SYMBOL    XDATA    FLOAT     alpha
      00FF7459H   LINE      CODE     ---       #42
      00FF745DH   LINE      CODE     ---       #44
      ---         BLOCKEND  ---      ---       LVL=0

      00FF5F27H   BLOCK     CODE     ---       LVL=0
      00FF5F29H   BLOCK     CODE     NEAR LAB  LVL=1
      0001063BH   SYMBOL    XDATA    FLOAT     temp_L
      DR12        REGSYM    ---      FLOAT     temp_R
      ---         BLOCKEND  ---      ---       LVL=1
      00FF5F27H   LINE      CODE     ---       #56
      00FF5F29H   LINE      CODE     ---       #57
      00FF5F29H   LINE      CODE     ---       #61
      00FF5F29H   LINE      CODE     ---       #62
      00FF5F41H   LINE      CODE     ---       #63
      00FF5F4FH   LINE      CODE     ---       #65
      00FF5F82H   LINE      CODE     ---       #66
      00FF5FAFH   LINE      CODE     ---       #68
      00FF5FC2H   LINE      CODE     ---       #69
      00FF5FCDH   LINE      CODE     ---       #71
      00FF5FD4H   LINE      CODE     ---       #72
      00FF5FD9H   LINE      CODE     ---       #73
      ---         BLOCKEND  ---      ---       LVL=0

      ---         MODULE    ---      ---       normalization
      00FF613CH   PUBLIC    CODE     ---       Normalization
      0001099DH   PUBLIC    XDATA    ---       adc_normalized_list
      000000D0H   SFRSYM    DATA     BYTE      PSW
      0000009DH   SFRSYM    DATA     BYTE      IRCBAND
      00000097H   SFRSYM    DATA     BYTE      AUXR2
      000000EFH   SFRSYM    DATA     BYTE      AUXINTIF
      000000FDH   SFRSYM    DATA     BYTE      S4CON
      000000ACH   SFRSYM    DATA     BYTE      S3CON
      0000009AH   SFRSYM    DATA     BYTE      S2CON
      000000B7H   SFRSYM    DATA     BYTE      IPH
      000000CDH   SFRSYM    DATA     BYTE      SPSTAT
      000000DDH   SFRSYM    DATA     BYTE      T4T3M
      000000C1H   SFRSYM    DATA     BYTE      WDT_CONTR
      000000DFH   SFRSYM    DATA     BYTE      IP3
      000000F4H   SFRSYM    DATA     BYTE      USBCON
      000000B5H   SFRSYM    DATA     BYTE      IP2
      000000FFH   SFRSYM    DATA     BYTE      RSTCFG
      000000C7H   SFRSYM    DATA     BYTE      IAP_CONTR
L251 LINKER/LOCATER V4.66.93.0                                                        01/25/2026  01:33:53  PAGE 112


      000000F9H   SFRSYM    DATA     BYTE      LINICR
      0000008EH   SFRSYM    DATA     BYTE      AUXR
      000000AFH   SFRSYM    DATA     BYTE      IE2
      00000088H   SFRSYM    DATA     BYTE      TCON
      00000089H   SFRSYM    DATA     BYTE      TMOD
      00000098H   SFRSYM    DATA     BYTE      SCON
      000000F1H   SFRSYM    DATA     BYTE      CANICR
      00000087H   SFRSYM    DATA     BYTE      PCON
      000000BCH   SFRSYM    DATA     BYTE      ADC_CONTR
      000000E7H   SFRSYM    DATA     BYTE      CMPCR2
      000000E6H   SFRSYM    DATA     BYTE      CMPCR1
      000000DEH   SFRSYM    DATA     BYTE      ADCCFG
      000000B8H   SFRSYM    DATA     BYTE      IP
      0000008FH   SFRSYM    DATA     BYTE      INTCLKO
      000000EEH   SFRSYM    DATA     BYTE      IP3H
      000000B6H   SFRSYM    DATA     BYTE      IP2H
      000000A8H   SFRSYM    DATA     BYTE      IE
      000000BBH   SFRSYM    DATA     BYTE      P_SW3
      000000BAH   SFRSYM    DATA     BYTE      P_SW2
      000000A2H   SFRSYM    DATA     BYTE      P_SW1
      000000CEH   SFRSYM    DATA     BYTE      SPCTL
      000000F8H   SFRSYM    DATA     BYTE      P7
      000000E8H   SFRSYM    DATA     BYTE      P6
      000000C8H   SFRSYM    DATA     BYTE      P5
      000000C0H   SFRSYM    DATA     BYTE      P4
      000000B0H   SFRSYM    DATA     BYTE      P3
      000000A0H   SFRSYM    DATA     BYTE      P2
      00000090H   SFRSYM    DATA     BYTE      P1
      00000080H   SFRSYM    DATA     BYTE      P0

      00FF613CH   BLOCK     CODE     ---       LVL=0
      00FF613EH   BLOCK     CODE     NEAR LAB  LVL=1
      DR24        REGSYM    ---      FLOAT     temp
      DR28        REGSYM    ---      FLOAT     range
      R15         REGSYM    ---      BYTE      i
      ---         BLOCKEND  ---      ---       LVL=1
      00FF613CH   LINE      CODE     ---       #15
      00FF613EH   LINE      CODE     ---       #16
      00FF613EH   LINE      CODE     ---       #21
      00FF6140H   LINE      CODE     ---       #24
      00FF616BH   LINE      CODE     ---       #25
      00FF6178H   LINE      CODE     ---       #26
      00FF617AH   LINE      CODE     ---       #29
      00FF6194H   LINE      CODE     ---       #30
      00FF61A8H   LINE      CODE     ---       #33
      00FF61B1H   LINE      CODE     ---       #34
      00FF61B5H   LINE      CODE     ---       #35
      00FF61BEH   LINE      CODE     ---       #36
      00FF61C0H   LINE      CODE     ---       #38
      00FF61D9H   LINE      CODE     ---       #39
      00FF61E3H   LINE      CODE     ---       #40
      ---         BLOCKEND  ---      ---       LVL=0

      ---         MODULE    ---      ---       control
      00FF57D5H   PUBLIC    CODE     ---       SDSD_calculate
      00FF73FEH   PUBLIC    CODE     ---       SDSD_init
      00010909H   PUBLIC    XDATA    ---       SDSD
      00010915H   PUBLIC    XDATA    FLOAT     res
      00010919H   PUBLIC    XDATA    LONG      sub
      0001091DH   PUBLIC    XDATA    LONG      sum
      00010633H   PUBLIC    XDATA    BYTE      ?SDSD_init?BYTE
      000000D0H   SFRSYM    DATA     BYTE      PSW
      0000009DH   SFRSYM    DATA     BYTE      IRCBAND
      00000097H   SFRSYM    DATA     BYTE      AUXR2
      000000EFH   SFRSYM    DATA     BYTE      AUXINTIF
L251 LINKER/LOCATER V4.66.93.0                                                        01/25/2026  01:33:53  PAGE 113


      000000FDH   SFRSYM    DATA     BYTE      S4CON
      000000ACH   SFRSYM    DATA     BYTE      S3CON
      0000009AH   SFRSYM    DATA     BYTE      S2CON
      000000B7H   SFRSYM    DATA     BYTE      IPH
      000000CDH   SFRSYM    DATA     BYTE      SPSTAT
      000000DDH   SFRSYM    DATA     BYTE      T4T3M
      000000C1H   SFRSYM    DATA     BYTE      WDT_CONTR
      000000DFH   SFRSYM    DATA     BYTE      IP3
      000000F4H   SFRSYM    DATA     BYTE      USBCON
      000000B5H   SFRSYM    DATA     BYTE      IP2
      000000FFH   SFRSYM    DATA     BYTE      RSTCFG
      000000C7H   SFRSYM    DATA     BYTE      IAP_CONTR
      000000F9H   SFRSYM    DATA     BYTE      LINICR
      0000008EH   SFRSYM    DATA     BYTE      AUXR
      000000AFH   SFRSYM    DATA     BYTE      IE2
      00000088H   SFRSYM    DATA     BYTE      TCON
      00000089H   SFRSYM    DATA     BYTE      TMOD
      00000098H   SFRSYM    DATA     BYTE      SCON
      000000F1H   SFRSYM    DATA     BYTE      CANICR
      00000087H   SFRSYM    DATA     BYTE      PCON
      000000BCH   SFRSYM    DATA     BYTE      ADC_CONTR
      000000E7H   SFRSYM    DATA     BYTE      CMPCR2
      000000E6H   SFRSYM    DATA     BYTE      CMPCR1
      000000DEH   SFRSYM    DATA     BYTE      ADCCFG
      000000B8H   SFRSYM    DATA     BYTE      IP
      0000008FH   SFRSYM    DATA     BYTE      INTCLKO
      000000EEH   SFRSYM    DATA     BYTE      IP3H
      000000B6H   SFRSYM    DATA     BYTE      IP2H
      000000A8H   SFRSYM    DATA     BYTE      IE
      000000BBH   SFRSYM    DATA     BYTE      P_SW3
      000000BAH   SFRSYM    DATA     BYTE      P_SW2
      000000A2H   SFRSYM    DATA     BYTE      P_SW1
      000000CEH   SFRSYM    DATA     BYTE      SPCTL
      000000F8H   SFRSYM    DATA     BYTE      P7
      000000E8H   SFRSYM    DATA     BYTE      P6
      000000C8H   SFRSYM    DATA     BYTE      P5
      000000C0H   SFRSYM    DATA     BYTE      P4
      000000B0H   SFRSYM    DATA     BYTE      P3
      000000A0H   SFRSYM    DATA     BYTE      P2
      00000090H   SFRSYM    DATA     BYTE      P1
      00000080H   SFRSYM    DATA     BYTE      P0

      00FF73FEH   BLOCK     CODE     ---       LVL=0
      REG=2       REGSYM    ---      ---       SDSD
      DR4         REGSYM    ---      FLOAT     A
      0001063BH   SYMBOL    XDATA    FLOAT     B
      0001063FH   SYMBOL    XDATA    FLOAT     C
      00FF73FEH   LINE      CODE     ---       #18
      00FF7400H   LINE      CODE     ---       #20
      00FF7407H   LINE      CODE     ---       #21
      00FF7419H   LINE      CODE     ---       #22
      00FF742BH   LINE      CODE     ---       #23
      ---         BLOCKEND  ---      ---       LVL=0

      00FF57D5H   BLOCK     CODE     ---       LVL=0
      REG=6       REGSYM    ---      ---       SDSD
      00FF57D5H   LINE      CODE     ---       #36
      00FF57D9H   LINE      CODE     ---       #45
      00FF5839H   LINE      CODE     ---       #51
      00FF587EH   LINE      CODE     ---       #55
      00FF589AH   LINE      CODE     ---       #58
      00FF58B3H   LINE      CODE     ---       #59
      00FF58B5H   LINE      CODE     ---       #60
      00FF58C4H   LINE      CODE     ---       #61
      00FF58CEH   LINE      CODE     ---       #63
L251 LINKER/LOCATER V4.66.93.0                                                        01/25/2026  01:33:53  PAGE 114


      00FF58D8H   LINE      CODE     ---       #64
      ---         BLOCKEND  ---      ---       LVL=0

      ---         MODULE    ---      ---       IMU
      00FF4C02H   PUBLIC    CODE     ---       imu_update
      00FF7107H   PUBLIC    CODE     ---       angle_normalize
      00FF71F6H   PUBLIC    CODE     ---       imu_init
      00FF64A4H   PUBLIC    CODE     ---       imu_get_data
      000107D3H   PUBLIC    XDATA    ---       ahrs
      000107F0H   PUBLIC    XDATA    ---       imu
      000000D0H   SFRSYM    DATA     BYTE      PSW
      0000009DH   SFRSYM    DATA     BYTE      IRCBAND
      00000097H   SFRSYM    DATA     BYTE      AUXR2
      000000EFH   SFRSYM    DATA     BYTE      AUXINTIF
      000000FDH   SFRSYM    DATA     BYTE      S4CON
      000000ACH   SFRSYM    DATA     BYTE      S3CON
      0000009AH   SFRSYM    DATA     BYTE      S2CON
      000000B7H   SFRSYM    DATA     BYTE      IPH
      000000CDH   SFRSYM    DATA     BYTE      SPSTAT
      000000DDH   SFRSYM    DATA     BYTE      T4T3M
      000000C1H   SFRSYM    DATA     BYTE      WDT_CONTR
      000000DFH   SFRSYM    DATA     BYTE      IP3
      000000F4H   SFRSYM    DATA     BYTE      USBCON
      000000B5H   SFRSYM    DATA     BYTE      IP2
      000000FFH   SFRSYM    DATA     BYTE      RSTCFG
      000000C7H   SFRSYM    DATA     BYTE      IAP_CONTR
      000000F9H   SFRSYM    DATA     BYTE      LINICR
      0000008EH   SFRSYM    DATA     BYTE      AUXR
      000000AFH   SFRSYM    DATA     BYTE      IE2
      00000088H   SFRSYM    DATA     BYTE      TCON
      00000089H   SFRSYM    DATA     BYTE      TMOD
      00000098H   SFRSYM    DATA     BYTE      SCON
      000000F1H   SFRSYM    DATA     BYTE      CANICR
      00000087H   SFRSYM    DATA     BYTE      PCON
      000000BCH   SFRSYM    DATA     BYTE      ADC_CONTR
      000000E7H   SFRSYM    DATA     BYTE      CMPCR2
      000000E6H   SFRSYM    DATA     BYTE      CMPCR1
      000000DEH   SFRSYM    DATA     BYTE      ADCCFG
      000000B8H   SFRSYM    DATA     BYTE      IP
      0000008FH   SFRSYM    DATA     BYTE      INTCLKO
      000000EEH   SFRSYM    DATA     BYTE      IP3H
      000000B6H   SFRSYM    DATA     BYTE      IP2H
      000000A8H   SFRSYM    DATA     BYTE      IE
      000000BBH   SFRSYM    DATA     BYTE      P_SW3
      000000BAH   SFRSYM    DATA     BYTE      P_SW2
      000000A2H   SFRSYM    DATA     BYTE      P_SW1
      000000CEH   SFRSYM    DATA     BYTE      SPCTL
      000000F8H   SFRSYM    DATA     BYTE      P7
      000000E8H   SFRSYM    DATA     BYTE      P6
      000000C8H   SFRSYM    DATA     BYTE      P5
      000000C0H   SFRSYM    DATA     BYTE      P4
      000000B0H   SFRSYM    DATA     BYTE      P3
      000000A0H   SFRSYM    DATA     BYTE      P2
      00000090H   SFRSYM    DATA     BYTE      P1
      00000080H   SFRSYM    DATA     BYTE      P0

      00FF7107H   BLOCK     CODE     ---       LVL=0
      DR28        REGSYM    ---      FLOAT     angle
      00FF7107H   LINE      CODE     ---       #14
      00FF7109H   LINE      CODE     ---       #16
      00FF7125H   LINE      CODE     ---       #18
      00FF7141H   LINE      CODE     ---       #20
      00FF7143H   LINE      CODE     ---       #21
      ---         BLOCKEND  ---      ---       LVL=0

L251 LINKER/LOCATER V4.66.93.0                                                        01/25/2026  01:33:53  PAGE 115


      00FF71F6H   BLOCK     CODE     ---       LVL=0
      00FF71F8H   BLOCK     CODE     NEAR LAB  LVL=1
      R15         REGSYM    ---      BYTE      result
      ---         BLOCKEND  ---      ---       LVL=1
      00FF71F6H   LINE      CODE     ---       #30
      00FF71F8H   LINE      CODE     ---       #31
      00FF71F8H   LINE      CODE     ---       #35
      00FF71FDH   LINE      CODE     ---       #37
      00FF7201H   LINE      CODE     ---       #40
      00FF7208H   LINE      CODE     ---       #43
      00FF7213H   LINE      CODE     ---       #46
      00FF7216H   LINE      CODE     ---       #50
      00FF721EH   LINE      CODE     ---       #51
      00FF7220H   LINE      CODE     ---       #54
      00FF722BH   LINE      CODE     ---       #55
      00FF722BH   LINE      CODE     ---       #57
      00FF722DH   LINE      CODE     ---       #58
      ---         BLOCKEND  ---      ---       LVL=0

      00FF64A4H   BLOCK     CODE     ---       LVL=0
      00FF64A4H   LINE      CODE     ---       #67
      00FF64A4H   LINE      CODE     ---       #70
      00FF64A7H   LINE      CODE     ---       #71
      00FF64AAH   LINE      CODE     ---       #74
      00FF64BDH   LINE      CODE     ---       #75
      00FF64D0H   LINE      CODE     ---       #76
      00FF64E3H   LINE      CODE     ---       #78
      00FF64F6H   LINE      CODE     ---       #79
      00FF6509H   LINE      CODE     ---       #80
      00FF651CH   LINE      CODE     ---       #81
      ---         BLOCKEND  ---      ---       LVL=0

      00FF4C02H   BLOCK     CODE     ---       LVL=0
      00FF4C04H   BLOCK     CODE     NEAR LAB  LVL=1
      DR16        REGSYM    ---      FLOAT     ax
      DR20        REGSYM    ---      FLOAT     ay
      DR24        REGSYM    ---      FLOAT     az
      DR28        REGSYM    ---      FLOAT     gx
      DR12        REGSYM    ---      FLOAT     gy
      DR4         REGSYM    ---      FLOAT     gz
      DR28        REGSYM    ---      FLOAT     norm
      ---         BLOCKEND  ---      ---       LVL=1
      00FF4C02H   LINE      CODE     ---       #91
      00FF4C04H   LINE      CODE     ---       #92
      00FF4C04H   LINE      CODE     ---       #98
      00FF4C07H   LINE      CODE     ---       #101
      00FF4C5FH   LINE      CODE     ---       #102
      00FF4C70H   LINE      CODE     ---       #103
      00FF4C81H   LINE      CODE     ---       #104
      00FF4C92H   LINE      CODE     ---       #107
      00FF4CABH   LINE      CODE     ---       #108
      00FF4CBCH   LINE      CODE     ---       #109
      00FF4CD1H   LINE      CODE     ---       #112
      00FF4D22H   LINE      CODE     ---       #115
      00FF4D36H   LINE      CODE     ---       #116
      00FF4D4AH   LINE      CODE     ---       #117
      00FF4D5EH   LINE      CODE     ---       #118
      00FF4D72H   LINE      CODE     ---       #121
      00FF4D85H   LINE      CODE     ---       #124
      00FF4D9CH   LINE      CODE     ---       #125
      00FF4DB3H   LINE      CODE     ---       #126
      00FF4DCAH   LINE      CODE     ---       #127
      ---         BLOCKEND  ---      ---       LVL=0

      ---         MODULE    ---      ---       task
L251 LINKER/LOCATER V4.66.93.0                                                        01/25/2026  01:33:53  PAGE 116


      00FF75FFH   PUBLIC    CODE     ---       position_error_calc
      00FF73CEH   PUBLIC    CODE     ---       sdsd_control_with_sensor_check
      00FF0019H   PUBLIC    CODE     ---       get_control_mode
      00FF6B08H   PUBLIC    CODE     ---       motor_control_task
      00FF72A1H   PUBLIC    CODE     ---       pd_control_with_sensor_check
      00FF005EH   PUBLIC    CODE     ---       imu_update_task
      00FF008EH   PUBLIC    CODE     ---       pid_only_control
      00FF730AH   PUBLIC    CODE     ---       get_mode_name
      00FF6DA7H   PUBLIC    CODE     ---       sensor_check_valid
      000000D0H   SFRSYM    DATA     BYTE      PSW
      0000009DH   SFRSYM    DATA     BYTE      IRCBAND
      00000097H   SFRSYM    DATA     BYTE      AUXR2
      000000EFH   SFRSYM    DATA     BYTE      AUXINTIF
      000000FDH   SFRSYM    DATA     BYTE      S4CON
      000000ACH   SFRSYM    DATA     BYTE      S3CON
      0000009AH   SFRSYM    DATA     BYTE      S2CON
      000000B7H   SFRSYM    DATA     BYTE      IPH
      000000CDH   SFRSYM    DATA     BYTE      SPSTAT
      000000DDH   SFRSYM    DATA     BYTE      T4T3M
      000000C1H   SFRSYM    DATA     BYTE      WDT_CONTR
      000000DFH   SFRSYM    DATA     BYTE      IP3
      000000F4H   SFRSYM    DATA     BYTE      USBCON
      000000B5H   SFRSYM    DATA     BYTE      IP2
      000000FFH   SFRSYM    DATA     BYTE      RSTCFG
      000000C7H   SFRSYM    DATA     BYTE      IAP_CONTR
      000000F9H   SFRSYM    DATA     BYTE      LINICR
      0000008EH   SFRSYM    DATA     BYTE      AUXR
      000000AFH   SFRSYM    DATA     BYTE      IE2
      00000088H   SFRSYM    DATA     BYTE      TCON
      00000089H   SFRSYM    DATA     BYTE      TMOD
      00000098H   SFRSYM    DATA     BYTE      SCON
      000000F1H   SFRSYM    DATA     BYTE      CANICR
      00000087H   SFRSYM    DATA     BYTE      PCON
      000000BCH   SFRSYM    DATA     BYTE      ADC_CONTR
      000000E7H   SFRSYM    DATA     BYTE      CMPCR2
      000000E6H   SFRSYM    DATA     BYTE      CMPCR1
      000000DEH   SFRSYM    DATA     BYTE      ADCCFG
      000000B8H   SFRSYM    DATA     BYTE      IP
      0000008FH   SFRSYM    DATA     BYTE      INTCLKO
      000000EEH   SFRSYM    DATA     BYTE      IP3H
      000000B6H   SFRSYM    DATA     BYTE      IP2H
      000000A8H   SFRSYM    DATA     BYTE      IE
      000000BBH   SFRSYM    DATA     BYTE      P_SW3
      000000BAH   SFRSYM    DATA     BYTE      P_SW2
      000000A2H   SFRSYM    DATA     BYTE      P_SW1
      000000CEH   SFRSYM    DATA     BYTE      SPCTL
      000000F8H   SFRSYM    DATA     BYTE      P7
      000000E8H   SFRSYM    DATA     BYTE      P6
      000000C8H   SFRSYM    DATA     BYTE      P5
      000000C0H   SFRSYM    DATA     BYTE      P4
      000000B0H   SFRSYM    DATA     BYTE      P3
      000000A0H   SFRSYM    DATA     BYTE      P2
      00000090H   SFRSYM    DATA     BYTE      P1
      00000080H   SFRSYM    DATA     BYTE      P0
      000109F0H   SYMBOL    XDATA    BYTE      current_control_mode

      00FF6DA7H   BLOCK     CODE     ---       LVL=0
      R10         REGSYM    ---      BYTE      sensor_valid
      00FF6DA7H   LINE      CODE     ---       #15
      00FF6DA7H   LINE      CODE     ---       #16
      00FF6DA7H   LINE      CODE     ---       #19
      00FF6DAAH   LINE      CODE     ---       #22
      00FF6DCEH   LINE      CODE     ---       #26
      00FF6DD0H   LINE      CODE     ---       #27
      00FF6DD0H   LINE      CODE     ---       #30
L251 LINKER/LOCATER V4.66.93.0                                                        01/25/2026  01:33:53  PAGE 117


      00FF6DEEH   LINE      CODE     ---       #34
      00FF6DF0H   LINE      CODE     ---       #35
      00FF6DF0H   LINE      CODE     ---       #37
      00FF6DF2H   LINE      CODE     ---       #38
      ---         BLOCKEND  ---      ---       LVL=0

      00FF75FFH   BLOCK     CODE     ---       LVL=0
      DR4         REGSYM    ---      FLOAT     error
      00FF75FFH   LINE      CODE     ---       #49
      00FF75FFH   LINE      CODE     ---       #50
      00FF75FFH   LINE      CODE     ---       #53
      00FF7612H   LINE      CODE     ---       #55
      00FF7612H   LINE      CODE     ---       #56
      ---         BLOCKEND  ---      ---       LVL=0

      00FF008EH   BLOCK     CODE     ---       LVL=0
      00FF008EH   LINE      CODE     ---       #66
      00FF008EH   LINE      CODE     ---       #69
      00FF0090H   LINE      CODE     ---       #70
      ---         BLOCKEND  ---      ---       LVL=0

      00FF73CEH   BLOCK     CODE     ---       LVL=0
      00FF73D0H   BLOCK     CODE     NEAR LAB  LVL=1
      R11         REGSYM    ---      BYTE      sensor_valid
      DR4         REGSYM    ---      FLOAT     input_SDSD
      DR12        REGSYM    ---      FLOAT     output_SDSD
      ---         BLOCKEND  ---      ---       LVL=1
      00FF73CEH   LINE      CODE     ---       #80
      00FF73D0H   LINE      CODE     ---       #81
      00FF73D0H   LINE      CODE     ---       #87
      00FF73D3H   LINE      CODE     ---       #89
      00FF73D5H   LINE      CODE     ---       #92
      00FF73E0H   LINE      CODE     ---       #93
      00FF73EDH   LINE      CODE     ---       #94
      00FF73EFH   LINE      CODE     ---       #98
      00FF73F9H   LINE      CODE     ---       #99
      00FF73F9H   LINE      CODE     ---       #101
      00FF73FBH   LINE      CODE     ---       #102
      ---         BLOCKEND  ---      ---       LVL=0

      00FF72A1H   BLOCK     CODE     ---       LVL=0
      00FF72A3H   BLOCK     CODE     NEAR LAB  LVL=1
      0001063BH   SYMBOL    XDATA    BYTE      sensor_valid
      DR4         REGSYM    ---      FLOAT     position_error
      DR12        REGSYM    ---      FLOAT     correction
      ---         BLOCKEND  ---      ---       LVL=1
      00FF72A1H   LINE      CODE     ---       #112
      00FF72A3H   LINE      CODE     ---       #113
      00FF72A3H   LINE      CODE     ---       #119
      00FF72AAH   LINE      CODE     ---       #122
      00FF72ADH   LINE      CODE     ---       #125
      00FF72B3H   LINE      CODE     ---       #128
      00FF72B8H   LINE      CODE     ---       #129
      00FF72BAH   LINE      CODE     ---       #133
      00FF72D2H   LINE      CODE     ---       #134
      00FF72D2H   LINE      CODE     ---       #136
      00FF72D4H   LINE      CODE     ---       #137
      ---         BLOCKEND  ---      ---       LVL=0

      00FF0019H   BLOCK     CODE     ---       LVL=0
      00FF0019H   LINE      CODE     ---       #146
      00FF0019H   LINE      CODE     ---       #149
      00FF001AH   LINE      CODE     ---       #153
      ---         BLOCKEND  ---      ---       LVL=0

L251 LINKER/LOCATER V4.66.93.0                                                        01/25/2026  01:33:53  PAGE 118


      00FF730AH   BLOCK     CODE     ---       LVL=0
      R7          REGSYM    ---      BYTE      mode
      00FF730AH   LINE      CODE     ---       #162
      00FF730CH   LINE      CODE     ---       #164
      00FF7318H   LINE      CODE     ---       #166
      00FF7318H   LINE      CODE     ---       #167
      00FF7321H   LINE      CODE     ---       #168
      00FF7321H   LINE      CODE     ---       #169
      00FF732AH   LINE      CODE     ---       #170
      00FF732AH   LINE      CODE     ---       #171
      00FF7333H   LINE      CODE     ---       #172
      00FF7333H   LINE      CODE     ---       #173
      00FF733BH   LINE      CODE     ---       #174
      00FF733BH   LINE      CODE     ---       #175
      ---         BLOCKEND  ---      ---       LVL=0

      00FF6B08H   BLOCK     CODE     ---       LVL=0
      00FF6B0AH   BLOCK     CODE     NEAR LAB  LVL=1
      DR12        REGSYM    ---      FLOAT     correction
      R11         REGSYM    ---      BYTE      mode
      ---         BLOCKEND  ---      ---       LVL=1
      00FF6B08H   LINE      CODE     ---       #186
      00FF6B0AH   LINE      CODE     ---       #187
      00FF6B0AH   LINE      CODE     ---       #192
      00FF6B0DH   LINE      CODE     ---       #195
      00FF6B10H   LINE      CODE     ---       #198
      00FF6B1AH   LINE      CODE     ---       #200
      00FF6B1AH   LINE      CODE     ---       #202
      00FF6B1AH   LINE      CODE     ---       #203
      00FF6B1CH   LINE      CODE     ---       #205
      00FF6B1CH   LINE      CODE     ---       #207
      00FF6B21H   LINE      CODE     ---       #208
      00FF6B23H   LINE      CODE     ---       #210
      00FF6B23H   LINE      CODE     ---       #212
      00FF6B28H   LINE      CODE     ---       #213
      00FF6B2AH   LINE      CODE     ---       #215
      00FF6B2AH   LINE      CODE     ---       #217
      00FF6B2FH   LINE      CODE     ---       #218
      00FF6B2FH   LINE      CODE     ---       #219
      00FF6B2FH   LINE      CODE     ---       #222
      00FF6B5EH   LINE      CODE     ---       #223
      ---         BLOCKEND  ---      ---       LVL=0

      00FF005EH   BLOCK     CODE     ---       LVL=0
      00FF005EH   LINE      CODE     ---       #233
      00FF005EH   LINE      CODE     ---       #235
      ---         BLOCKEND  ---      ---       LVL=0

      ---         MODULE    ---      ---       quaternion
      00FF6F0EH   PUBLIC    CODE     ---       my_sqrt
      00FF5AD5H   PUBLIC    CODE     ---       my_atan2
      00FF3661H   PUBLIC    CODE     ---       Mahony_Update
      00FF75B8H   PUBLIC    CODE     ---       Fast_InvSqrt
      00FF4A29H   PUBLIC    CODE     ---       Quaternion_ToEuler
      00FF6E3CH   PUBLIC    CODE     ---       Mahony_Init
      00FF6B61H   PUBLIC    CODE     ---       Mahony_GetEuler
      00FF00A6H   PUBLIC    CODE     ---       my_asin
      00010637H   PUBLIC    XDATA    BYTE      ?Mahony_Update?BYTE
      000000D0H   SFRSYM    DATA     BYTE      PSW
      0000009DH   SFRSYM    DATA     BYTE      IRCBAND
      00000097H   SFRSYM    DATA     BYTE      AUXR2
      000000EFH   SFRSYM    DATA     BYTE      AUXINTIF
      000000FDH   SFRSYM    DATA     BYTE      S4CON
      000000ACH   SFRSYM    DATA     BYTE      S3CON
      0000009AH   SFRSYM    DATA     BYTE      S2CON
L251 LINKER/LOCATER V4.66.93.0                                                        01/25/2026  01:33:53  PAGE 119


      000000B7H   SFRSYM    DATA     BYTE      IPH
      000000CDH   SFRSYM    DATA     BYTE      SPSTAT
      000000DDH   SFRSYM    DATA     BYTE      T4T3M
      000000C1H   SFRSYM    DATA     BYTE      WDT_CONTR
      000000DFH   SFRSYM    DATA     BYTE      IP3
      000000F4H   SFRSYM    DATA     BYTE      USBCON
      000000B5H   SFRSYM    DATA     BYTE      IP2
      000000FFH   SFRSYM    DATA     BYTE      RSTCFG
      000000C7H   SFRSYM    DATA     BYTE      IAP_CONTR
      000000F9H   SFRSYM    DATA     BYTE      LINICR
      0000008EH   SFRSYM    DATA     BYTE      AUXR
      000000AFH   SFRSYM    DATA     BYTE      IE2
      00000088H   SFRSYM    DATA     BYTE      TCON
      00000089H   SFRSYM    DATA     BYTE      TMOD
      00000098H   SFRSYM    DATA     BYTE      SCON
      000000F1H   SFRSYM    DATA     BYTE      CANICR
      00000087H   SFRSYM    DATA     BYTE      PCON
      000000BCH   SFRSYM    DATA     BYTE      ADC_CONTR
      000000E7H   SFRSYM    DATA     BYTE      CMPCR2
      000000E6H   SFRSYM    DATA     BYTE      CMPCR1
      000000DEH   SFRSYM    DATA     BYTE      ADCCFG
      000000B8H   SFRSYM    DATA     BYTE      IP
      0000008FH   SFRSYM    DATA     BYTE      INTCLKO
      000000EEH   SFRSYM    DATA     BYTE      IP3H
      000000B6H   SFRSYM    DATA     BYTE      IP2H
      000000A8H   SFRSYM    DATA     BYTE      IE
      000000BBH   SFRSYM    DATA     BYTE      P_SW3
      000000BAH   SFRSYM    DATA     BYTE      P_SW2
      000000A2H   SFRSYM    DATA     BYTE      P_SW1
      000000CEH   SFRSYM    DATA     BYTE      SPCTL
      000000F8H   SFRSYM    DATA     BYTE      P7
      000000E8H   SFRSYM    DATA     BYTE      P6
      000000C8H   SFRSYM    DATA     BYTE      P5
      000000C0H   SFRSYM    DATA     BYTE      P4
      000000B0H   SFRSYM    DATA     BYTE      P3
      000000A0H   SFRSYM    DATA     BYTE      P2
      00000090H   SFRSYM    DATA     BYTE      P1
      00000080H   SFRSYM    DATA     BYTE      P0

      00FF6F0EH   BLOCK     CODE     ---       LVL=0
      DR28        REGSYM    ---      FLOAT     x
      00FF6F12H   BLOCK     CODE     NEAR LAB  LVL=1
      DR24        REGSYM    ---      FLOAT     guess
      R15         REGSYM    ---      BYTE      i
      ---         BLOCKEND  ---      ---       LVL=1
      00FF6F0EH   LINE      CODE     ---       #3
      00FF6F12H   LINE      CODE     ---       #5
      00FF6F12H   LINE      CODE     ---       #10
      00FF6F14H   LINE      CODE     ---       #11
      00FF6F14H   LINE      CODE     ---       #13
      00FF6F17H   LINE      CODE     ---       #15
      00FF6F2EH   LINE      CODE     ---       #16
      00FF6F49H   LINE      CODE     ---       #18
      00FF6F49H   LINE      CODE     ---       #19
      00FF6F4DH   LINE      CODE     ---       #22
      00FF6F4FH   LINE      CODE     ---       #23
      ---         BLOCKEND  ---      ---       LVL=0

      00FF00A6H   BLOCK     CODE     ---       LVL=0
      DR28        REGSYM    ---      FLOAT     x
      00FF00AAH   BLOCK     CODE     NEAR LAB  LVL=1
      DR16        REGSYM    ---      FLOAT     neg
      DR20        REGSYM    ---      FLOAT     result
      DR24        REGSYM    ---      FLOAT     temp
      ---         BLOCKEND  ---      ---       LVL=1
L251 LINKER/LOCATER V4.66.93.0                                                        01/25/2026  01:33:53  PAGE 120


      00FF00A6H   LINE      CODE     ---       #25
      00FF00AAH   LINE      CODE     ---       #27
      00FF00AAH   LINE      CODE     ---       #32
      00FF00ACH   LINE      CODE     ---       #34
      00FF00B9H   LINE      CODE     ---       #36
      00FF00BBH   LINE      CODE     ---       #37
      00FF00BBH   LINE      CODE     ---       #39
      00FF00CAH   LINE      CODE     ---       #41
      00FF00CCH   LINE      CODE     ---       #42
      00FF00CCH   LINE      CODE     ---       #44
      00FF00D5H   LINE      CODE     ---       #46
      00FF00DBH   LINE      CODE     ---       #47
      00FF00E2H   LINE      CODE     ---       #48
      00FF00E2H   LINE      CODE     ---       #50
      00FF00F1H   LINE      CODE     ---       #52
      00FF00FEH   LINE      CODE     ---       #53
      00FF0143H   LINE      CODE     ---       #54
      00FF0145H   LINE      CODE     ---       #57
      00FF014EH   LINE      CODE     ---       #58
      00FF0189H   LINE      CODE     ---       #59
      00FF0189H   LINE      CODE     ---       #61
      00FF018DH   LINE      CODE     ---       #63
      00FF0194H   LINE      CODE     ---       #64
      00FF0194H   LINE      CODE     ---       #66
      00FF0196H   LINE      CODE     ---       #67
      ---         BLOCKEND  ---      ---       LVL=0

      00FF5AD5H   BLOCK     CODE     ---       LVL=0
      DR24        REGSYM    ---      FLOAT     y
      DR28        REGSYM    ---      FLOAT     x
      00FF5ADBH   BLOCK     CODE     NEAR LAB  LVL=1
      0001065BH   SYMBOL    XDATA    FLOAT     abs_x
      DR12        REGSYM    ---      FLOAT     abs_y
      DR20        REGSYM    ---      FLOAT     angle
      DR16        REGSYM    ---      FLOAT     r
      ---         BLOCKEND  ---      ---       LVL=1
      00FF5AD5H   LINE      CODE     ---       #69
      00FF5ADBH   LINE      CODE     ---       #72
      00FF5ADBH   LINE      CODE     ---       #78
      00FF5AE7H   LINE      CODE     ---       #80
      00FF5AECH   LINE      CODE     ---       #81
      00FF5AECH   LINE      CODE     ---       #83
      00FF5AF5H   LINE      CODE     ---       #85
      00FF5AFFH   LINE      CODE     ---       #86
      00FF5B01H   LINE      CODE     ---       #89
      00FF5B10H   LINE      CODE     ---       #90
      00FF5B10H   LINE      CODE     ---       #92
      00FF5B19H   LINE      CODE     ---       #94
      00FF5B1BH   LINE      CODE     ---       #95
      00FF5B1DH   LINE      CODE     ---       #98
      00FF5B24H   LINE      CODE     ---       #99
      00FF5B24H   LINE      CODE     ---       #101
      00FF5B35H   LINE      CODE     ---       #103
      00FF5B46H   LINE      CODE     ---       #104
      00FF5B70H   LINE      CODE     ---       #105
      00FF5B72H   LINE      CODE     ---       #108
      00FF5B83H   LINE      CODE     ---       #109
      00FF5BA0H   LINE      CODE     ---       #110
      00FF5BA0H   LINE      CODE     ---       #112
      00FF5BA9H   LINE      CODE     ---       #114
      00FF5BB8H   LINE      CODE     ---       #115
      00FF5BB8H   LINE      CODE     ---       #117
      00FF5BC1H   LINE      CODE     ---       #119
      00FF5BC8H   LINE      CODE     ---       #120
      00FF5BC8H   LINE      CODE     ---       #122
L251 LINKER/LOCATER V4.66.93.0                                                        01/25/2026  01:33:53  PAGE 121


      00FF5BCAH   LINE      CODE     ---       #123
      ---         BLOCKEND  ---      ---       LVL=0

      00FF75B8H   BLOCK     CODE     ---       LVL=0
      DR28        REGSYM    ---      FLOAT     x
      00FF75B8H   LINE      CODE     ---       #125
      00FF75BAH   LINE      CODE     ---       #128
      00FF75C3H   LINE      CODE     ---       #130
      00FF75C6H   LINE      CODE     ---       #131
      00FF75C6H   LINE      CODE     ---       #132
      00FF75D6H   LINE      CODE     ---       #133
      ---         BLOCKEND  ---      ---       LVL=0

      00FF6E3CH   BLOCK     CODE     ---       LVL=0
      REG=7       REGSYM    ---      ---       ahrs
      00FF6E3CH   LINE      CODE     ---       #135
      00FF6E3EH   LINE      CODE     ---       #138
      00FF6E4BH   LINE      CODE     ---       #139
      00FF6E55H   LINE      CODE     ---       #140
      00FF6E5DH   LINE      CODE     ---       #141
      00FF6E65H   LINE      CODE     ---       #142
      00FF6E6DH   LINE      CODE     ---       #143
      00FF6E75H   LINE      CODE     ---       #144
      00FF6E7DH   LINE      CODE     ---       #145
      00FF6E83H   LINE      CODE     ---       #146
      ---         BLOCKEND  ---      ---       LVL=0

      00FF3661H   BLOCK     CODE     ---       LVL=0
      REG=3       REGSYM    ---      ---       ahrs
      0001063BH   SYMBOL    XDATA    FLOAT     gx
      0001063FH   SYMBOL    XDATA    FLOAT     gy
      00010643H   SYMBOL    XDATA    FLOAT     gz
      00010647H   SYMBOL    XDATA    FLOAT     ax
      0001064BH   SYMBOL    XDATA    FLOAT     ay
      0001064FH   SYMBOL    XDATA    FLOAT     az
      00010653H   SYMBOL    XDATA    FLOAT     dt
      00FF366FH   BLOCK     CODE     NEAR LAB  LVL=1
      00010657H   SYMBOL    XDATA    FLOAT     q0
      0001065BH   SYMBOL    XDATA    FLOAT     q1
      0001065FH   SYMBOL    XDATA    FLOAT     q2
      00010663H   SYMBOL    XDATA    FLOAT     q3
      00010667H   SYMBOL    XDATA    FLOAT     norm
      0001066BH   SYMBOL    XDATA    FLOAT     vx
      DR24        REGSYM    ---      FLOAT     vy
      DR28        REGSYM    ---      FLOAT     vz
      DR16        REGSYM    ---      FLOAT     ex
      DR20        REGSYM    ---      FLOAT     ey
      DR24        REGSYM    ---      FLOAT     ez
      0001066FH   SYMBOL    XDATA    FLOAT     q0_last
      00010673H   SYMBOL    XDATA    FLOAT     q1_last
      00010677H   SYMBOL    XDATA    FLOAT     q2_last
      0001067BH   SYMBOL    XDATA    FLOAT     q3_last
      ---         BLOCKEND  ---      ---       LVL=1
      00FF3661H   LINE      CODE     ---       #148
      00FF366FH   LINE      CODE     ---       #157
      00FF366FH   LINE      CODE     ---       #174
      00FF3680H   LINE      CODE     ---       #175
      00FF3692H   LINE      CODE     ---       #176
      00FF36A4H   LINE      CODE     ---       #177
      00FF36B6H   LINE      CODE     ---       #179
      00FF3700H   LINE      CODE     ---       #180
      00FF3719H   LINE      CODE     ---       #181
      00FF3732H   LINE      CODE     ---       #182
      00FF374BH   LINE      CODE     ---       #184
      00FF3799H   LINE      CODE     ---       #185
L251 LINKER/LOCATER V4.66.93.0                                                        01/25/2026  01:33:53  PAGE 122


      00FF37C1H   LINE      CODE     ---       #186
      00FF3816H   LINE      CODE     ---       #188
      00FF383DH   LINE      CODE     ---       #189
      00FF386CH   LINE      CODE     ---       #190
      00FF389BH   LINE      CODE     ---       #192
      00FF38CAH   LINE      CODE     ---       #193
      00FF38F1H   LINE      CODE     ---       #194
      00FF3918H   LINE      CODE     ---       #196
      00FF3949H   LINE      CODE     ---       #197
      00FF3972H   LINE      CODE     ---       #198
      00FF399BH   LINE      CODE     ---       #200
      00FF3A23H   LINE      CODE     ---       #201
      00FF3A8DH   LINE      CODE     ---       #202
      00FF3AF5H   LINE      CODE     ---       #203
      00FF3B61H   LINE      CODE     ---       #205
      00FF3BB9H   LINE      CODE     ---       #206
      00FF3BCFH   LINE      CODE     ---       #207
      00FF3BE6H   LINE      CODE     ---       #208
      00FF3BFDH   LINE      CODE     ---       #209
      00FF3C14H   LINE      CODE     ---       #210
      ---         BLOCKEND  ---      ---       LVL=0

      00FF4A29H   BLOCK     CODE     ---       LVL=0
      REG=2       REGSYM    ---      ---       quat
      REG=3       REGSYM    ---      ---       euler
      00FF4A2FH   BLOCK     CODE     NEAR LAB  LVL=1
      0001064BH   SYMBOL    XDATA    FLOAT     q0
      0001064FH   SYMBOL    XDATA    FLOAT     q1
      00010653H   SYMBOL    XDATA    FLOAT     q2
      00010657H   SYMBOL    XDATA    FLOAT     q3
      DR28        REGSYM    ---      FLOAT     pitch_arg
      ---         BLOCKEND  ---      ---       LVL=1
      00FF4A29H   LINE      CODE     ---       #212
      00FF4A2FH   LINE      CODE     ---       #215
      00FF4A2FH   LINE      CODE     ---       #222
      00FF4A40H   LINE      CODE     ---       #223
      00FF4A52H   LINE      CODE     ---       #224
      00FF4A64H   LINE      CODE     ---       #225
      00FF4A76H   LINE      CODE     ---       #227
      00FF4AD3H   LINE      CODE     ---       #229
      00FF4B13H   LINE      CODE     ---       #230
      00FF4B20H   LINE      CODE     ---       #232
      00FF4B22H   LINE      CODE     ---       #233
      00FF4B22H   LINE      CODE     ---       #234
      00FF4B31H   LINE      CODE     ---       #236
      00FF4B33H   LINE      CODE     ---       #237
      00FF4B33H   LINE      CODE     ---       #238
      00FF4B40H   LINE      CODE     ---       #240
      00FF4BBAH   LINE      CODE     ---       #242
      00FF4BD5H   LINE      CODE     ---       #243
      00FF4BEAH   LINE      CODE     ---       #244
      00FF4BFFH   LINE      CODE     ---       #245
      ---         BLOCKEND  ---      ---       LVL=0

      00FF6B61H   BLOCK     CODE     ---       LVL=0
      REG=2       REGSYM    ---      ---       ahrs
      REG=7       REGSYM    ---      ---       euler
      00FF6B65H   BLOCK     CODE     NEAR LAB  LVL=1
      0001063BH   SYMBOL    XDATA    ---       quat
      ---         BLOCKEND  ---      ---       LVL=1
      00FF6B61H   LINE      CODE     ---       #247
      00FF6B65H   LINE      CODE     ---       #250
      00FF6B65H   LINE      CODE     ---       #252
      00FF6B76H   LINE      CODE     ---       #253
      00FF6B88H   LINE      CODE     ---       #254
L251 LINKER/LOCATER V4.66.93.0                                                        01/25/2026  01:33:53  PAGE 123


      00FF6B9AH   LINE      CODE     ---       #255
      00FF6BACH   LINE      CODE     ---       #256
      ---         BLOCKEND  ---      ---       LVL=0

      ---         MODULE    ---      ---       isr
      00FF628AH   PUBLIC    CODE     ---       DMA_UART1_IRQHandler
      00FF651DH   PUBLIC    CODE     ---       DMA_UART2_IRQHandler
      00FF6596H   PUBLIC    CODE     ---       DMA_UART3_IRQHandler
      00FF660FH   PUBLIC    CODE     ---       DMA_UART4_IRQHandler
      00FF6FD1H   PUBLIC    CODE     ---       TM0_IRQHandler
      00FF700FH   PUBLIC    CODE     ---       TM1_IRQHandler
      00FF704DH   PUBLIC    CODE     ---       TM2_IRQHandler
      00FF708BH   PUBLIC    CODE     ---       TM3_IRQHandler
      00FF70C9H   PUBLIC    CODE     ---       TM4_IRQHandler
      000000D0H   SFRSYM    DATA     BYTE      PSW
      0000009DH   SFRSYM    DATA     BYTE      IRCBAND
      00000097H   SFRSYM    DATA     BYTE      AUXR2
      000000EFH   SFRSYM    DATA     BYTE      AUXINTIF
      000000FDH   SFRSYM    DATA     BYTE      S4CON
      000000ACH   SFRSYM    DATA     BYTE      S3CON
      0000009AH   SFRSYM    DATA     BYTE      S2CON
      000000B7H   SFRSYM    DATA     BYTE      IPH
      000000CDH   SFRSYM    DATA     BYTE      SPSTAT
      000000DDH   SFRSYM    DATA     BYTE      T4T3M
      000000C1H   SFRSYM    DATA     BYTE      WDT_CONTR
      000000DFH   SFRSYM    DATA     BYTE      IP3
      000000F4H   SFRSYM    DATA     BYTE      USBCON
      000000B5H   SFRSYM    DATA     BYTE      IP2
      000000FFH   SFRSYM    DATA     BYTE      RSTCFG
      000000C7H   SFRSYM    DATA     BYTE      IAP_CONTR
      000000F9H   SFRSYM    DATA     BYTE      LINICR
      0000008EH   SFRSYM    DATA     BYTE      AUXR
      000000AFH   SFRSYM    DATA     BYTE      IE2
      00000088H   SFRSYM    DATA     BYTE      TCON
      00000089H   SFRSYM    DATA     BYTE      TMOD
      00000098H   SFRSYM    DATA     BYTE      SCON
      000000F1H   SFRSYM    DATA     BYTE      CANICR
      00000087H   SFRSYM    DATA     BYTE      PCON
      000000BCH   SFRSYM    DATA     BYTE      ADC_CONTR
      000000E7H   SFRSYM    DATA     BYTE      CMPCR2
      000000E6H   SFRSYM    DATA     BYTE      CMPCR1
      000000DEH   SFRSYM    DATA     BYTE      ADCCFG
      000000B8H   SFRSYM    DATA     BYTE      IP
      0000008FH   SFRSYM    DATA     BYTE      INTCLKO
      000000EEH   SFRSYM    DATA     BYTE      IP3H
      000000B6H   SFRSYM    DATA     BYTE      IP2H
      000000A8H   SFRSYM    DATA     BYTE      IE
      000000BBH   SFRSYM    DATA     BYTE      P_SW3
      000000BAH   SFRSYM    DATA     BYTE      P_SW2
      000000A2H   SFRSYM    DATA     BYTE      P_SW1
      000000CEH   SFRSYM    DATA     BYTE      SPCTL
      000000F8H   SFRSYM    DATA     BYTE      P7
      000000E8H   SFRSYM    DATA     BYTE      P6
      000000C8H   SFRSYM    DATA     BYTE      P5
      000000C0H   SFRSYM    DATA     BYTE      P4
      000000B0H   SFRSYM    DATA     BYTE      P3
      000000A0H   SFRSYM    DATA     BYTE      P2
      00000090H   SFRSYM    DATA     BYTE      P1
      00000080H   SFRSYM    DATA     BYTE      P0

      00FF628AH   BLOCK     CODE     ---       LVL=0
      00FF629EH   BLOCK     CODE     NEAR LAB  LVL=1
      000109F1H   SYMBOL    XDATA    BYTE      dwon_count
      ---         BLOCKEND  ---      ---       LVL=1
      00FF628AH   LINE      CODE     ---       #38
L251 LINKER/LOCATER V4.66.93.0                                                        01/25/2026  01:33:53  PAGE 124


      00FF629EH   LINE      CODE     ---       #39
      00FF629EH   LINE      CODE     ---       #42
      00FF62ACH   LINE      CODE     ---       #44
      00FF62B4H   LINE      CODE     ---       #45
      00FF62B9H   LINE      CODE     ---       #48
      00FF62C4H   LINE      CODE     ---       #50
      00FF62D3H   LINE      CODE     ---       #52
      00FF62D6H   LINE      CODE     ---       #53
      00FF62D8H   LINE      CODE     ---       #57
      00FF62DDH   LINE      CODE     ---       #58
      00FF62DDH   LINE      CODE     ---       #60
      00FF62E7H   LINE      CODE     ---       #62
      00FF62F1H   LINE      CODE     ---       #63
      00FF62F1H   LINE      CODE     ---       #66
      00FF62FFH   LINE      CODE     ---       #68
      00FF6307H   LINE      CODE     ---       #69
      00FF630CH   LINE      CODE     ---       #73
      ---         BLOCKEND  ---      ---       LVL=0

      00FF651DH   BLOCK     CODE     ---       LVL=0
      00FF651DH   LINE      CODE     ---       #76
      00FF6531H   LINE      CODE     ---       #78
      00FF653FH   LINE      CODE     ---       #80
      00FF6547H   LINE      CODE     ---       #81
      00FF654EH   LINE      CODE     ---       #83
      00FF6558H   LINE      CODE     ---       #85
      00FF6564H   LINE      CODE     ---       #86
      00FF6564H   LINE      CODE     ---       #89
      00FF6572H   LINE      CODE     ---       #91
      00FF657AH   LINE      CODE     ---       #92
      00FF6581H   LINE      CODE     ---       #96
      ---         BLOCKEND  ---      ---       LVL=0

      00FF6596H   BLOCK     CODE     ---       LVL=0
      00FF6596H   LINE      CODE     ---       #99
      00FF65AAH   LINE      CODE     ---       #101
      00FF65B8H   LINE      CODE     ---       #103
      00FF65C0H   LINE      CODE     ---       #104
      00FF65C7H   LINE      CODE     ---       #106
      00FF65D1H   LINE      CODE     ---       #108
      00FF65DDH   LINE      CODE     ---       #109
      00FF65DDH   LINE      CODE     ---       #112
      00FF65EBH   LINE      CODE     ---       #114
      00FF65F3H   LINE      CODE     ---       #115
      00FF65FAH   LINE      CODE     ---       #119
      ---         BLOCKEND  ---      ---       LVL=0

      00FF660FH   BLOCK     CODE     ---       LVL=0
      00FF660FH   LINE      CODE     ---       #122
      00FF6623H   LINE      CODE     ---       #124
      00FF6631H   LINE      CODE     ---       #126
      00FF6639H   LINE      CODE     ---       #127
      00FF6640H   LINE      CODE     ---       #129
      00FF664AH   LINE      CODE     ---       #131
      00FF6656H   LINE      CODE     ---       #132
      00FF6656H   LINE      CODE     ---       #135
      00FF6664H   LINE      CODE     ---       #137
      00FF666CH   LINE      CODE     ---       #138
      00FF6673H   LINE      CODE     ---       #142
      ---         BLOCKEND  ---      ---       LVL=0

      00FF6FD1H   BLOCK     CODE     ---       LVL=0
      00FF6FD1H   LINE      CODE     ---       #145
      00FF6FE5H   LINE      CODE     ---       #147
      00FF6FE8H   LINE      CODE     ---       #149
L251 LINKER/LOCATER V4.66.93.0                                                        01/25/2026  01:33:53  PAGE 125


      00FF6FF2H   LINE      CODE     ---       #151
      00FF6FFAH   LINE      CODE     ---       #152
      ---         BLOCKEND  ---      ---       LVL=0

      00FF700FH   BLOCK     CODE     ---       LVL=0
      00FF700FH   LINE      CODE     ---       #155
      00FF7023H   LINE      CODE     ---       #157
      00FF7026H   LINE      CODE     ---       #159
      00FF7030H   LINE      CODE     ---       #161
      00FF7038H   LINE      CODE     ---       #162
      ---         BLOCKEND  ---      ---       LVL=0

      00FF704DH   BLOCK     CODE     ---       LVL=0
      00FF704DH   LINE      CODE     ---       #165
      00FF7061H   LINE      CODE     ---       #167
      00FF7064H   LINE      CODE     ---       #169
      00FF706EH   LINE      CODE     ---       #171
      00FF7076H   LINE      CODE     ---       #172
      ---         BLOCKEND  ---      ---       LVL=0

      00FF708BH   BLOCK     CODE     ---       LVL=0
      00FF708BH   LINE      CODE     ---       #175
      00FF709FH   LINE      CODE     ---       #177
      00FF70A2H   LINE      CODE     ---       #179
      00FF70ACH   LINE      CODE     ---       #181
      00FF70B4H   LINE      CODE     ---       #182
      ---         BLOCKEND  ---      ---       LVL=0

      00FF70C9H   BLOCK     CODE     ---       LVL=0
      00FF70C9H   LINE      CODE     ---       #185
      00FF70DDH   LINE      CODE     ---       #187
      00FF70E0H   LINE      CODE     ---       #189
      00FF70EAH   LINE      CODE     ---       #191
      00FF70F2H   LINE      CODE     ---       #192
      ---         BLOCKEND  ---      ---       LVL=0

      ---         MODULE    ---      ---       main
      00FF0096H   PUBLIC    CODE     ---       pit_handler_1
      00FF009EH   PUBLIC    CODE     ---       pit_handler_2
      00FF7573H   PUBLIC    CODE     ---       main
      00FF45A4H   PUBLIC    CODE     ---       _m
      000109A7H   PUBLIC    XDATA    FLOAT     right_target
      000109ABH   PUBLIC    XDATA    FLOAT     left_target
      000109AFH   PUBLIC    XDATA    BYTE      imu_state
      000000D0H   SFRSYM    DATA     BYTE      PSW
      0000009DH   SFRSYM    DATA     BYTE      IRCBAND
      00000097H   SFRSYM    DATA     BYTE      AUXR2
      000000EFH   SFRSYM    DATA     BYTE      AUXINTIF
      000000FDH   SFRSYM    DATA     BYTE      S4CON
      000000ACH   SFRSYM    DATA     BYTE      S3CON
      0000009AH   SFRSYM    DATA     BYTE      S2CON
      000000B7H   SFRSYM    DATA     BYTE      IPH
      000000CDH   SFRSYM    DATA     BYTE      SPSTAT
      000000DDH   SFRSYM    DATA     BYTE      T4T3M
      000000C1H   SFRSYM    DATA     BYTE      WDT_CONTR
      000000DFH   SFRSYM    DATA     BYTE      IP3
      000000F4H   SFRSYM    DATA     BYTE      USBCON
      000000B5H   SFRSYM    DATA     BYTE      IP2
      000000FFH   SFRSYM    DATA     BYTE      RSTCFG
      000000C7H   SFRSYM    DATA     BYTE      IAP_CONTR
      000000F9H   SFRSYM    DATA     BYTE      LINICR
      0000008EH   SFRSYM    DATA     BYTE      AUXR
      000000AFH   SFRSYM    DATA     BYTE      IE2
      00000088H   SFRSYM    DATA     BYTE      TCON
      00000089H   SFRSYM    DATA     BYTE      TMOD
L251 LINKER/LOCATER V4.66.93.0                                                        01/25/2026  01:33:53  PAGE 126


      00000098H   SFRSYM    DATA     BYTE      SCON
      000000F1H   SFRSYM    DATA     BYTE      CANICR
      00000087H   SFRSYM    DATA     BYTE      PCON
      000000BCH   SFRSYM    DATA     BYTE      ADC_CONTR
      000000E7H   SFRSYM    DATA     BYTE      CMPCR2
      000000E6H   SFRSYM    DATA     BYTE      CMPCR1
      000000DEH   SFRSYM    DATA     BYTE      ADCCFG
      000000B8H   SFRSYM    DATA     BYTE      IP
      0000008FH   SFRSYM    DATA     BYTE      INTCLKO
      000000EEH   SFRSYM    DATA     BYTE      IP3H
      000000B6H   SFRSYM    DATA     BYTE      IP2H
      000000A8H   SFRSYM    DATA     BYTE      IE
      000000BBH   SFRSYM    DATA     BYTE      P_SW3
      000000BAH   SFRSYM    DATA     BYTE      P_SW2
      000000A2H   SFRSYM    DATA     BYTE      P_SW1
      000000CEH   SFRSYM    DATA     BYTE      SPCTL
      000000F8H   SFRSYM    DATA     BYTE      P7
      000000E8H   SFRSYM    DATA     BYTE      P6
      000000C8H   SFRSYM    DATA     BYTE      P5
      000000C0H   SFRSYM    DATA     BYTE      P4
      000000B0H   SFRSYM    DATA     BYTE      P3
      000000A0H   SFRSYM    DATA     BYTE      P2
      00000090H   SFRSYM    DATA     BYTE      P1
      00000080H   SFRSYM    DATA     BYTE      P0

      00FF7573H   BLOCK     CODE     ---       LVL=0
      00FF7573H   LINE      CODE     ---       #55
      ---         BLOCKEND  ---      ---       LVL=0

      00FF45A4H   BLOCK     CODE     ---       LVL=0
      00FF45A4H   LINE      CODE     ---       #55
      00FF45A4H   LINE      CODE     ---       #57
      00FF45AFH   LINE      CODE     ---       #58
      00FF45B2H   LINE      CODE     ---       #60
      00FF45B5H   LINE      CODE     ---       #61
      00FF45B8H   LINE      CODE     ---       #62
      00FF45BBH   LINE      CODE     ---       #63
      00FF45BEH   LINE      CODE     ---       #66
      00FF45C5H   LINE      CODE     ---       #67
      00FF45C7H   LINE      CODE     ---       #69
      00FF45CFH   LINE      CODE     ---       #70
      00FF45D1H   LINE      CODE     ---       #73
      00FF45DCH   LINE      CODE     ---       #74
      00FF45DCH   LINE      CODE     ---       #79
      00FF4601H   LINE      CODE     ---       #80
      00FF462AH   LINE      CODE     ---       #81
      00FF4637H   LINE      CODE     ---       #84
      00FF466EH   LINE      CODE     ---       #85
      00FF469FH   LINE      CODE     ---       #89
      00FF46B0H   LINE      CODE     ---       #90
      00FF46C1H   LINE      CODE     ---       #94
      00FF4704H   LINE      CODE     ---       #97
      00FF470EH   LINE      CODE     ---       #98
      00FF4718H   LINE      CODE     ---       #100
      00FF473DH   LINE      CODE     ---       #101
      00FF4762H   LINE      CODE     ---       #103
      00FF4762H   LINE      CODE     ---       #108
      00FF4765H   LINE      CODE     ---       #109
      00FF4768H   LINE      CODE     ---       #112
      00FF47BFH   LINE      CODE     ---       #121
      00FF47E2H   LINE      CODE     ---       #124
      00FF4829H   LINE      CODE     ---       #128
      00FF4830H   LINE      CODE     ---       #129
      ---         BLOCKEND  ---      ---       LVL=0

L251 LINKER/LOCATER V4.66.93.0                                                        01/25/2026  01:33:53  PAGE 127


      00FF0096H   BLOCK     CODE     ---       LVL=0
      00FF0096H   LINE      CODE     ---       #138
      00FF0096H   LINE      CODE     ---       #142
      ---         BLOCKEND  ---      ---       LVL=0

      00FF009EH   BLOCK     CODE     ---       LVL=0
      00FF009EH   LINE      CODE     ---       #152
      00FF009EH   LINE      CODE     ---       #156
      ---         BLOCKEND  ---      ---       LVL=0

      ---         MODULE    ---      ---       ?C?FPADD
      00FF21D4H   PUBLIC    CODE     ---       ?C?FPADD
      00FF21D1H   PUBLIC    CODE     ---       ?C?FPSUB

      ---         MODULE    ---      ---       ?C?FPMUL
      00FF228CH   PUBLIC    CODE     ---       ?C?FPMUL

      ---         MODULE    ---      ---       ?C?FPDIV
      00FF232CH   PUBLIC    CODE     ---       ?C?FPDIV

      ---         MODULE    ---      ---       ?C?FPCMP
      00FF23AFH   PUBLIC    CODE     ---       ?C?FPCMP
      00FF23ADH   PUBLIC    CODE     ---       ?C?FPCMP3

      ---         MODULE    ---      ---       ?C?FPNEG
      00FF23F3H   PUBLIC    CODE     ---       ?C?FPNEG

      ---         MODULE    ---      ---       ?C?FCAST
      00FF240BH   PUBLIC    CODE     NEAR LAB  ?C?FCASTC
      00FF2406H   PUBLIC    CODE     NEAR LAB  ?C?FCASTI
      00FF2401H   PUBLIC    CODE     NEAR LAB  ?C?FCASTL

      ---         MODULE    ---      ---       ?C?CASTF
      00FF243EH   PUBLIC    CODE     NEAR LAB  ?C?CASTF

      ---         MODULE    ---      ---       PRINTF
      00010685H   PUBLIC    XDATA    ---       ?PRINTF?BYTE
      00FF247BH   PUBLIC    CODE     NEAR LAB  PRINTF

      ---         MODULE    ---      ---       SPRINTF
      00010663H   PUBLIC    XDATA    ---       ?SPRINTF?BYTE
      00FF24A7H   PUBLIC    CODE     NEAR LAB  SPRINTF

      ---         MODULE    ---      ---       SQRT?_
      00FF24C7H   PUBLIC    CODE     ---       SQRT?_

      ---         MODULE    ---      ---       pow

      ---         MODULE    ---      ---       SIN?_
      00FF259FH   PUBLIC    CODE     ---       COS?_
      00FF25BCH   PUBLIC    CODE     ---       SIN?_
      00FF25E9H   PUBLIC    CODE     ---       TAN?_

      ---         MODULE    ---      ---       ATAN?_
      00FF26AFH   PUBLIC    CODE     ---       ATAN?_

      ---         MODULE    ---      ---       ASIN?_
      00FF2781H   PUBLIC    CODE     ---       ASIN?_

      ---         MODULE    ---      ---       ?C?FPGETOPN
      00FF27A1H   PUBLIC    CODE     ---       ?C?FPGETOPN2
      00FF27DEH   PUBLIC    CODE     ---       ?C?FPNANRESULT
      00FF27E6H   PUBLIC    CODE     ---       ?C?FPOVERFLOW
      00FF27BAH   PUBLIC    CODE     ---       ?C?FPRESULT
      00FF27D0H   PUBLIC    CODE     ---       ?C?FPRESULT2
L251 LINKER/LOCATER V4.66.93.0                                                        01/25/2026  01:33:53  PAGE 128


      00FF27E3H   PUBLIC    CODE     ---       ?C?FPUNDERFLOW

      ---         MODULE    ---      ---       _CHKFLOAT_?_
      00FF27F2H   PUBLIC    CODE     ---       _CHKFLOAT_?_

      ---         MODULE    ---      ---       ?C?PRNFMT
      00FF283CH   PUBLIC    CODE     ---       ?C?PRNFMT

      ---         MODULE    ---      ---       ?C?FPSERIES
      00FF2C4BH   PUBLIC    CODE     ---       ?C?FP2SERIES
      00FF2C54H   PUBLIC    CODE     ---       ?C?FPSERIES

      ---         MODULE    ---      ---       EXP?_
      00FF2CB1H   PUBLIC    CODE     ---       EXP?_

      ---         MODULE    ---      ---       LOG?_
      00FF2D40H   PUBLIC    CODE     NEAR LAB  LOG?_

      ---         MODULE    ---      ---       ?C?FPCONVERT
      00FF2E13H   PUBLIC    CODE     ---       ?C?FPCONVERT
      00FF2ECBH   PUBLIC    CODE     ---       ?C?FPROUND

      ---         MODULE    ---      ---       ?C?FTNPWR
      00FF2F3EH   PUBLIC    CODE     ---       ?C?FTNPWR

      ---         MODULE    ---      ---       ?C?INITHDATA
      00FF6C31H   PUBLIC    CODE     ---       ?C?INITHDATA

      ---         MODULE    ---      ---       ?C?SIDIV
      00FF2F75H   PUBLIC    CODE     ---       ?C?SIDIV

      ---         MODULE    ---      ---       ?C?LMUL
      00FF2FA7H   PUBLIC    CODE     ---       ?C?LMUL

      ---         MODULE    ---      ---       ?C?LIMUL
      00FF2FB8H   PUBLIC    CODE     ---       ?C?LIMUL

      ---         MODULE    ---      ---       ?C?ULDIV
      00FF2FC3H   PUBLIC    CODE     NEAR LAB  ?C?ULDIV
      00FF2FC1H   PUBLIC    CODE     NEAR LAB  ?C?ULIDIV

      ---         MODULE    ---      ---       ?C?SLDIV
      00FF3014H   PUBLIC    CODE     NEAR LAB  ?C?SLDIV

      ---         MODULE    ---      ---       ?C?BMOVEPP
      00FF304AH   PUBLIC    CODE     ---       ?C?BMOVEPP
      00FF3048H   PUBLIC    CODE     ---       ?C?BMOVEPP8

      ---         MODULE    ---      ---       STRNCMP

      ---         MODULE    ---      ---       STRNCPY

      ---         MODULE    ---      ---       STRLEN

      ---         MODULE    ---      ---       STRCHR

      ---         MODULE    ---      ---       memcpy
      00FF754EH   PUBLIC    CODE     ---       memcpy?_

      ---         MODULE    ---      ---       memset

      ---         MODULE    ---      ---       ?C?INITHDATA_END
      00FF7B83H   PUBLIC    HCONST   WORD      ?C?INITHDATA_END

Program Size: data=8.0 edata+hdata=2048 xdata=2546 const=4240 code=30269
L251 LINKER/LOCATER V4.66.93.0                                                        01/25/2026  01:33:53  PAGE 129


L251 RUN COMPLETE.  0 WARNING(S),  0 ERROR(S)
