L251 LINKER/LOCATER V4.66.93.0                                                          01/14/2026  23:11:45  PAGE 1


L251 LINKER/LOCATER V4.66.93.0, INVOKED BY:
E:\TOOLS\KEIL5\KEIL_V5\C251\BIN\L251.EXE .\out_file\START251.obj, .\out_file\stc32g_isr.obj, .\out_file\zf_common_clock.
>> obj, .\out_file\zf_common_debug.obj, .\out_file\zf_common_fifo.obj, .\out_file\zf_common_font.obj, .\out_file\zf_comm
>> on_function.obj, .\out_file\zf_common_typedef.obj, .\out_file\zf_common_interrupt.obj, .\out_file\zf_driver_adc.obj, 
>> .\out_file\zf_driver_delay.obj, .\out_file\zf_driver_eeprom.obj, .\out_file\zf_driver_encoder.obj, .\out_file\zf_driv
>> er_exti.obj, .\out_file\zf_driver_gpio.obj, .\out_file\zf_driver_pit.obj, .\out_file\zf_driver_pwm.obj, .\out_file\zf
>> _driver_soft_iic.obj, .\out_file\zf_driver_soft_spi.obj, .\out_file\zf_driver_spi.obj, .\out_file\zf_driver_timer.obj
>> , .\out_file\zf_driver_uart.obj, .\out_file\zf_device_ble6a20.obj, .\out_file\zf_device_config.obj, .\out_file\zf_dev
>> ice_dl1a.obj, .\out_file\zf_device_dl1b.obj, .\out_file\zf_device_gps_tau1201.obj, .\out_file\zf_device_icm20602.obj,
>>  .\out_file\zf_device_imu660ra.obj, .\out_file\zf_device_imu660rb.obj, .\out_file\zf_device_imu963ra.obj, .\out_file\
>> zf_device_ips114.obj, .\out_file\zf_device_ips200.obj, .\out_file\zf_device_ips200pro.obj, .\out_file\zf_device_tft18
>> 0.obj, .\out_file\zf_device_tsl1401.obj, .\out_file\zf_device_type.obj, .\out_file\zf_device_wireless_uart.obj, .\out
>> _file\seekfree_assistant.obj, .\out_file\seekfree_assistant_interface.obj, .\out_file\motor.obj, .\out_file\key.obj, 
>> .\out_file\lcd.obj, .\out_file\adc.obj, .\out_file\uart.obj, .\out_file\pid.obj, .\out_file\encoder.obj, .\out_file\n
>> ormalization.obj, .\out_file\control.obj, .\out_file\IMU.obj, .\out_file\isr.obj, .\out_file\main.obj TO .\out_file\S
>> EEKFREE PRINT (.\out_file\SEEKFREE.map) CASE DISABLEWARNING (57, 16) REMOVEUNUSED CLASSES (EDATA (0X0-0XFFF), HDATA (
>> 0X0-0XFFF))


CPU MODE:     251 SOURCE MODE
INTR FRAME:   4 BYTES SAVED ON INTERRUPT
MEMORY MODEL: LARGE WITH FLOATING POINT ARITHMETIC


INPUT MODULES INCLUDED:
  .\out_file\START251.obj (?C_START)
         COMMENT TYPE 0: A251 V4.69.13.0
  .\out_file\stc32g_isr.obj (stc32g_isr)
         COMMENT TYPE 0: A251 V4.69.13.0
  .\out_file\zf_common_clock.obj (zf_common_clock)
         COMMENT TYPE 0: C251 V5.60.0
  .\out_file\zf_common_debug.obj (zf_common_debug)
         COMMENT TYPE 0: C251 V5.60.0
  .\out_file\zf_common_fifo.obj (zf_common_fifo)
         COMMENT TYPE 0: C251 V5.60.0
  .\out_file\zf_common_font.obj (zf_common_font)
         COMMENT TYPE 0: C251 V5.60.0
  .\out_file\zf_common_function.obj (zf_common_function)
         COMMENT TYPE 0: C251 V5.60.0
  .\out_file\zf_common_typedef.obj (zf_common_typedef)
         COMMENT TYPE 0: C251 V5.60.0
  .\out_file\zf_common_interrupt.obj (zf_common_interrupt)
         COMMENT TYPE 0: C251 V5.60.0
  .\out_file\zf_driver_adc.obj (zf_driver_adc)
         COMMENT TYPE 0: C251 V5.60.0
  .\out_file\zf_driver_delay.obj (zf_driver_delay)
         COMMENT TYPE 0: C251 V5.60.0
  .\out_file\zf_driver_eeprom.obj (zf_driver_eeprom)
         COMMENT TYPE 0: C251 V5.60.0
  .\out_file\zf_driver_encoder.obj (zf_driver_encoder)
         COMMENT TYPE 0: C251 V5.60.0
  .\out_file\zf_driver_exti.obj (zf_driver_exti)
         COMMENT TYPE 0: C251 V5.60.0
  .\out_file\zf_driver_gpio.obj (zf_driver_gpio)
         COMMENT TYPE 0: C251 V5.60.0
  .\out_file\zf_driver_pit.obj (zf_driver_pit)
         COMMENT TYPE 0: C251 V5.60.0
  .\out_file\zf_driver_pwm.obj (zf_driver_pwm)
         COMMENT TYPE 0: C251 V5.60.0
  .\out_file\zf_driver_soft_iic.obj (zf_driver_soft_iic)
         COMMENT TYPE 0: C251 V5.60.0
  .\out_file\zf_driver_soft_spi.obj (zf_driver_soft_spi)
         COMMENT TYPE 0: C251 V5.60.0
  .\out_file\zf_driver_spi.obj (zf_driver_spi)
         COMMENT TYPE 0: C251 V5.60.0
  .\out_file\zf_driver_timer.obj (zf_driver_timer)
L251 LINKER/LOCATER V4.66.93.0                                                        01/14/2026  23:11:45  PAGE 2


         COMMENT TYPE 0: C251 V5.60.0
  .\out_file\zf_driver_uart.obj (zf_driver_uart)
         COMMENT TYPE 0: C251 V5.60.0
  .\out_file\zf_device_ble6a20.obj (zf_device_ble6a20)
         COMMENT TYPE 0: C251 V5.60.0
  .\out_file\zf_device_config.obj (zf_device_config)
         COMMENT TYPE 0: C251 V5.60.0
  .\out_file\zf_device_dl1a.obj (zf_device_dl1a)
         COMMENT TYPE 0: C251 V5.60.0
  .\out_file\zf_device_dl1b.obj (zf_device_dl1b)
         COMMENT TYPE 0: C251 V5.60.0
  .\out_file\zf_device_gps_tau1201.obj (zf_device_gps_tau1201)
         COMMENT TYPE 0: C251 V5.60.0
  .\out_file\zf_device_icm20602.obj (zf_device_icm20602)
         COMMENT TYPE 0: C251 V5.60.0
  .\out_file\zf_device_imu660ra.obj (zf_device_imu660ra)
         COMMENT TYPE 0: C251 V5.60.0
  .\out_file\zf_device_imu660rb.obj (zf_device_imu660rb)
         COMMENT TYPE 0: C251 V5.60.0
  .\out_file\zf_device_imu963ra.obj (zf_device_imu963ra)
         COMMENT TYPE 0: C251 V5.60.0
  .\out_file\zf_device_ips114.obj (zf_device_ips114)
         COMMENT TYPE 0: C251 V5.60.0
  .\out_file\zf_device_ips200.obj (zf_device_ips200)
         COMMENT TYPE 0: C251 V5.60.0
  .\out_file\zf_device_ips200pro.obj (zf_device_ips200pro)
         COMMENT TYPE 0: C251 V5.60.0
  .\out_file\zf_device_tft180.obj (zf_device_tft180)
         COMMENT TYPE 0: C251 V5.60.0
  .\out_file\zf_device_tsl1401.obj (zf_device_tsl1401)
         COMMENT TYPE 0: C251 V5.60.0
  .\out_file\zf_device_type.obj (zf_device_type)
         COMMENT TYPE 0: C251 V5.60.0
  .\out_file\zf_device_wireless_uart.obj (zf_device_wireless_uart)
         COMMENT TYPE 0: C251 V5.60.0
  .\out_file\seekfree_assistant.obj (seekfree_assistant)
         COMMENT TYPE 0: C251 V5.60.0
  .\out_file\seekfree_assistant_interface.obj (seekfree_assistant_interface)
         COMMENT TYPE 0: C251 V5.60.0
  .\out_file\motor.obj (motor)
         COMMENT TYPE 0: C251 V5.60.0
  .\out_file\key.obj (key)
         COMMENT TYPE 0: C251 V5.60.0
  .\out_file\lcd.obj (lcd)
         COMMENT TYPE 0: C251 V5.60.0
  .\out_file\adc.obj (adc)
         COMMENT TYPE 0: C251 V5.60.0
  .\out_file\uart.obj (uart)
         COMMENT TYPE 0: C251 V5.60.0
  .\out_file\pid.obj (pid)
         COMMENT TYPE 0: C251 V5.60.0
  .\out_file\encoder.obj (encoder)
         COMMENT TYPE 0: C251 V5.60.0
  .\out_file\normalization.obj (normalization)
         COMMENT TYPE 0: C251 V5.60.0
  .\out_file\control.obj (control)
         COMMENT TYPE 0: C251 V5.60.0
  .\out_file\IMU.obj (IMU)
         COMMENT TYPE 0: C251 V5.60.0
  .\out_file\isr.obj (isr)
         COMMENT TYPE 0: C251 V5.60.0
  .\out_file\main.obj (main)
         COMMENT TYPE 0: C251 V5.60.0
  E:\TOOLS\KEIL5\KEIL_V5\C251\LIB\C2SFPL.LIB (?C?FPADD)
         COMMENT TYPE 0: A251 V4.69.6.0
L251 LINKER/LOCATER V4.66.93.0                                                        01/14/2026  23:11:45  PAGE 3


  E:\TOOLS\KEIL5\KEIL_V5\C251\LIB\C2SFPL.LIB (?C?FPMUL)
         COMMENT TYPE 0: A251 V4.69.6.0
  E:\TOOLS\KEIL5\KEIL_V5\C251\LIB\C2SFPL.LIB (?C?FPDIV)
         COMMENT TYPE 0: A251 V4.69.6.0
  E:\TOOLS\KEIL5\KEIL_V5\C251\LIB\C2SFPL.LIB (?C?FPCMP)
         COMMENT TYPE 0: A251 V4.69.6.0
  E:\TOOLS\KEIL5\KEIL_V5\C251\LIB\C2SFPL.LIB (?C?FPNEG)
         COMMENT TYPE 0: A251 V4.69.6.0
  E:\TOOLS\KEIL5\KEIL_V5\C251\LIB\C2SFPL.LIB (?C?FCAST)
         COMMENT TYPE 0: A251 V4.69.6.0
  E:\TOOLS\KEIL5\KEIL_V5\C251\LIB\C2SFPL.LIB (?C?CASTF)
         COMMENT TYPE 0: A251 V4.69.6.0
  E:\TOOLS\KEIL5\KEIL_V5\C251\LIB\C2SFPL.LIB (PRINTF)
         COMMENT TYPE 0: A251 V4.69.6.0
  E:\TOOLS\KEIL5\KEIL_V5\C251\LIB\C2SFPL.LIB (SPRINTF)
         COMMENT TYPE 0: A251 V4.69.6.0
  E:\TOOLS\KEIL5\KEIL_V5\C251\LIB\C2SFPL.LIB (SQRT?_)
         COMMENT TYPE 0: A251 V4.69.6.0
  E:\TOOLS\KEIL5\KEIL_V5\C251\LIB\C2SFPL.LIB (pow)
         COMMENT TYPE 0: C251 V5.58.7
  E:\TOOLS\KEIL5\KEIL_V5\C251\LIB\C2SFPL.LIB (SIN?_)
         COMMENT TYPE 0: A251 V4.69.6.0
  E:\TOOLS\KEIL5\KEIL_V5\C251\LIB\C2SFPL.LIB (ATAN?_)
         COMMENT TYPE 0: A251 V4.69.6.0
  E:\TOOLS\KEIL5\KEIL_V5\C251\LIB\C2SFPL.LIB (ASIN?_)
         COMMENT TYPE 0: A251 V4.69.6.0
  E:\TOOLS\KEIL5\KEIL_V5\C251\LIB\C2SFPL.LIB (?C?FPGETOPN)
         COMMENT TYPE 0: A251 V4.69.6.0
  E:\TOOLS\KEIL5\KEIL_V5\C251\LIB\C2SFPL.LIB (_CHKFLOAT_?_)
         COMMENT TYPE 0: A251 V4.69.6.0
  E:\TOOLS\KEIL5\KEIL_V5\C251\LIB\C2SFPL.LIB (?C?PRNFMT)
         COMMENT TYPE 0: A251 V4.69.6.0
  E:\TOOLS\KEIL5\KEIL_V5\C251\LIB\C2SFPL.LIB (?C?FPSERIES)
         COMMENT TYPE 0: A251 V4.69.6.0
  E:\TOOLS\KEIL5\KEIL_V5\C251\LIB\C2SFPL.LIB (EXP?_)
         COMMENT TYPE 0: A251 V4.69.6.0
  E:\TOOLS\KEIL5\KEIL_V5\C251\LIB\C2SFPL.LIB (LOG?_)
         COMMENT TYPE 0: A251 V4.69.6.0
  E:\TOOLS\KEIL5\KEIL_V5\C251\LIB\C2SFPL.LIB (?C?FPCONVERT)
         COMMENT TYPE 0: A251 V4.69.6.0
  E:\TOOLS\KEIL5\KEIL_V5\C251\LIB\C2SFPL.LIB (?C?FTNPWR)
         COMMENT TYPE 0: A251 V4.69.6.0
  E:\TOOLS\KEIL5\KEIL_V5\C251\LIB\C2SL.LIB (?C?INITHDATA)
         COMMENT TYPE 0: A251 V4.69.6.0
  E:\TOOLS\KEIL5\KEIL_V5\C251\LIB\C2SL.LIB (?C?SIDIV)
         COMMENT TYPE 0: A251 V4.69.6.0
  E:\TOOLS\KEIL5\KEIL_V5\C251\LIB\C2SL.LIB (?C?LMUL)
         COMMENT TYPE 0: A251 V4.69.6.0
  E:\TOOLS\KEIL5\KEIL_V5\C251\LIB\C2SL.LIB (?C?LIMUL)
         COMMENT TYPE 0: A251 V4.69.6.0
  E:\TOOLS\KEIL5\KEIL_V5\C251\LIB\C2SL.LIB (?C?ULDIV)
         COMMENT TYPE 0: A251 V4.69.6.0
  E:\TOOLS\KEIL5\KEIL_V5\C251\LIB\C2SL.LIB (?C?SLDIV)
         COMMENT TYPE 0: A251 V4.69.6.0
  E:\TOOLS\KEIL5\KEIL_V5\C251\LIB\C2SL.LIB (?C?BMOVEPP)
         COMMENT TYPE 0: A251 V4.69.6.0
  E:\TOOLS\KEIL5\KEIL_V5\C251\LIB\C2SL.LIB (ABS)
         COMMENT TYPE 0: C251 V5.58.7
  E:\TOOLS\KEIL5\KEIL_V5\C251\LIB\C2SL.LIB (STRNCMP)
         COMMENT TYPE 0: C251 V5.58.7
  E:\TOOLS\KEIL5\KEIL_V5\C251\LIB\C2SL.LIB (STRNCPY)
         COMMENT TYPE 0: C251 V5.58.7
  E:\TOOLS\KEIL5\KEIL_V5\C251\LIB\C2SL.LIB (STRLEN)
         COMMENT TYPE 0: C251 V5.58.7
  E:\TOOLS\KEIL5\KEIL_V5\C251\LIB\C2SL.LIB (STRCHR)
L251 LINKER/LOCATER V4.66.93.0                                                        01/14/2026  23:11:45  PAGE 4


         COMMENT TYPE 0: C251 V5.58.7
  E:\TOOLS\KEIL5\KEIL_V5\C251\LIB\C2SL.LIB (memcpy)
         COMMENT TYPE 0: C251 V5.58.7
  E:\TOOLS\KEIL5\KEIL_V5\C251\LIB\C2SL.LIB (memset)
         COMMENT TYPE 0: C251 V5.58.7
  E:\TOOLS\KEIL5\KEIL_V5\C251\LIB\C2SL.LIB (?C?INITHDATA_END)
         COMMENT TYPE 0: A251 V4.69.6.0


ACTIVE MEMORY CLASSES OF MODULE:  .\out_file\SEEKFREE (?C_START)

BASE        START       END         USED      MEMORY CLASS
==========================================================
000000H     000000H     000FFFH     000800H   EDATA
000000H     000000H     000FFFH               HDATA
FF0000H     FF0000H     FFFFFFH     007992H   CODE
010000H     010000H     01FFFFH     000969H   XDATA
000000H     FF0000H     FFFFFFH     000FB0H   HCONST
000020H.0   000020H.0   00002FH.7             BIT
FF0000H     FF0000H     FFFFFFH     000004H   CONST
000000H     000000H     00007FH     000008H   DATA


MEMORY MAP OF MODULE:  .\out_file\SEEKFREE (?C_START)


START     STOP      LENGTH    ALIGN  RELOC    MEMORY CLASS   SEGMENT NAME
=========================================================================
000000H   000007H   000008H   ---    AT..     DATA           "REG BANK 0"
000008H   000807H   000800H   BYTE   UNIT     EDATA          ?STACK
000808H   00FFFFH   00F7F8H   ---    ---      **GAP**
010000H   010201H   000202H   BYTE   INSEG    XDATA          ?XD?ZF_DEVICE_TSL1401
010202H   0103C9H   0001C8H   BYTE   INSEG    XDATA          ?XD?ZF_DEVICE_GPS_TAU1201
0103CAH   010506H   00013DH   BYTE   INSEG    XDATA          ?XD?SEEKFREE_ASSISTANT
010507H   0105C6H   0000C0H   BYTE   INSEG    XDATA          ?XD?PID
0105C7H   01065BH   000095H   BYTE   UNIT     XDATA          _XDATA_GROUP_
01065CH   0106B4H   000059H   BYTE   INSEG    XDATA          ?XD?ZF_COMMON_DEBUG
0106B5H   01070BH   000057H   BYTE   INSEG    XDATA          ?XD?ZF_DEVICE_BLE6A20
01070CH   010762H   000057H   BYTE   INSEG    XDATA          ?XD?ZF_DEVICE_WIRELESS_UART
010763H   0107AFH   00004DH   BYTE   INSEG    XDATA          ?XD?ZF_DEVICE_IPS200PRO
0107B0H   0107EFH   000040H   BYTE   INSEG    XDATA          ?XD?IMU
0107F0H   010822H   000033H   BYTE   INSEG    XDATA          ?XD?UART
010823H   01084BH   000029H   BYTE   INSEG    XDATA          ?XD?ADC
01084CH   010869H   00001EH   BYTE   INSEG    XDATA          ?XD?ZF_COMMON_TYPEDEF
01086AH   010887H   00001EH   BYTE   INSEG    XDATA          ?XD?ZF_DEVICE_IMU963RA
010888H   01089FH   000018H   BYTE   INSEG    XDATA          ?XD?CONTROL
0108A0H   0108B3H   000014H   BYTE   INSEG    XDATA          ?XD?ZF_DEVICE_ICM20602
0108B4H   0108C7H   000014H   BYTE   INSEG    XDATA          ?XD?ZF_DEVICE_IMU660RA
0108C8H   0108D4H   00000DH   BYTE   INSEG    XDATA          ?XD?ZF_DEVICE_DL1A
0108D5H   0108E1H   00000DH   BYTE   INSEG    XDATA          ?XD?ZF_DEVICE_DL1B
0108E2H   0108EDH   00000CH   BYTE   INSEG    XDATA          ?XD?ZF_DRIVER_TIMER
0108EEH   0108F9H   00000CH   BYTE   INSEG    XDATA          ?XD?ZF_DRIVER_UART
0108FAH   010905H   00000CH   BYTE   INSEG    XDATA          ?XD?ZF_DEVICE_IMU660RB
010906H   01090FH   00000AH   BYTE   INSEG    XDATA          ?XD?ZF_DEVICE_IPS200
010910H   010919H   00000AH   BYTE   INSEG    XDATA          ?XD?NORMALIZATION
01091AH   010922H   000009H   BYTE   INSEG    XDATA          ?XD?MAIN
010923H   01092AH   000008H   BYTE   UNIT     XDATA          ?XD?SOFT_IIC_DELAY?ZF_DRIVER_SOFT_IIC
01092BH   010932H   000008H   BYTE   INSEG    XDATA          ?XD?ZF_DEVICE_IPS114
010933H   01093AH   000008H   BYTE   INSEG    XDATA          ?XD?ZF_DEVICE_TFT180
01093BH   010942H   000008H   BYTE   INSEG    XDATA          ?XD?ZF_DEVICE_TYPE
010943H   010948H   000006H   BYTE   INSEG    XDATA          ?XD?ZF_DRIVER_ENCODER
010949H   01094CH   000004H   BYTE   INSEG    XDATA          ?XD?ZF_COMMON_CLOCK
01094DH   010950H   000004H   BYTE   INSEG    XDATA          ?XD?ZF_DRIVER_DELAY
010951H   010954H   000004H   BYTE   INSEG    XDATA          ?XD?SEEKFREE_ASSISTANT_INTERFACE
010955H   010958H   000004H   BYTE   INSEG    XDATA          ?XD?KEY
L251 LINKER/LOCATER V4.66.93.0                                                        01/14/2026  23:11:45  PAGE 5


010959H   01095CH   000004H   BYTE   INSEG    XDATA          ?XD?ENCODER
01095DH   01095FH   000003H   BYTE   UNIT     XDATA          ?XD?SOFT_IIC_READ_DATA?ZF_DRIVER_SOFT_IIC
010960H   010961H   000002H   BYTE   UNIT     XDATA          ?XD?SOFT_IIC_SEND_DATA?ZF_DRIVER_SOFT_IIC
010962H   010963H   000002H   BYTE   INSEG    XDATA          ?XD?MOTOR
010964H   010964H   000001H   BYTE   INSEG    XDATA          ?XD?ZF_DRIVER_ADC
010965H   010965H   000001H   BYTE   UNIT     XDATA          ?XD?SOFT_IIC_SEND_ACK?ZF_DRIVER_SOFT_IIC
010966H   010966H   000001H   BYTE   UNIT     XDATA          ?XD?SOFT_IIC_WAIT_ACK?ZF_DRIVER_SOFT_IIC
010967H   010967H   000001H   BYTE   INSEG    XDATA          ?XD?LCD
010968H   010968H   000001H   BYTE   INSEG    XDATA          ?XD?ISR
010969H   FEFFFFH   FDF697H   ---    ---      **GAP**
FF0000H   FF0002H   000003H   ---    OFFS..   CODE           ?CO?START251?4
FF0003H   FF000AH   000008H   BYTE   INSEG    CODE           ?PR?IMU660RB_WRITE_REGISTER?ZF_DEVICE_IMU660RB
FF000BH   FF000DH   000003H   ---    OFFS..   CODE           ?PR?IV?1
FF000EH   FF001AH   00000DH   BYTE   INSEG    CODE           ?PR?TFT180_SET_COLOR?ZF_DEVICE_TFT180
FF001BH   FF001DH   000003H   ---    OFFS..   CODE           ?PR?IV?3
FF001EH   FF0020H   000003H   BYTE   INSEG    CODE           ?PR?INTERRUPT_GLOBAL_ENABLE?ZF_COMMON_INTERRUPT
FF0021H   FF0022H   000002H   ---    ---      **GAP**
FF0023H   FF0025H   000003H   ---    OFFS..   CODE           ?PR?IV?4
FF0026H   FF0042H   00001DH   BYTE   INSEG    CODE           ?PR?IMU_INIT?IMU
FF0043H   FF0045H   000003H   ---    OFFS..   CODE           ?PR?IV?8
FF0046H   FF0061H   00001CH   BYTE   INSEG    CODE           ?PR?IMU660RB_SIMSPI_R_REG_BYTE?ZF_DEVICE_IMU660RB
FF0062H   FF0062H   000001H   ---    ---      **GAP**
FF0063H   FF0065H   000003H   ---    OFFS..   CODE           ?PR?IV?12
FF0066H   FF008AH   000025H   BYTE   INSEG    CODE           ?PR?CONSTRAIN_FLOAT?PID
FF008BH   FF008DH   000003H   ---    OFFS..   CODE           ?PR?IV?17
FF008EH   FF0090H   000003H   BYTE   INSEG    CODE           ?PR?SPI_WRITE_8BIT?ZF_DRIVER_SPI
FF0091H   FF0092H   000002H   ---    ---      **GAP**
FF0093H   FF0095H   000003H   ---    OFFS..   CODE           ?PR?IV?18
FF0096H   FF0098H   000003H   BYTE   INSEG    CODE           ?PR?PIT_HANDLER_2?MAIN
FF0099H   FF009AH   000002H   ---    ---      **GAP**
FF009BH   FF009DH   000003H   ---    OFFS..   CODE           ?PR?IV?19
FF009EH   FF00A1H   000004H   BYTE   UNIT     CONST          ?CO?PRINTF
FF00A2H   FF00A2H   000001H   ---    ---      **GAP**
FF00A3H   FF00A5H   000003H   ---    OFFS..   CODE           ?PR?IV?20
FF00A6H   FF0198H   0000F3H   BYTE   INSEG    CODE           ?PR?MY_ASIN?IMU
FF0199H   FF019AH   000002H   ---    ---      **GAP**
FF019BH   FF019DH   000003H   ---    OFFS..   CODE           ?CO?stc32g_isr?1
FF019EH   FF01A8H   00000BH   BYTE   INSEG    CODE           ?PR?DELAY_CYCLES?ZF_DRIVER_DELAY
FF01A9H   FF01AAH   000002H   ---    ---      **GAP**
FF01ABH   FF01ADH   000003H   ---    OFFS..   CODE           ?CO?stc32g_isr?2
FF01AEH   FF01B6H   000009H   BYTE   INSEG    CODE           ?PR?IMU_UPDATE?IMU
FF01B7H   FF01BAH   000004H   ---    ---      **GAP**
FF01BBH   FF01BDH   000003H   ---    OFFS..   CODE           ?CO?stc32g_isr?3
FF01BEH   FF01C5H   000008H   BYTE   UNIT     HCONST         ?HC?LCD
FF01C6H   FF01CAH   000005H   ---    ---      **GAP**
FF01CBH   FF01CDH   000003H   ---    OFFS..   CODE           ?CO?stc32g_isr?4
FF01CEH   FF21CDH   002000H   BYTE   UNIT     CODE           ?CO?ZF_DEVICE_CONFIG
FF21CEH   FF3070H   000EA3H   BYTE   UNIT     CODE           ?C?LIB_CODE
FF3071H   FF3660H   0005F0H   BYTE   UNIT     CODE           ?CO?ZF_COMMON_FONT
FF3661H   FF3C08H   0005A8H   BYTE   INSEG    CODE           ?PR?IMU_QUATERNION_UPDATE?IMU
FF3C09H   FF3FD9H   0003D1H   BYTE   INSEG    CODE           ?PR?PWM_INIT?ZF_DRIVER_PWM
FF3FDAH   FF438EH   0003B5H   BYTE   INSEG    CODE           ?PR?SPI_INIT?ZF_DRIVER_SPI
FF438FH   FF46ECH   00035EH   BYTE   INSEG    CODE           ?PR?TFT180_INIT?ZF_DEVICE_TFT180
FF46EDH   FF4A0DH   000321H   BYTE   INSEG    CODE           ?PR?FIFO_WRITE_BUFFER?ZF_COMMON_FIFO
FF4A0EH   FF4CA8H   00029BH   BYTE   INSEG    CODE           ?PR?GPIO_SET_DIR?ZF_DRIVER_GPIO
FF4CA9H   FF4E9EH   0001F6H   BYTE   INSEG    CODE           ?PR?UART_INIT?ZF_DRIVER_UART
FF4E9FH   FF507AH   0001DCH   BYTE   INSEG    CODE           ?PR?GPIO_SET_LEVEL_SPEED?ZF_DRIVER_GPIO
FF507BH   FF5252H   0001D8H   BYTE   INSEG    CODE           ?PR?IMU_QUATERNION_TO_EULER?IMU
FF5253H   FF53FDH   0001ABH   BYTE   INSEG    CODE           ?PR?IMU_QUATERNION_INIT?IMU
FF53FEH   FF558DH   000190H   BYTE   INSEG    CODE           ?PR?GPIO_SET_LEVEL?ZF_DRIVER_GPIO
FF558EH   FF5700H   000173H   BYTE   INSEG    CODE           ?PR?GPIO_SET_MODE?ZF_DRIVER_GPIO
FF5701H   FF585BH   00015BH   BYTE   INSEG    CODE           ?PR?PIT_INIT?ZF_DRIVER_PIT
FF585CH   FF5996H   00013BH   BYTE   INSEG    CODE           ?PR?PID_CALC_POSITION?PID
FF5997H   FF5AC7H   000131H   BYTE   INSEG    CODE           ?PR?MOTOR_PID_CONTROL?PID
FF5AC8H   FF5BF5H   00012EH   BYTE   INSEG    CODE           ?PR?PID_CALC_INCREMENT?PID
L251 LINKER/LOCATER V4.66.93.0                                                        01/14/2026  23:11:45  PAGE 6


FF5BF6H   FF5D1EH   000129H   BYTE   INSEG    CODE           ?PR?TFT180_SET_REGION?ZF_DEVICE_TFT180
FF5D1FH   FF5E3AH   00011CH   BYTE   INSEG    CODE           ?PR?UART_WRITE_BUFFER?ZF_DRIVER_UART
FF5E3BH   FF5F53H   000119H   BYTE   INSEG    CODE           ?PR?PWM_SET_DUTY?ZF_DRIVER_PWM
FF5F54H   FF605FH   00010CH   BYTE   INSEG    CODE           ?PR?_M?MAIN
FF6060H   FF616AH   00010BH   BYTE   INSEG    CODE           ?PR?SDSD_CALCULATE?CONTROL
FF616BH   FF626BH   000101H   BYTE   INSEG    CODE           ?PR?SET_SYS_CLK?ZF_COMMON_CLOCK
FF626CH   FF6364H   0000F9H   BYTE   INSEG    CODE           ?PR?GPIO_GET_LEVEL?ZF_DRIVER_GPIO
FF6365H   FF645CH   0000F8H   BYTE   INSEG    CODE           ?PR?MY_ATAN2?IMU
FF645DH   FF6541H   0000E5H   BYTE   INSEG    CODE           ?PR?GPIO_SET_IMPEDANCE?ZF_DRIVER_GPIO
FF6542H   FF661AH   0000D9H   BYTE   INSEG    CODE           ?PR?ENCODER_DIR_INIT?ZF_DRIVER_ENCODER
FF661BH   FF66D1H   0000B7H   BYTE   INSEG    CODE           ?PR?UART_DMA_INIT?ZF_DRIVER_UART
FF66D2H   FF6785H   0000B4H   BYTE   INSEG    CODE           ?PR?SOFT_IIC_READ_DATA?ZF_DRIVER_SOFT_IIC
FF6786H   FF6831H   0000ACH   BYTE   INSEG    CODE           ?PR?GPIO_INIT?ZF_DRIVER_GPIO
FF6832H   FF68DCH   0000ABH   BYTE   INSEG    CODE           ?PR?FAST_INV_SQRT?IMU
FF68DDH   FF6973H   000097H   BYTE   INSEG    CODE           ?PR?DMA_UART1_IRQHANDLER?ISR
FF6974H   FF69FFH   00008CH   BYTE   INSEG    CODE           ?PR?SOFT_IIC_SEND_DATA?ZF_DRIVER_SOFT_IIC
FF6A00H   FF6A78H   000079H   BYTE   INSEG    CODE           ?PR?SOFT_IIC_WAIT_ACK?ZF_DRIVER_SOFT_IIC
FF6A79H   FF6AF1H   000079H   BYTE   INSEG    CODE           ?PR?IMU_GET_DATA?IMU
FF6AF2H   FF6B6AH   000079H   BYTE   INSEG    CODE           ?PR?DMA_UART2_IRQHANDLER?ISR
FF6B6BH   FF6BE3H   000079H   BYTE   INSEG    CODE           ?PR?DMA_UART3_IRQHANDLER?ISR
FF6BE4H   FF6C5CH   000079H   BYTE   INSEG    CODE           ?PR?DMA_UART4_IRQHANDLER?ISR
FF6C5DH   FF6CD1H   000075H   BYTE   INSEG    CODE           ?PR?FIFO_INIT?ZF_COMMON_FIFO
FF6CD2H   FF6D46H   000075H   BYTE   INSEG    CODE           ?PR?MOTOR_INIT?MOTOR
FF6D47H   FF6DB6H   000070H   BYTE   INSEG    CODE           ?PR?SOFT_IIC_SEND_ACK?ZF_DRIVER_SOFT_IIC
FF6DB7H   FF6E23H   00006DH   BYTE   INSEG    CODE           ?PR?ENCODER_GET_COUNT?ZF_DRIVER_ENCODER
FF6E24H   FF6E8DH   00006AH   BYTE   INSEG    CODE           ?PR?CLOCK_INIT?ZF_COMMON_CLOCK
FF6E8EH   FF6EF7H   00006AH   BYTE   INSEG    CODE           ?PR?IMU660RB_INIT?ZF_DEVICE_IMU660RB
FF6EF8H   FF6F5FH   000068H   BYTE   INSEG    CODE           ?PR?DEBUG_ASSERT_HANDLER?ZF_COMMON_DEBUG
FF6F60H   FF6FC4H   000065H   BYTE   INSEG    CODE           ?PR?TFT180_CLEAR?ZF_DEVICE_TFT180
FF6FC5H   FF7026H   000062H   BYTE   INSEG    CODE           ?PR?SOFT_IIC_STOP?ZF_DRIVER_SOFT_IIC
FF7027H   FF7087H   000061H   BYTE   INSEG    CODE           ?PR?ADC_INIT?ZF_DRIVER_ADC
FF7088H   FF70E7H   000060H   BYTE   INSEG    CODE           ?PR?UART_RX_START_BUFF?ZF_DRIVER_UART
FF70E8H   FF7141H   00005AH   BYTE   INSEG    CODE           ?PR?DEBUG_INIT?ZF_COMMON_DEBUG
FF7142H   FF719BH   00005AH   BYTE   INSEG    CODE           ?PR?KEY_INIT?KEY
FF719CH   FF71F2H   000057H   BYTE   INSEG    CODE           ?PR?SOFT_IIC_START?ZF_DRIVER_SOFT_IIC
FF71F3H   FF7213H   000021H   BYTE   UNIT     CODE           ?C_C51STARTUP
FF7214H   FF7244H   000031H   BYTE   UNIT     CODE           ?C_C51STARTUP?2
FF7245H   FF7247H   000003H   BYTE   UNIT     CODE           ?C_C51STARTUP?3
FF7248H   FF7298H   000051H   BYTE   INSEG    CODE           ?PR?ENCODER_CLEAR_COUNT?ZF_DRIVER_ENCODER
FF7299H   FF72E8H   000050H   BYTE   INSEG    CODE           ?PR?IMU660RB_GET_GYRO?ZF_DEVICE_IMU660RB
FF72E9H   FF7338H   000050H   BYTE   INSEG    CODE           ?PR?IMU660RB_GET_ACC?ZF_DEVICE_IMU660RB
FF7339H   FF7381H   000049H   BYTE   INSEG    CODE           ?PR?UART_QUERY_BYTE?ZF_DRIVER_UART
FF7382H   FF73C7H   000046H   BYTE   INSEG    CODE           ?PR?FIFO_HEAD_OFFSET?ZF_COMMON_FIFO
FF73C8H   FF740BH   000044H   BYTE   INSEG    CODE           ?PR?SYSTEM_DELAY_INIT?ZF_DRIVER_DELAY
FF740CH   FF744AH   00003FH   BYTE   INSEG    CODE           ?PR?IMU660RB_SIMSPI_R_REG_BYTES?ZF_DEVICE_IMU660RB
FF744BH   FF7488H   00003EH   BYTE   INSEG    CODE           ?PR?SPI_WRITE_DAT?ZF_DRIVER_SPI
FF7489H   FF74C6H   00003EH   BYTE   INSEG    CODE           ?PR?TM0_IRQHANDLER?ISR
FF74C7H   FF7504H   00003EH   BYTE   INSEG    CODE           ?PR?TM1_IRQHANDLER?ISR
FF7505H   FF7542H   00003EH   BYTE   INSEG    CODE           ?PR?TM2_IRQHANDLER?ISR
FF7543H   FF7580H   00003EH   BYTE   INSEG    CODE           ?PR?TM3_IRQHANDLER?ISR
FF7581H   FF75BEH   00003EH   BYTE   INSEG    CODE           ?PR?TM4_IRQHANDLER?ISR
FF75BFH   FF75FBH   00003DH   BYTE   INSEG    CODE           ?PR?ANGLE_NORMALIZE?IMU
FF75FCH   FF7637H   00003CH   BYTE   INSEG    CODE           ?PR?UART_RX_INTERRUPT?ZF_DRIVER_UART
FF7638H   FF7670H   000039H   BYTE   INSEG    CODE           ?PR?DEBUG_INTERRUPR_HANDLER?ZF_COMMON_DEBUG
FF7671H   FF76A8H   000038H   BYTE   INSEG    CODE           ?PR?SOFT_IIC_DELAY?ZF_DRIVER_SOFT_IIC
FF76A9H   FF76D9H   000031H   BYTE   INSEG    CODE           ?PR?TIMER_FUNCITON_CHECK?ZF_DRIVER_TIMER
FF76DAH   FF770AH   000031H   BYTE   INSEG    CODE           ?PR?UART_FUNCITON_CHECK?ZF_DRIVER_UART
FF770BH   FF7737H   00002DH   BYTE   INSEG    CODE           ?PR?IMU660RB_SELF_CHECK?ZF_DEVICE_IMU660RB
FF7738H   FF7764H   00002DH   BYTE   INSEG    CODE           ?PR?PIT_HANDLER_1?MAIN
FF7765H   FF778FH   00002BH   BYTE   INSEG    CODE           ?PR?ADC_ALL_INIT?ADC
FF7790H   FF77B7H   000028H   BYTE   INSEG    CODE           ?PR?MOTOR_RIGHTFORWARD?MOTOR
FF77B8H   FF77DFH   000028H   BYTE   INSEG    CODE           ?PR?MOTOR_LEFTFORWARD?MOTOR
FF77E0H   FF7806H   000027H   BYTE   INSEG    CODE           ?PR?MOTOR_RIGHTBACKWARD?MOTOR
FF7807H   FF782DH   000027H   BYTE   INSEG    CODE           ?PR?MOTOR_LEFTBACKWARD?MOTOR
FF782EH   FF7852H   000025H   BYTE   INSEG    CODE           ?PR?MEMCPY?_?MEMCPY
L251 LINKER/LOCATER V4.66.93.0                                                        01/14/2026  23:11:45  PAGE 7


FF7853H   FF7876H   000024H   BYTE   INSEG    CODE           ?PR?MAIN?MAIN
FF7877H   FF7899H   000023H   BYTE   INSEG    CODE           ?PR?TFT180_SET_DIR?ZF_DEVICE_TFT180
FF789AH   FF78BAH   000021H   BYTE   INSEG    CODE           ?PR?IMU660RB_SIMSPI_WR_BYTE?ZF_DEVICE_IMU660RB
FF78BBH   FF78D6H   00001CH   BYTE   INSEG    CODE           ?PR?ENCODER_INIT?ENCODER
FF78D7H   FF78EEH   000018H   BYTE   INSEG    CODE           ?PR?SYSTEM_DELAY_MS?ZF_DRIVER_DELAY
FF78EFH   FF7904H   000016H   BYTE   INSEG    CODE           ?PR?IMU660RB_READ_REGISTER?ZF_DEVICE_IMU660RB
FF7905H   FF7919H   000015H   BYTE   INSEG    CODE           ?PR?SPI_WRITE_16BIT?ZF_DRIVER_SPI
FF791AH   FF792DH   000014H   BYTE   INSEG    CODE           ?PR?TFT180_WRITE_INDEX?ZF_DEVICE_TFT180
FF792EH   FF7940H   000013H   BYTE   INSEG    CODE           ?PR?UART_WRITE_BYTE?ZF_DRIVER_UART
FF7941H   FF7952H   000012H   BYTE   INSEG    CODE           ?PR?IMU660RB_GYRO_TRANSITION?ZF_DEVICE_IMU660RB
FF7953H   FF7964H   000012H   BYTE   INSEG    CODE           ?PR?IMU660RB_ACC_TRANSITION?ZF_DEVICE_IMU660RB
FF7965H   FF7975H   000011H   BYTE   INSEG    CODE           ?PR?LCD_INIT?LCD
FF7976H   FF7985H   000010H   BYTE   INSEG    CODE           ?PR?IMU660RB_READ_REGISTERS?ZF_DEVICE_IMU660RB
FF7986H   FF7995H   000010H   BYTE   INSEG    CODE           ?PR?ABS?_?ABS
FF7996H   FF79A4H   00000FH   BYTE   INSEG    CODE           ?PR?IMU660RB_SIMSPI_W_REG_BYTE?ZF_DEVICE_IMU660RB
FF79A5H   FF79B2H   00000EH   BYTE   INSEG    CODE           ?PR?PUTCHAR?ZF_COMMON_DEBUG
FF79B3H   FF7E6DH   0004BBH   BYTE   UNIT     HCONST         ?C_INITHDATA
FF7E6EH   FF806DH   000200H   BYTE   UNIT     HCONST         ?HC?ZF_DRIVER_EEPROM
FF806EH   FF819CH   00012FH   BYTE   UNIT     HCONST         ?HC?ZF_DEVICE_DL1A
FF819DH   FF826CH   0000D0H   BYTE   UNIT     HCONST         ?HC?ZF_DEVICE_IMU963RA
FF826DH   FF8313H   0000A7H   BYTE   UNIT     HCONST         ?HC?ZF_DEVICE_IMU660RA
FF8314H   FF83B7H   0000A4H   BYTE   UNIT     HCONST         ?HC?SEEKFREE_ASSISTANT
FF83B8H   FF8459H   0000A2H   BYTE   UNIT     HCONST         ?HC?ZF_DEVICE_GPS_TAU1201
FF845AH   FF84E3H   00008AH   BYTE   UNIT     HCONST         ?HC?ZF_DRIVER_PWM
FF84E4H   FF856BH   000088H   BYTE   UNIT     HCONST         ?HC?ZF_DEVICE_ICM20602
FF856CH   FF85D6H   00006BH   BYTE   UNIT     HCONST         ?HC?ZF_DRIVER_UART
FF85D7H   FF863CH   000066H   BYTE   UNIT     HCONST         ?HC?MAIN
FF863DH   FF8693H   000057H   BYTE   UNIT     HCONST         ?HC?ZF_COMMON_FUNCTION
FF8694H   FF86E9H   000056H   BYTE   UNIT     HCONST         ?HC?ADC
FF86EAH   FF871DH   000034H   BYTE   UNIT     HCONST         ?HC?ZF_DEVICE_WIRELESS_UART
FF871EH   FF8750H   000033H   BYTE   UNIT     HCONST         ?HC?ZF_DEVICE_IPS114
FF8751H   FF8783H   000033H   BYTE   UNIT     HCONST         ?HC?ZF_DEVICE_IPS200
FF8784H   FF87B6H   000033H   BYTE   UNIT     HCONST         ?HC?ZF_DEVICE_TFT180
FF87B7H   FF87E5H   00002FH   BYTE   UNIT     HCONST         ?HC?ZF_DRIVER_SOFT_IIC
FF87E6H   FF8814H   00002FH   BYTE   UNIT     HCONST         ?HC?ZF_DRIVER_SOFT_SPI
FF8815H   FF8842H   00002EH   BYTE   UNIT     HCONST         ?HC?ZF_DRIVER_ENCODER
FF8843H   FF8870H   00002EH   BYTE   UNIT     HCONST         ?HC?ZF_DEVICE_BLE6A20
FF8871H   FF889BH   00002BH   BYTE   UNIT     HCONST         ?HC?ZF_COMMON_FIFO
FF889CH   FF88C6H   00002BH   BYTE   UNIT     HCONST         ?HC?ZF_DRIVER_GPIO
FF88C7H   FF88F0H   00002AH   BYTE   UNIT     HCONST         ?HC?ZF_DRIVER_ADC
FF88F1H   FF891AH   00002AH   BYTE   UNIT     HCONST         ?HC?ZF_DRIVER_SPI
FF891BH   FF893FH   000025H   BYTE   UNIT     HCONST         ?HC?ZF_COMMON_DEBUG
FF8940H   FF895AH   00001BH   BYTE   UNIT     HCONST         ?HC?ZF_DEVICE_IMU660RB

* * * * * * * * *   R E M O V E D     S E G M E N T S   * * * * * * * *
   *DEL*:           00003EH   BYTE   INSEG    CODE           ?PR?DEBUG_READ_BUFFER?ZF_COMMON_DEBUG
   *DEL*:           00002DH   BYTE   INSEG    CODE           ?PR?DEBUG_SEND_BUFFER?ZF_COMMON_DEBUG
   *DEL*:           000004H   BYTE   UNIT     XDATA          ?XD?DEBUG_READ_BUFFER?ZF_COMMON_DEBUG
   *DEL*:           000361H   BYTE   INSEG    CODE           ?PR?FIFO_READ_BUFFER?ZF_COMMON_FIFO
   *DEL*:           00009DH   BYTE   INSEG    CODE           ?PR?FIFO_CLEAR?ZF_COMMON_FIFO
   *DEL*:           000046H   BYTE   INSEG    CODE           ?PR?FIFO_END_OFFSET?ZF_COMMON_FIFO
   *DEL*:           000033H   BYTE   INSEG    CODE           ?PR?FIFO_USED?ZF_COMMON_FIFO
   *DEL*:           000002H   BYTE   UNIT     XDATA          ?XD?FIFO_CLEAR?ZF_COMMON_FIFO
   *DEL*:           000014H   BYTE   UNIT     XDATA          ?XD?FIFO_READ_BUFFER?ZF_COMMON_FIFO
   *DEL*:           00021AH   BYTE   INSEG    CODE           ?PR?FUNC_DOUBLE_TO_STR?ZF_COMMON_FUNCTION
   *DEL*:           00018AH   BYTE   INSEG    CODE           ?PR?FUNC_STR_TO_DOUBLE?ZF_COMMON_FUNCTION
   *DEL*:           00008AH   BYTE   INSEG    CODE           ?PR?NUMBER_CONVERSION_ASCII?ZF_COMMON_FUNCTION
   *DEL*:           00021AH   BYTE   INSEG    CODE           ?PR?FUNC_FLOAT_TO_STR?ZF_COMMON_FUNCTION
   *DEL*:           00018AH   BYTE   INSEG    CODE           ?PR?FUNC_STR_TO_FLOAT?ZF_COMMON_FUNCTION
   *DEL*:           000024H   BYTE   INSEG    CODE           ?PR?FUNC_SOFT_DELAY?ZF_COMMON_FUNCTION
   *DEL*:           000681H   BYTE   INSEG    CODE           ?PR?ZF_SPRINTF?ZF_COMMON_FUNCTION
   *DEL*:           0000CAH   BYTE   INSEG    CODE           ?PR?FUNC_UINT_TO_STR?ZF_COMMON_FUNCTION
   *DEL*:           000076H   BYTE   INSEG    CODE           ?PR?FUNC_STR_TO_UINT?ZF_COMMON_FUNCTION
   *DEL*:           0000F6H   BYTE   INSEG    CODE           ?PR?FUNC_HEX_TO_STR?ZF_COMMON_FUNCTION
   *DEL*:           0000F5H   BYTE   INSEG    CODE           ?PR?FUNC_STR_TO_HEX?ZF_COMMON_FUNCTION
L251 LINKER/LOCATER V4.66.93.0                                                        01/14/2026  23:11:45  PAGE 8


   *DEL*:           00011FH   BYTE   INSEG    CODE           ?PR?FUNC_INT_TO_STR?ZF_COMMON_FUNCTION
   *DEL*:           0000B8H   BYTE   INSEG    CODE           ?PR?FUNC_STR_TO_INT?ZF_COMMON_FUNCTION
   *DEL*:           000019H   BYTE   INSEG    CODE           ?PR?FUNC_GET_GREATEST_COMMON_DIVISOR?ZF_COMMON_FUNCTION
   *DEL*:           00040AH   BYTE   INSEG    CODE           ?PR?VSNPRINTF?ZF_COMMON_FUNCTION
   *DEL*:           00003EH   BYTE   INSEG    CODE           ?PR?PRINTF_REVERSE_ORDER?ZF_COMMON_FUNCTION
   *DEL*:           000004H   BYTE   UNIT     XDATA          ?XD?FUNC_SOFT_DELAY?ZF_COMMON_FUNCTION
   *DEL*:           000005H   BYTE   UNIT     XDATA          ?XD?FUNC_STR_TO_INT?ZF_COMMON_FUNCTION
   *DEL*:           000019H   BYTE   UNIT     XDATA          ?XD?FUNC_INT_TO_STR?ZF_COMMON_FUNCTION
   *DEL*:           000004H   BYTE   UNIT     XDATA          ?XD?FUNC_STR_TO_UINT?ZF_COMMON_FUNCTION
   *DEL*:           000015H   BYTE   UNIT     XDATA          ?XD?FUNC_UINT_TO_STR?ZF_COMMON_FUNCTION
   *DEL*:           00000DH   BYTE   UNIT     XDATA          ?XD?FUNC_STR_TO_FLOAT?ZF_COMMON_FUNCTION
   *DEL*:           000026H   BYTE   UNIT     XDATA          ?XD?FUNC_FLOAT_TO_STR?ZF_COMMON_FUNCTION
   *DEL*:           00000DH   BYTE   UNIT     XDATA          ?XD?FUNC_STR_TO_DOUBLE?ZF_COMMON_FUNCTION
   *DEL*:           000034H   BYTE   UNIT     XDATA          ?XD?FUNC_DOUBLE_TO_STR?ZF_COMMON_FUNCTION
   *DEL*:           00000AH   BYTE   UNIT     XDATA          ?XD?FUNC_STR_TO_HEX?ZF_COMMON_FUNCTION
   *DEL*:           000021H   BYTE   UNIT     XDATA          ?XD?FUNC_HEX_TO_STR?ZF_COMMON_FUNCTION
   *DEL*:           000001H   BYTE   UNIT     XDATA          ?XD?NUMBER_CONVERSION_ASCII?ZF_COMMON_FUNCTION
   *DEL*:           000041H   BYTE   UNIT     XDATA          ?XD?VSNPRINTF?ZF_COMMON_FUNCTION
   *DEL*:           00005FH   BYTE   UNIT     XDATA          ?XD?ZF_SPRINTF?ZF_COMMON_FUNCTION
   *DEL*:           000003H   BYTE   INSEG    CODE           ?PR?INTERRUPT_GLOBAL_DISABLE?ZF_COMMON_INTERRUPT
   *DEL*:           00006CH   BYTE   INSEG    CODE           ?PR?INTERRUPT_SET_PRIORITY?ZF_COMMON_INTERRUPT
   *DEL*:           000069H   BYTE   INSEG    CODE           ?PR?ADC_MEAN_FILTER_CONVERT?ZF_DRIVER_ADC
   *DEL*:           000030H   BYTE   INSEG    CODE           ?PR?ADC_CONVERT?ZF_DRIVER_ADC
   *DEL*:           000004H   BYTE   UNIT     XDATA          ?XD?ADC_MEAN_FILTER_CONVERT?ZF_DRIVER_ADC
   *DEL*:           000018H   BYTE   INSEG    CODE           ?PR?SYSTEM_DELAY_US?ZF_DRIVER_DELAY
   *DEL*:           00001CH   BYTE   INSEG    CODE           ?PR?IAP_SET_TPS?ZF_DRIVER_EEPROM
   *DEL*:           00000BH   BYTE   INSEG    CODE           ?PR?EEPROM_TRIG?ZF_DRIVER_EEPROM
   *DEL*:           000025H   BYTE   INSEG    CODE           ?PR?IAP_ERASE_PAGE?ZF_DRIVER_EEPROM
   *DEL*:           000004H   BYTE   INSEG    CODE           ?PR?IAP_IDLE?ZF_DRIVER_EEPROM
   *DEL*:           000049H   BYTE   INSEG    CODE           ?PR?IAP_READ_BUFF?ZF_DRIVER_EEPROM
   *DEL*:           0000E9H   BYTE   INSEG    CODE           ?PR?EXTERN_IAP_WRITE_BUFF?ZF_DRIVER_EEPROM
   *DEL*:           000049H   BYTE   INSEG    CODE           ?PR?IAP_WRITE_BUFF?ZF_DRIVER_EEPROM
   *DEL*:           000021H   BYTE   INSEG    CODE           ?PR?IAP_READ_BYTE?ZF_DRIVER_EEPROM
   *DEL*:           000006H   BYTE   INSEG    CODE           ?PR?IAP_INIT?ZF_DRIVER_EEPROM
   *DEL*:           000028H   BYTE   INSEG    CODE           ?PR?IAP_WRITE_BYTE?ZF_DRIVER_EEPROM
   *DEL*:           00000CH   BYTE   INSEG    CODE           ?PR?IAP_GET_CMD_STATE?ZF_DRIVER_EEPROM
   *DEL*:           000000H.1 BIT    UNIT     BIT            ?BI?IAP_READ_BYTE?ZF_DRIVER_EEPROM
   *DEL*:           000000H.1 BIT    UNIT     BIT            ?BI?IAP_WRITE_BYTE?ZF_DRIVER_EEPROM
   *DEL*:           000006H   BYTE   UNIT     XDATA          ?XD?IAP_READ_BUFF?ZF_DRIVER_EEPROM
   *DEL*:           000006H   BYTE   UNIT     XDATA          ?XD?IAP_WRITE_BUFF?ZF_DRIVER_EEPROM
   *DEL*:           000000H.1 BIT    UNIT     BIT            ?BI?IAP_ERASE_PAGE?ZF_DRIVER_EEPROM
   *DEL*:           000206H   BYTE   UNIT     XDATA          ?XD?EXTERN_IAP_WRITE_BUFF?ZF_DRIVER_EEPROM
   *DEL*:           000016H   BYTE   INSEG    CODE           ?PR?GPIO_TOGGLE_LEVEL?ZF_DRIVER_GPIO
   *DEL*:           000188H   BYTE   INSEG    CODE           ?PR?PWM_SET_FREQ?ZF_DRIVER_PWM
   *DEL*:           000010H   BYTE   UNIT     XDATA          ?XD?PWM_SET_FREQ?ZF_DRIVER_PWM
   *DEL*:           000052H   BYTE   INSEG    CODE           ?PR?SOFT_IIC_WRITE_8BIT_REGISTER?ZF_DRIVER_SOFT_IIC
   *DEL*:           0000FBH   BYTE   INSEG    CODE           ?PR?SOFT_IIC_READ_16BIT_REGISTERS?ZF_DRIVER_SOFT_IIC
   *DEL*:           000069H   BYTE   INSEG    CODE           ?PR?SOFT_IIC_SCCB_READ_REGISTER?ZF_DRIVER_SOFT_IIC
   *DEL*:           000095H   BYTE   INSEG    CODE           ?PR?SOFT_IIC_READ_16BIT_REGISTER?ZF_DRIVER_SOFT_IIC
   *DEL*:           000161H   BYTE   INSEG    CODE           ?PR?SOFT_IIC_TRANSFER_16BIT_ARRAY?ZF_DRIVER_SOFT_IIC
   *DEL*:           0000BDH   BYTE   INSEG    CODE           ?PR?SOFT_IIC_WRITE_16BIT_REGISTERS?ZF_DRIVER_SOFT_IIC
   *DEL*:           000052H   BYTE   INSEG    CODE           ?PR?SOFT_IIC_SCCB_WRITE_REGISTER?ZF_DRIVER_SOFT_IIC
   *DEL*:           000047H   BYTE   INSEG    CODE           ?PR?SOFT_IIC_READ_8BIT?ZF_DRIVER_SOFT_IIC
   *DEL*:           0000B0H   BYTE   INSEG    CODE           ?PR?SOFT_IIC_READ_8BIT_ARRAY?ZF_DRIVER_SOFT_IIC
   *DEL*:           000072H   BYTE   INSEG    CODE           ?PR?SOFT_IIC_WRITE_16BIT_REGISTER?ZF_DRIVER_SOFT_IIC
   *DEL*:           000043H   BYTE   INSEG    CODE           ?PR?SOFT_IIC_WRITE_8BIT?ZF_DRIVER_SOFT_IIC
   *DEL*:           000095H   BYTE   INSEG    CODE           ?PR?SOFT_IIC_WRITE_8BIT_ARRAY?ZF_DRIVER_SOFT_IIC
   *DEL*:           000067H   BYTE   INSEG    CODE           ?PR?SOFT_IIC_READ_16BIT?ZF_DRIVER_SOFT_IIC
   *DEL*:           0000D7H   BYTE   INSEG    CODE           ?PR?SOFT_IIC_READ_16BIT_ARRAY?ZF_DRIVER_SOFT_IIC
   *DEL*:           0000A0H   BYTE   INSEG    CODE           ?PR?SOFT_IIC_INIT?ZF_DRIVER_SOFT_IIC
   *DEL*:           0000CDH   BYTE   INSEG    CODE           ?PR?SOFT_IIC_READ_8BIT_REGISTERS?ZF_DRIVER_SOFT_IIC
   *DEL*:           000054H   BYTE   INSEG    CODE           ?PR?SOFT_IIC_WRITE_16BIT?ZF_DRIVER_SOFT_IIC
   *DEL*:           0000A9H   BYTE   INSEG    CODE           ?PR?SOFT_IIC_WRITE_16BIT_ARRAY?ZF_DRIVER_SOFT_IIC
   *DEL*:           000064H   BYTE   INSEG    CODE           ?PR?SOFT_IIC_READ_8BIT_REGISTER?ZF_DRIVER_SOFT_IIC
   *DEL*:           000123H   BYTE   INSEG    CODE           ?PR?SOFT_IIC_TRANSFER_8BIT_ARRAY?ZF_DRIVER_SOFT_IIC
L251 LINKER/LOCATER V4.66.93.0                                                        01/14/2026  23:11:45  PAGE 9


   *DEL*:           0000A2H   BYTE   INSEG    CODE           ?PR?SOFT_IIC_WRITE_8BIT_REGISTERS?ZF_DRIVER_SOFT_IIC
   *DEL*:           000001H   BYTE   UNIT     XDATA          ?XD?SOFT_IIC_WRITE_8BIT?ZF_DRIVER_SOFT_IIC
   *DEL*:           000008H   BYTE   UNIT     XDATA          ?XD?SOFT_IIC_WRITE_8BIT_ARRAY?ZF_DRIVER_SOFT_IIC
   *DEL*:           000002H   BYTE   UNIT     XDATA          ?XD?SOFT_IIC_WRITE_16BIT?ZF_DRIVER_SOFT_IIC
   *DEL*:           000008H   BYTE   UNIT     XDATA          ?XD?SOFT_IIC_WRITE_16BIT_ARRAY?ZF_DRIVER_SOFT_IIC
   *DEL*:           000002H   BYTE   UNIT     XDATA          ?XD?SOFT_IIC_WRITE_8BIT_REGISTER?ZF_DRIVER_SOFT_IIC
   *DEL*:           000009H   BYTE   UNIT     XDATA          ?XD?SOFT_IIC_WRITE_8BIT_REGISTERS?ZF_DRIVER_SOFT_IIC
   *DEL*:           000004H   BYTE   UNIT     XDATA          ?XD?SOFT_IIC_WRITE_16BIT_REGISTER?ZF_DRIVER_SOFT_IIC
   *DEL*:           00000AH   BYTE   UNIT     XDATA          ?XD?SOFT_IIC_WRITE_16BIT_REGISTERS?ZF_DRIVER_SOFT_IIC
   *DEL*:           000001H   BYTE   UNIT     XDATA          ?XD?SOFT_IIC_READ_8BIT?ZF_DRIVER_SOFT_IIC
   *DEL*:           000008H   BYTE   UNIT     XDATA          ?XD?SOFT_IIC_READ_8BIT_ARRAY?ZF_DRIVER_SOFT_IIC
   *DEL*:           000002H   BYTE   UNIT     XDATA          ?XD?SOFT_IIC_READ_16BIT?ZF_DRIVER_SOFT_IIC
   *DEL*:           000008H   BYTE   UNIT     XDATA          ?XD?SOFT_IIC_READ_16BIT_ARRAY?ZF_DRIVER_SOFT_IIC
   *DEL*:           000002H   BYTE   UNIT     XDATA          ?XD?SOFT_IIC_READ_8BIT_REGISTER?ZF_DRIVER_SOFT_IIC
   *DEL*:           000009H   BYTE   UNIT     XDATA          ?XD?SOFT_IIC_READ_8BIT_REGISTERS?ZF_DRIVER_SOFT_IIC
   *DEL*:           000004H   BYTE   UNIT     XDATA          ?XD?SOFT_IIC_READ_16BIT_REGISTER?ZF_DRIVER_SOFT_IIC
   *DEL*:           00000AH   BYTE   UNIT     XDATA          ?XD?SOFT_IIC_READ_16BIT_REGISTERS?ZF_DRIVER_SOFT_IIC
   *DEL*:           000010H   BYTE   UNIT     XDATA          ?XD?SOFT_IIC_TRANSFER_8BIT_ARRAY?ZF_DRIVER_SOFT_IIC
   *DEL*:           000010H   BYTE   UNIT     XDATA          ?XD?SOFT_IIC_TRANSFER_16BIT_ARRAY?ZF_DRIVER_SOFT_IIC
   *DEL*:           000002H   BYTE   UNIT     XDATA          ?XD?SOFT_IIC_SCCB_WRITE_REGISTER?ZF_DRIVER_SOFT_IIC
   *DEL*:           000002H   BYTE   UNIT     XDATA          ?XD?SOFT_IIC_SCCB_READ_REGISTER?ZF_DRIVER_SOFT_IIC
   *DEL*:           000009H   BYTE   UNIT     XDATA          ?XD?SOFT_IIC_INIT?ZF_DRIVER_SOFT_IIC
   *DEL*:           000207H   BYTE   INSEG    CODE           ?PR?SOFT_SPI_INIT?ZF_DRIVER_SOFT_SPI
   *DEL*:           0000B1H   BYTE   INSEG    CODE           ?PR?SOFT_SPI_READ_8BIT_REGISTERS?ZF_DRIVER_SOFT_SPI
   *DEL*:           00004FH   BYTE   INSEG    CODE           ?PR?SOFT_SPI_WRITE_16BIT?ZF_DRIVER_SOFT_SPI
   *DEL*:           0000FDH   BYTE   INSEG    CODE           ?PR?SOFT_SPI_8BIT_DATA_HANDLER?ZF_DRIVER_SOFT_SPI
   *DEL*:           0000A0H   BYTE   INSEG    CODE           ?PR?SOFT_SPI_WRITE_16BIT_ARRAY?ZF_DRIVER_SOFT_SPI
   *DEL*:           00005EH   BYTE   INSEG    CODE           ?PR?SOFT_SPI_READ_8BIT_REGISTER?ZF_DRIVER_SOFT_SPI
   *DEL*:           0000F2H   BYTE   INSEG    CODE           ?PR?SOFT_SPI_TRANSFER_8BIT?ZF_DRIVER_SOFT_SPI
   *DEL*:           0000AAH   BYTE   INSEG    CODE           ?PR?SOFT_SPI_WRITE_8BIT_REGISTERS?ZF_DRIVER_SOFT_SPI
   *DEL*:           00005AH   BYTE   INSEG    CODE           ?PR?SOFT_SPI_WRITE_8BIT_REGISTER?ZF_DRIVER_SOFT_SPI
   *DEL*:           0000AEH   BYTE   INSEG    CODE           ?PR?SOFT_SPI_READ_16BIT_REGISTERS?ZF_DRIVER_SOFT_SPI
   *DEL*:           000123H   BYTE   INSEG    CODE           ?PR?SOFT_SPI_16BIT_DATA_HANDLER?ZF_DRIVER_SOFT_SPI
   *DEL*:           00006AH   BYTE   INSEG    CODE           ?PR?SOFT_SPI_READ_16BIT_REGISTER?ZF_DRIVER_SOFT_SPI
   *DEL*:           0000F4H   BYTE   INSEG    CODE           ?PR?SOFT_SPI_TRANSFER_16BIT?ZF_DRIVER_SOFT_SPI
   *DEL*:           0000A4H   BYTE   INSEG    CODE           ?PR?SOFT_SPI_WRITE_16BIT_REGISTERS?ZF_DRIVER_SOFT_SPI
   *DEL*:           000051H   BYTE   INSEG    CODE           ?PR?SOFT_SPI_READ_8BIT?ZF_DRIVER_SOFT_SPI
   *DEL*:           0000A4H   BYTE   INSEG    CODE           ?PR?SOFT_SPI_READ_8BIT_ARRAY?ZF_DRIVER_SOFT_SPI
   *DEL*:           000060H   BYTE   INSEG    CODE           ?PR?SOFT_SPI_WRITE_16BIT_REGISTER?ZF_DRIVER_SOFT_SPI
   *DEL*:           00004BH   BYTE   INSEG    CODE           ?PR?SOFT_SPI_WRITE_8BIT?ZF_DRIVER_SOFT_SPI
   *DEL*:           0000A0H   BYTE   INSEG    CODE           ?PR?SOFT_SPI_WRITE_8BIT_ARRAY?ZF_DRIVER_SOFT_SPI
   *DEL*:           000024H   BYTE   INSEG    CODE           ?PR?SOFT_SPI_DELAY?ZF_DRIVER_SOFT_SPI
   *DEL*:           000056H   BYTE   INSEG    CODE           ?PR?SOFT_SPI_READ_16BIT?ZF_DRIVER_SOFT_SPI
   *DEL*:           0000A7H   BYTE   INSEG    CODE           ?PR?SOFT_SPI_READ_16BIT_ARRAY?ZF_DRIVER_SOFT_SPI
   *DEL*:           000004H   BYTE   UNIT     XDATA          ?XD?SOFT_SPI_DELAY?ZF_DRIVER_SOFT_SPI
   *DEL*:           000003H   BYTE   UNIT     XDATA          ?XD?SOFT_SPI_8BIT_DATA_HANDLER?ZF_DRIVER_SOFT_SPI
   *DEL*:           000005H   BYTE   UNIT     XDATA          ?XD?SOFT_SPI_16BIT_DATA_HANDLER?ZF_DRIVER_SOFT_SPI
   *DEL*:           000001H   BYTE   UNIT     XDATA          ?XD?SOFT_SPI_WRITE_8BIT?ZF_DRIVER_SOFT_SPI
   *DEL*:           000008H   BYTE   UNIT     XDATA          ?XD?SOFT_SPI_WRITE_8BIT_ARRAY?ZF_DRIVER_SOFT_SPI
   *DEL*:           000002H   BYTE   UNIT     XDATA          ?XD?SOFT_SPI_WRITE_16BIT?ZF_DRIVER_SOFT_SPI
   *DEL*:           000008H   BYTE   UNIT     XDATA          ?XD?SOFT_SPI_WRITE_16BIT_ARRAY?ZF_DRIVER_SOFT_SPI
   *DEL*:           000002H   BYTE   UNIT     XDATA          ?XD?SOFT_SPI_WRITE_8BIT_REGISTER?ZF_DRIVER_SOFT_SPI
   *DEL*:           000009H   BYTE   UNIT     XDATA          ?XD?SOFT_SPI_WRITE_8BIT_REGISTERS?ZF_DRIVER_SOFT_SPI
   *DEL*:           000004H   BYTE   UNIT     XDATA          ?XD?SOFT_SPI_WRITE_16BIT_REGISTER?ZF_DRIVER_SOFT_SPI
   *DEL*:           00000AH   BYTE   UNIT     XDATA          ?XD?SOFT_SPI_WRITE_16BIT_REGISTERS?ZF_DRIVER_SOFT_SPI
   *DEL*:           000001H   BYTE   UNIT     XDATA          ?XD?SOFT_SPI_READ_8BIT?ZF_DRIVER_SOFT_SPI
   *DEL*:           000008H   BYTE   UNIT     XDATA          ?XD?SOFT_SPI_READ_8BIT_ARRAY?ZF_DRIVER_SOFT_SPI
   *DEL*:           000001H   BYTE   UNIT     XDATA          ?XD?SOFT_SPI_READ_16BIT?ZF_DRIVER_SOFT_SPI
   *DEL*:           000008H   BYTE   UNIT     XDATA          ?XD?SOFT_SPI_READ_16BIT_ARRAY?ZF_DRIVER_SOFT_SPI
   *DEL*:           000002H   BYTE   UNIT     XDATA          ?XD?SOFT_SPI_READ_8BIT_REGISTER?ZF_DRIVER_SOFT_SPI
   *DEL*:           000009H   BYTE   UNIT     XDATA          ?XD?SOFT_SPI_READ_8BIT_REGISTERS?ZF_DRIVER_SOFT_SPI
   *DEL*:           000004H   BYTE   UNIT     XDATA          ?XD?SOFT_SPI_READ_16BIT_REGISTER?ZF_DRIVER_SOFT_SPI
   *DEL*:           00000AH   BYTE   UNIT     XDATA          ?XD?SOFT_SPI_READ_16BIT_REGISTERS?ZF_DRIVER_SOFT_SPI
   *DEL*:           00000CH   BYTE   UNIT     XDATA          ?XD?SOFT_SPI_TRANSFER_8BIT?ZF_DRIVER_SOFT_SPI
   *DEL*:           00000CH   BYTE   UNIT     XDATA          ?XD?SOFT_SPI_TRANSFER_16BIT?ZF_DRIVER_SOFT_SPI
L251 LINKER/LOCATER V4.66.93.0                                                        01/14/2026  23:11:45  PAGE 10


   *DEL*:           000011H   BYTE   UNIT     XDATA          ?XD?SOFT_SPI_INIT?ZF_DRIVER_SOFT_SPI
   *DEL*:           000017H   BYTE   INSEG    CODE           ?PR?SPI_WRITE_8BIT_REGISTER?ZF_DRIVER_SPI
   *DEL*:           000077H   BYTE   INSEG    CODE           ?PR?SPI_READ_16BIT_REGISTERS?ZF_DRIVER_SPI
   *DEL*:           00002DH   BYTE   INSEG    CODE           ?PR?SPI_READ_16BIT_REGISTER?ZF_DRIVER_SPI
   *DEL*:           0000ACH   BYTE   INSEG    CODE           ?PR?SPI_TRANSFER_16BIT?ZF_DRIVER_SPI
   *DEL*:           00004EH   BYTE   INSEG    CODE           ?PR?SPI_WRITE_16BIT_REGISTERS?ZF_DRIVER_SPI
   *DEL*:           000004H   BYTE   INSEG    CODE           ?PR?SPI_READ_8BIT?ZF_DRIVER_SPI
   *DEL*:           000037H   BYTE   INSEG    CODE           ?PR?SPI_READ_8BIT_ARRAY?ZF_DRIVER_SPI
   *DEL*:           000033H   BYTE   INSEG    CODE           ?PR?SPI_WRITE_16BIT_REGISTER?ZF_DRIVER_SPI
   *DEL*:           000036H   BYTE   INSEG    CODE           ?PR?SPI_WRITE_8BIT_ARRAY?ZF_DRIVER_SPI
   *DEL*:           00001DH   BYTE   INSEG    CODE           ?PR?SPI_READ_16BIT?ZF_DRIVER_SPI
   *DEL*:           000051H   BYTE   INSEG    CODE           ?PR?SPI_READ_16BIT_ARRAY?ZF_DRIVER_SPI
   *DEL*:           000040H   BYTE   INSEG    CODE           ?PR?SPI_READ_8BIT_REGISTERS?ZF_DRIVER_SPI
   *DEL*:           000056H   BYTE   INSEG    CODE           ?PR?SPI_READ_DAT?ZF_DRIVER_SPI
   *DEL*:           000044H   BYTE   INSEG    CODE           ?PR?SPI_WRITE_16BIT_ARRAY?ZF_DRIVER_SPI
   *DEL*:           000010H   BYTE   INSEG    CODE           ?PR?SPI_READ_8BIT_REGISTER?ZF_DRIVER_SPI
   *DEL*:           000077H   BYTE   INSEG    CODE           ?PR?SPI_TRANSFER_8BIT?ZF_DRIVER_SPI
   *DEL*:           00003CH   BYTE   INSEG    CODE           ?PR?SPI_WRITE_8BIT_REGISTERS?ZF_DRIVER_SPI
   *DEL*:           000006H   BYTE   UNIT     XDATA          ?XD?SPI_WRITE_8BIT_ARRAY?ZF_DRIVER_SPI
   *DEL*:           000006H   BYTE   UNIT     XDATA          ?XD?SPI_WRITE_16BIT_ARRAY?ZF_DRIVER_SPI
   *DEL*:           000006H   BYTE   UNIT     XDATA          ?XD?SPI_WRITE_8BIT_REGISTERS?ZF_DRIVER_SPI
   *DEL*:           000002H   BYTE   UNIT     XDATA          ?XD?SPI_WRITE_16BIT_REGISTER?ZF_DRIVER_SPI
   *DEL*:           000008H   BYTE   UNIT     XDATA          ?XD?SPI_WRITE_16BIT_REGISTERS?ZF_DRIVER_SPI
   *DEL*:           000006H   BYTE   UNIT     XDATA          ?XD?SPI_READ_8BIT_ARRAY?ZF_DRIVER_SPI
   *DEL*:           000006H   BYTE   UNIT     XDATA          ?XD?SPI_READ_16BIT_ARRAY?ZF_DRIVER_SPI
   *DEL*:           000006H   BYTE   UNIT     XDATA          ?XD?SPI_READ_8BIT_REGISTERS?ZF_DRIVER_SPI
   *DEL*:           000008H   BYTE   UNIT     XDATA          ?XD?SPI_READ_16BIT_REGISTERS?ZF_DRIVER_SPI
   *DEL*:           00000AH   BYTE   UNIT     XDATA          ?XD?SPI_TRANSFER_8BIT?ZF_DRIVER_SPI
   *DEL*:           00000AH   BYTE   UNIT     XDATA          ?XD?SPI_TRANSFER_16BIT?ZF_DRIVER_SPI
   *DEL*:           00001DH   BYTE   INSEG    CODE           ?PR?UART_WRITE_STRING?ZF_DRIVER_UART
   *DEL*:           00003DH   BYTE   INSEG    CODE           ?PR?UART_READ_BYTE?ZF_DRIVER_UART
   *DEL*:           000002H   BYTE   UNIT     XDATA          ?XD?UART_WRITE_STRING?ZF_DRIVER_UART
   *DEL*:           00005CH   BYTE   INSEG    CODE           ?PR?BLE6A20_READ_BUFFER?ZF_DEVICE_BLE6A20
   *DEL*:           0000B5H   BYTE   INSEG    CODE           ?PR?BLE6A20_SEND_BUFFER?ZF_DEVICE_BLE6A20
   *DEL*:           00003FH   BYTE   INSEG    CODE           ?PR?BLE6A20_SEND_STRING?ZF_DEVICE_BLE6A20
   *DEL*:           000025H   BYTE   INSEG    CODE           ?PR?BLE6A20_CALLBACK?ZF_DEVICE_BLE6A20
   *DEL*:           000080H   BYTE   INSEG    CODE           ?PR?BLE6A20_INIT?ZF_DEVICE_BLE6A20
   *DEL*:           000044H   BYTE   INSEG    CODE           ?PR?BLE6A20_SEND_BYTE?ZF_DEVICE_BLE6A20
   *DEL*:           000008H   BYTE   UNIT     XDATA          ?XD?BLE6A20_SEND_BUFFER?ZF_DEVICE_BLE6A20
   *DEL*:           000004H   BYTE   UNIT     XDATA          ?XD?BLE6A20_SEND_STRING?ZF_DEVICE_BLE6A20
   *DEL*:           000004H   BYTE   UNIT     XDATA          ?XD?BLE6A20_READ_BUFFER?ZF_DEVICE_BLE6A20
   *DEL*:           000001H   BYTE   UNIT     XDATA          ?XD?BLE6A20_CALLBACK?ZF_DEVICE_BLE6A20
   *DEL*:           00003CH   BYTE   INSEG    CODE           ?PR?DL1A_TIMEOUT_MICROSECONDS_TO_MCLKS?ZF_DEVICE_DL1A
   *DEL*:           00003EH   BYTE   INSEG    CODE           ?PR?DL1A_TIMEOUT_MCLKS_TO_MICROSECONDS?ZF_DEVICE_DL1A
   *DEL*:           000074H   BYTE   INSEG    CODE           ?PR?DL1A_SET_SIGNAL_RATE_LIMIT?ZF_DEVICE_DL1A
   *DEL*:           000010H   BYTE   INSEG    CODE           ?PR?DL1A_DECODE_TIMEOUT?ZF_DEVICE_DL1A
   *DEL*:           000230H   BYTE   INSEG    CODE           ?PR?DL1A_GET_SPAD_INFO?ZF_DEVICE_DL1A
   *DEL*:           000034H   BYTE   INSEG    CODE           ?PR?DL1A_ENCODE_TIMEOUT?ZF_DEVICE_DL1A
   *DEL*:           000066H   BYTE   INSEG    CODE           ?PR?DL1A_GET_SEQUENCE_STEP_ENABLES?ZF_DEVICE_DL1A
   *DEL*:           0000C4H   BYTE   INSEG    CODE           ?PR?DL1A_GET_DISTANCE?ZF_DEVICE_DL1A
   *DEL*:           0000B9H   BYTE   INSEG    CODE           ?PR?DL1A_PERFORM_SINGLE_REF_CALIBRATION?ZF_DEVICE_DL1A
   *DEL*:           000128H   BYTE   INSEG    CODE           ?PR?DL1A_GET_SEQUENCE_STEP_TIMEOUTS?ZF_DEVICE_DL1A
   *DEL*:           000001H   BYTE   INSEG    CODE           ?PR?DL1A_INT_HANDLER?ZF_DEVICE_DL1A
   *DEL*:           00009DH   BYTE   INSEG    CODE           ?PR?DL1A_GET_MEASUREMENT_TIMING_BUDGET?ZF_DEVICE_DL1A
   *DEL*:           000171H   BYTE   INSEG    CODE           ?PR?DL1A_SET_MEASUREMENT_TIMING_BUDGET?ZF_DEVICE_DL1A
   *DEL*:           0004A9H   BYTE   INSEG    CODE           ?PR?DL1A_INIT?ZF_DEVICE_DL1A
   *DEL*:           000078H   BYTE   INSEG    CODE           ?PR?DL1A_GET_VCSEL_PULSE_PERIOD?ZF_DEVICE_DL1A
   *DEL*:           000008H   BYTE   UNIT     XDATA          ?XD?DL1A_GET_SPAD_INFO?ZF_DEVICE_DL1A
   *DEL*:           000001H   BYTE   UNIT     XDATA          ?XD?DL1A_GET_SEQUENCE_STEP_ENABLES?ZF_DEVICE_DL1A
   *DEL*:           000001H   BYTE   UNIT     XDATA          ?XD?DL1A_GET_VCSEL_PULSE_PERIOD?ZF_DEVICE_DL1A
   *DEL*:           000008H   BYTE   UNIT     XDATA          ?XD?DL1A_GET_SEQUENCE_STEP_TIMEOUTS?ZF_DEVICE_DL1A
   *DEL*:           000003H   BYTE   UNIT     XDATA          ?XD?DL1A_PERFORM_SINGLE_REF_CALIBRATION?ZF_DEVICE_DL1A
   *DEL*:           000025H   BYTE   UNIT     XDATA          ?XD?DL1A_SET_MEASUREMENT_TIMING_BUDGET?ZF_DEVICE_DL1A
   *DEL*:           00001BH   BYTE   UNIT     XDATA          ?XD?DL1A_GET_MEASUREMENT_TIMING_BUDGET?ZF_DEVICE_DL1A
   *DEL*:           000003H   BYTE   UNIT     XDATA          ?XD?DL1A_SET_SIGNAL_RATE_LIMIT?ZF_DEVICE_DL1A
L251 LINKER/LOCATER V4.66.93.0                                                        01/14/2026  23:11:45  PAGE 11


   *DEL*:           000003H   BYTE   UNIT     XDATA          ?XD?DL1A_GET_DISTANCE?ZF_DEVICE_DL1A
   *DEL*:           0000CAH   BYTE   UNIT     XDATA          ?XD?DL1A_INIT?ZF_DEVICE_DL1A
   *DEL*:           000194H   BYTE   INSEG    CODE           ?PR?DL1B_GET_DISTANCE?ZF_DEVICE_DL1B
   *DEL*:           000001H   BYTE   INSEG    CODE           ?PR?DL1B_INT_HANDLER?ZF_DEVICE_DL1B
   *DEL*:           000002H   BYTE   INSEG    CODE           ?PR?DL1B_INIT?ZF_DEVICE_DL1B
   *DEL*:           000003H   BYTE   UNIT     XDATA          ?XD?DL1B_GET_DISTANCE?ZF_DEVICE_DL1B
   *DEL*:           00004FH   BYTE   INSEG    CODE           ?PR?GET_DOUBLE_NUMBER?ZF_DEVICE_GPS_TAU1201
   *DEL*:           00004FH   BYTE   INSEG    CODE           ?PR?GET_FLOAT_NUMBER?ZF_DEVICE_GPS_TAU1201
   *DEL*:           0000B0H   BYTE   INSEG    CODE           ?PR?UTC_TO_BTC?ZF_DEVICE_GPS_TAU1201
   *DEL*:           00010AH   BYTE   INSEG    CODE           ?PR?GET_TWO_POINTS_DISTANCE?ZF_DEVICE_GPS_TAU1201
   *DEL*:           0000C5H   BYTE   INSEG    CODE           ?PR?GPS_GNGGA_PARSE?ZF_DEVICE_GPS_TAU1201
   *DEL*:           0002E0H   BYTE   INSEG    CODE           ?PR?GPS_GNRMC_PARSE?ZF_DEVICE_GPS_TAU1201
   *DEL*:           000185H   BYTE   INSEG    CODE           ?PR?GPS_DATA_PARSE?ZF_DEVICE_GPS_TAU1201
   *DEL*:           00004FH   BYTE   INSEG    CODE           ?PR?GET_INT_NUMBER?ZF_DEVICE_GPS_TAU1201
   *DEL*:           0002ABH   BYTE   INSEG    CODE           ?PR?GPS_INIT?ZF_DEVICE_GPS_TAU1201
   *DEL*:           000071H   BYTE   INSEG    CODE           ?PR?GET_PARAMETER_INDEX?ZF_DEVICE_GPS_TAU1201
   *DEL*:           0002AEH   BYTE   INSEG    CODE           ?PR?GET_TWO_POINTS_AZIMUTH?ZF_DEVICE_GPS_TAU1201
   *DEL*:           000181H   BYTE   INSEG    CODE           ?PR?GPS_UART_CALLBACK?ZF_DEVICE_GPS_TAU1201
   *DEL*:           000003H   BYTE   UNIT     XDATA          ?XD?GET_PARAMETER_INDEX?ZF_DEVICE_GPS_TAU1201
   *DEL*:           00000BH   BYTE   UNIT     XDATA          ?XD?GET_INT_NUMBER?ZF_DEVICE_GPS_TAU1201
   *DEL*:           000010H   BYTE   UNIT     XDATA          ?XD?GET_FLOAT_NUMBER?ZF_DEVICE_GPS_TAU1201
   *DEL*:           000010H   BYTE   UNIT     XDATA          ?XD?GET_DOUBLE_NUMBER?ZF_DEVICE_GPS_TAU1201
   *DEL*:           000009H   BYTE   UNIT     XDATA          ?XD?GPS_GNRMC_PARSE?ZF_DEVICE_GPS_TAU1201
   *DEL*:           000009H   BYTE   UNIT     XDATA          ?XD?GPS_GNGGA_PARSE?ZF_DEVICE_GPS_TAU1201
   *DEL*:           000014H   BYTE   UNIT     XDATA          ?XD?GET_TWO_POINTS_DISTANCE?ZF_DEVICE_GPS_TAU1201
   *DEL*:           00001CH   BYTE   UNIT     XDATA          ?XD?GET_TWO_POINTS_AZIMUTH?ZF_DEVICE_GPS_TAU1201
   *DEL*:           000008H   BYTE   UNIT     XDATA          ?XD?GPS_DATA_PARSE?ZF_DEVICE_GPS_TAU1201
   *DEL*:           00000BH   BYTE   UNIT     XDATA          ?XD?GPS_UART_CALLBACK?ZF_DEVICE_GPS_TAU1201
   *DEL*:           000095H   BYTE   UNIT     XDATA          ?XD?GPS_INIT?ZF_DEVICE_GPS_TAU1201
   *DEL*:           000016H   BYTE   INSEG    CODE           ?PR?ICM20602_READ_REGISTER?ZF_DEVICE_ICM20602
   *DEL*:           000008H   BYTE   INSEG    CODE           ?PR?ICM20602_WRITE_REGISTER?ZF_DEVICE_ICM20602
   *DEL*:           00001FH   BYTE   INSEG    CODE           ?PR?ICM20602_SIMSPI_WR_BYTE?ZF_DEVICE_ICM20602
   *DEL*:           00002DH   BYTE   INSEG    CODE           ?PR?ICM20602_SELF_CHECK?ZF_DEVICE_ICM20602
   *DEL*:           00003FH   BYTE   INSEG    CODE           ?PR?ICM20602_SIMSPI_R_REG_BYTES?ZF_DEVICE_ICM20602
   *DEL*:           000018H   BYTE   INSEG    CODE           ?PR?ICM20602_SIMSPI_R_REG_BYTE?ZF_DEVICE_ICM20602
   *DEL*:           00000FH   BYTE   INSEG    CODE           ?PR?ICM20602_SIMSPI_W_REG_BYTE?ZF_DEVICE_ICM20602
   *DEL*:           0000C5H   BYTE   INSEG    CODE           ?PR?ICM20602_INIT?ZF_DEVICE_ICM20602
   *DEL*:           000050H   BYTE   INSEG    CODE           ?PR?ICM20602_GET_ACC?ZF_DEVICE_ICM20602
   *DEL*:           000010H   BYTE   INSEG    CODE           ?PR?ICM20602_READ_REGISTERS?ZF_DEVICE_ICM20602
   *DEL*:           000050H   BYTE   INSEG    CODE           ?PR?ICM20602_GET_GYRO?ZF_DEVICE_ICM20602
   *DEL*:           000004H   BYTE   UNIT     XDATA          ?XD?ICM20602_SIMSPI_R_REG_BYTES?ZF_DEVICE_ICM20602
   *DEL*:           000001H   BYTE   UNIT     XDATA          ?XD?ICM20602_READ_REGISTER?ZF_DEVICE_ICM20602
   *DEL*:           000006H   BYTE   UNIT     XDATA          ?XD?ICM20602_GET_ACC?ZF_DEVICE_ICM20602
   *DEL*:           000006H   BYTE   UNIT     XDATA          ?XD?ICM20602_GET_GYRO?ZF_DEVICE_ICM20602
   *DEL*:           000050H   BYTE   INSEG    CODE           ?PR?IMU660RA_GET_GYRO?ZF_DEVICE_IMU660RA
   *DEL*:           00001AH   BYTE   INSEG    CODE           ?PR?IMU660RA_READ_REGISTER?ZF_DEVICE_IMU660RA
   *DEL*:           00000EH   BYTE   INSEG    CODE           ?PR?IMU660RA_WRITE_REGISTERS?ZF_DEVICE_IMU660RA
   *DEL*:           000008H   BYTE   INSEG    CODE           ?PR?IMU660RA_WRITE_REGISTER?ZF_DEVICE_IMU660RA
   *DEL*:           000021H   BYTE   INSEG    CODE           ?PR?IMU660RA_SIMSPI_WR_BYTE?ZF_DEVICE_IMU660RA
   *DEL*:           00003FH   BYTE   INSEG    CODE           ?PR?IMU660RA_SELF_CHECK?ZF_DEVICE_IMU660RA
   *DEL*:           00003FH   BYTE   INSEG    CODE           ?PR?IMU660RA_SIMSPI_R_REG_BYTES?ZF_DEVICE_IMU660RA
   *DEL*:           000034H   BYTE   INSEG    CODE           ?PR?IMU660RA_SIMSPI_W_REG_BYTES?ZF_DEVICE_IMU660RA
   *DEL*:           00000FH   BYTE   INSEG    CODE           ?PR?IMU660RA_SIMSPI_W_REG_BYTE?ZF_DEVICE_IMU660RA
   *DEL*:           0000B9H   BYTE   INSEG    CODE           ?PR?IMU660RA_INIT?ZF_DEVICE_IMU660RA
   *DEL*:           000050H   BYTE   INSEG    CODE           ?PR?IMU660RA_GET_ACC?ZF_DEVICE_IMU660RA
   *DEL*:           000073H   BYTE   INSEG    CODE           ?PR?IMU660RA_READ_REGISTERS?ZF_DEVICE_IMU660RA
   *DEL*:           000004H   BYTE   UNIT     XDATA          ?XD?IMU660RA_SIMSPI_W_REG_BYTES?ZF_DEVICE_IMU660RA
   *DEL*:           000004H   BYTE   UNIT     XDATA          ?XD?IMU660RA_SIMSPI_R_REG_BYTES?ZF_DEVICE_IMU660RA
   *DEL*:           000002H   BYTE   UNIT     XDATA          ?XD?IMU660RA_READ_REGISTER?ZF_DEVICE_IMU660RA
   *DEL*:           00000EH   BYTE   UNIT     XDATA          ?XD?IMU660RA_READ_REGISTERS?ZF_DEVICE_IMU660RA
   *DEL*:           000006H   BYTE   UNIT     XDATA          ?XD?IMU660RA_GET_ACC?ZF_DEVICE_IMU660RA
   *DEL*:           000006H   BYTE   UNIT     XDATA          ?XD?IMU660RA_GET_GYRO?ZF_DEVICE_IMU660RA
   *DEL*:           000050H   BYTE   INSEG    CODE           ?PR?IMU963RA_GET_GYRO?ZF_DEVICE_IMU963RA
   *DEL*:           000021H   BYTE   INSEG    CODE           ?PR?IMU963RA_SIMSPI_WR_BYTE?ZF_DEVICE_IMU963RA
   *DEL*:           000052H   BYTE   INSEG    CODE           ?PR?IMU963RA_READ_MAG_REGISTER?ZF_DEVICE_IMU963RA
L251 LINKER/LOCATER V4.66.93.0                                                        01/14/2026  23:11:45  PAGE 12


   *DEL*:           00002CH   BYTE   INSEG    CODE           ?PR?IMU963RA_CONNECT_MAG?ZF_DEVICE_IMU963RA
   *DEL*:           000010H   BYTE   INSEG    CODE           ?PR?IMU963RA_READ_ACC_GYRO_REGISTERS?ZF_DEVICE_IMU963RA
   *DEL*:           000064H   BYTE   INSEG    CODE           ?PR?IMU963RA_WRITE_MAG_REGISTER?ZF_DEVICE_IMU963RA
   *DEL*:           00001FH   BYTE   INSEG    CODE           ?PR?IMU963RA_READ_ACC_GYRO_REGISTER?ZF_DEVICE_IMU963RA
   *DEL*:           00003FH   BYTE   INSEG    CODE           ?PR?IMU963RA_SIMSPI_R_REG_BYTES?ZF_DEVICE_IMU963RA
   *DEL*:           00001CH   BYTE   INSEG    CODE           ?PR?IMU963RA_SIMSPI_R_REG_BYTE?ZF_DEVICE_IMU963RA
   *DEL*:           000030H   BYTE   INSEG    CODE           ?PR?IMU963RA_MAG_SELF_CHECK?ZF_DEVICE_IMU963RA
   *DEL*:           000008H   BYTE   INSEG    CODE           ?PR?IMU963RA_WRITE_ACC_GYRO_REGISTER?ZF_DEVICE_IMU963RA
   *DEL*:           000013H   BYTE   INSEG    CODE           ?PR?IMU963RA_SIMSPI_W_REG_BYTE?ZF_DEVICE_IMU963RA
   *DEL*:           000140H   BYTE   INSEG    CODE           ?PR?IMU963RA_INIT?ZF_DEVICE_IMU963RA
   *DEL*:           000040H   BYTE   INSEG    CODE           ?PR?IMU963RA_ACC_GYRO_SELF_CHECK?ZF_DEVICE_IMU963RA
   *DEL*:           000050H   BYTE   INSEG    CODE           ?PR?IMU963RA_GET_ACC?ZF_DEVICE_IMU963RA
   *DEL*:           000066H   BYTE   INSEG    CODE           ?PR?IMU963RA_GET_MAG?ZF_DEVICE_IMU963RA
   *DEL*:           000004H   BYTE   UNIT     XDATA          ?XD?IMU963RA_SIMSPI_R_REG_BYTES?ZF_DEVICE_IMU963RA
   *DEL*:           000001H   BYTE   UNIT     XDATA          ?XD?IMU963RA_READ_ACC_GYRO_REGISTER?ZF_DEVICE_IMU963RA
   *DEL*:           000002H   BYTE   UNIT     XDATA          ?XD?IMU963RA_WRITE_MAG_REGISTER?ZF_DEVICE_IMU963RA
   *DEL*:           000006H   BYTE   UNIT     XDATA          ?XD?IMU963RA_GET_ACC?ZF_DEVICE_IMU963RA
   *DEL*:           000006H   BYTE   UNIT     XDATA          ?XD?IMU963RA_GET_GYRO?ZF_DEVICE_IMU963RA
   *DEL*:           000006H   BYTE   UNIT     XDATA          ?XD?IMU963RA_GET_MAG?ZF_DEVICE_IMU963RA
   *DEL*:           00017EH   BYTE   INSEG    CODE           ?PR?IPS114_SHOW_FLOAT?ZF_DEVICE_IPS114
   *DEL*:           000063H   BYTE   INSEG    CODE           ?PR?IPS114_DRAW_POINT?ZF_DEVICE_IPS114
   *DEL*:           0000A5H   BYTE   INSEG    CODE           ?PR?IPS114_SHOW_STRING?ZF_DEVICE_IPS114
   *DEL*:           0000CEH   BYTE   INSEG    CODE           ?PR?IPS114_SHOW_CHAR?ZF_DEVICE_IPS114
   *DEL*:           0000CEH   BYTE   INSEG    CODE           ?PR?IPS114_SHOW_UINT16?ZF_DEVICE_IPS114
   *DEL*:           00000DH   BYTE   INSEG    CODE           ?PR?IPS114_SET_COLOR?ZF_DEVICE_IPS114
   *DEL*:           000102H   BYTE   INSEG    CODE           ?PR?IPS114_SHOW_INT32?ZF_DEVICE_IPS114
   *DEL*:           000119H   BYTE   INSEG    CODE           ?PR?IPS114_SHOW_INT16?ZF_DEVICE_IPS114
   *DEL*:           0001A6H   BYTE   INSEG    CODE           ?PR?IPS114_SHOW_WAVE?ZF_DEVICE_IPS114
   *DEL*:           000023H   BYTE   INSEG    CODE           ?PR?IPS114_SET_DIR?ZF_DEVICE_IPS114
   *DEL*:           00019FH   BYTE   INSEG    CODE           ?PR?IPS114_SHOW_CHINESE?ZF_DEVICE_IPS114
   *DEL*:           000059H   BYTE   INSEG    CODE           ?PR?IPS114_CLEAR?ZF_DEVICE_IPS114
   *DEL*:           0000BAH   BYTE   INSEG    CODE           ?PR?IPS114_SHOW_UINT8?ZF_DEVICE_IPS114
   *DEL*:           0000E5H   BYTE   INSEG    CODE           ?PR?IPS114_SHOW_INT8?ZF_DEVICE_IPS114
   *DEL*:           000014H   BYTE   INSEG    CODE           ?PR?IPS114_WRITE_INDEX?ZF_DEVICE_IPS114
   *DEL*:           0001B3H   BYTE   INSEG    CODE           ?PR?IPS114_SET_REGION?ZF_DEVICE_IPS114
   *DEL*:           0002A5H   BYTE   INSEG    CODE           ?PR?IPS114_INIT?ZF_DEVICE_IPS114
   *DEL*:           000004H   BYTE   UNIT     XDATA          ?XD?IPS114_SET_REGION?ZF_DEVICE_IPS114
   *DEL*:           000002H   BYTE   UNIT     XDATA          ?XD?IPS114_CLEAR?ZF_DEVICE_IPS114
   *DEL*:           000002H   BYTE   UNIT     XDATA          ?XD?IPS114_DRAW_POINT?ZF_DEVICE_IPS114
   *DEL*:           000004H   BYTE   UNIT     XDATA          ?XD?IPS114_SHOW_CHAR?ZF_DEVICE_IPS114
   *DEL*:           000006H   BYTE   UNIT     XDATA          ?XD?IPS114_SHOW_STRING?ZF_DEVICE_IPS114
   *DEL*:           000005H   BYTE   UNIT     XDATA          ?XD?IPS114_SHOW_INT8?ZF_DEVICE_IPS114
   *DEL*:           000005H   BYTE   UNIT     XDATA          ?XD?IPS114_SHOW_UINT8?ZF_DEVICE_IPS114
   *DEL*:           000008H   BYTE   UNIT     XDATA          ?XD?IPS114_SHOW_INT16?ZF_DEVICE_IPS114
   *DEL*:           000008H   BYTE   UNIT     XDATA          ?XD?IPS114_SHOW_UINT16?ZF_DEVICE_IPS114
   *DEL*:           000028H   BYTE   UNIT     XDATA          ?XD?IPS114_SHOW_INT32?ZF_DEVICE_IPS114
   *DEL*:           00002BH   BYTE   UNIT     XDATA          ?XD?IPS114_SHOW_FLOAT?ZF_DEVICE_IPS114
   *DEL*:           00001CH   BYTE   UNIT     XDATA          ?XD?IPS114_SHOW_WAVE?ZF_DEVICE_IPS114
   *DEL*:           000015H   BYTE   UNIT     XDATA          ?XD?IPS114_SHOW_CHINESE?ZF_DEVICE_IPS114
   *DEL*:           00017EH   BYTE   INSEG    CODE           ?PR?IPS200_SHOW_FLOAT?ZF_DEVICE_IPS200
   *DEL*:           000063H   BYTE   INSEG    CODE           ?PR?IPS200_DRAW_POINT?ZF_DEVICE_IPS200
   *DEL*:           0000A5H   BYTE   INSEG    CODE           ?PR?IPS200_SHOW_STRING?ZF_DEVICE_IPS200
   *DEL*:           0000CEH   BYTE   INSEG    CODE           ?PR?IPS200_SHOW_CHAR?ZF_DEVICE_IPS200
   *DEL*:           0000CEH   BYTE   INSEG    CODE           ?PR?IPS200_SHOW_UINT16?ZF_DEVICE_IPS200
   *DEL*:           00000DH   BYTE   INSEG    CODE           ?PR?IPS200_SET_COLOR?ZF_DEVICE_IPS200
   *DEL*:           000102H   BYTE   INSEG    CODE           ?PR?IPS200_SHOW_INT32?ZF_DEVICE_IPS200
   *DEL*:           000119H   BYTE   INSEG    CODE           ?PR?IPS200_SHOW_INT16?ZF_DEVICE_IPS200
   *DEL*:           0001A6H   BYTE   INSEG    CODE           ?PR?IPS200_SHOW_WAVE?ZF_DEVICE_IPS200
   *DEL*:           000007H   BYTE   INSEG    CODE           ?PR?IPS200_SET_DIR?ZF_DEVICE_IPS200
   *DEL*:           00019FH   BYTE   INSEG    CODE           ?PR?IPS200_SHOW_CHINESE?ZF_DEVICE_IPS200
   *DEL*:           000059H   BYTE   INSEG    CODE           ?PR?IPS200_CLEAR?ZF_DEVICE_IPS200
   *DEL*:           0000BAH   BYTE   INSEG    CODE           ?PR?IPS200_SHOW_UINT8?ZF_DEVICE_IPS200
   *DEL*:           0000E5H   BYTE   INSEG    CODE           ?PR?IPS200_SHOW_INT8?ZF_DEVICE_IPS200
   *DEL*:           000014H   BYTE   INSEG    CODE           ?PR?IPS200_WRITE_INDEX?ZF_DEVICE_IPS200
   *DEL*:           0000D4H   BYTE   INSEG    CODE           ?PR?IPS200_SET_REGION?ZF_DEVICE_IPS200
L251 LINKER/LOCATER V4.66.93.0                                                        01/14/2026  23:11:45  PAGE 13


   *DEL*:           0002A5H   BYTE   INSEG    CODE           ?PR?IPS200_INIT?ZF_DEVICE_IPS200
   *DEL*:           000004H   BYTE   UNIT     XDATA          ?XD?IPS200_SET_REGION?ZF_DEVICE_IPS200
   *DEL*:           000002H   BYTE   UNIT     XDATA          ?XD?IPS200_CLEAR?ZF_DEVICE_IPS200
   *DEL*:           000002H   BYTE   UNIT     XDATA          ?XD?IPS200_DRAW_POINT?ZF_DEVICE_IPS200
   *DEL*:           000004H   BYTE   UNIT     XDATA          ?XD?IPS200_SHOW_CHAR?ZF_DEVICE_IPS200
   *DEL*:           000006H   BYTE   UNIT     XDATA          ?XD?IPS200_SHOW_STRING?ZF_DEVICE_IPS200
   *DEL*:           000005H   BYTE   UNIT     XDATA          ?XD?IPS200_SHOW_INT8?ZF_DEVICE_IPS200
   *DEL*:           000005H   BYTE   UNIT     XDATA          ?XD?IPS200_SHOW_UINT8?ZF_DEVICE_IPS200
   *DEL*:           000008H   BYTE   UNIT     XDATA          ?XD?IPS200_SHOW_INT16?ZF_DEVICE_IPS200
   *DEL*:           000008H   BYTE   UNIT     XDATA          ?XD?IPS200_SHOW_UINT16?ZF_DEVICE_IPS200
   *DEL*:           000028H   BYTE   UNIT     XDATA          ?XD?IPS200_SHOW_INT32?ZF_DEVICE_IPS200
   *DEL*:           00002BH   BYTE   UNIT     XDATA          ?XD?IPS200_SHOW_FLOAT?ZF_DEVICE_IPS200
   *DEL*:           00001CH   BYTE   UNIT     XDATA          ?XD?IPS200_SHOW_WAVE?ZF_DEVICE_IPS200
   *DEL*:           000015H   BYTE   UNIT     XDATA          ?XD?IPS200_SHOW_CHINESE?ZF_DEVICE_IPS200
   *DEL*:           00004BH   BYTE   INSEG    CODE           ?PR?IPS200PRO_PROGRESS_BAR_CREATE?ZF_DEVICE_IPS200PRO
   *DEL*:           000040H   BYTE   INSEG    CODE           ?PR?IPS200PRO_SET_CRC_STATE?ZF_DEVICE_IPS200PRO
   *DEL*:           00004BH   BYTE   INSEG    CODE           ?PR?IPS200PRO_TABLE_SELECT?ZF_DEVICE_IPS200PRO
   *DEL*:           000013H   BYTE   INSEG    CODE           ?PR?IPS200PRO_PAGE_HIDDEN?ZF_DEVICE_IPS200PRO
   *DEL*:           00003EH   BYTE   INSEG    CODE           ?PR?IPS200PRO_SET_DIRECTION?ZF_DEVICE_IPS200PRO
   *DEL*:           000067H   BYTE   INSEG    CODE           ?PR?IPS200PRO_PAGE_CREATE?ZF_DEVICE_IPS200PRO
   *DEL*:           00007BH   BYTE   INSEG    CODE           ?PR?IPS200PRO_WAVEFORM_ADD_VALUE?ZF_DEVICE_IPS200PRO
   *DEL*:           00004BH   BYTE   INSEG    CODE           ?PR?IPS200PRO_METER_CREATE?ZF_DEVICE_IPS200PRO
   *DEL*:           0000AAH   BYTE   INSEG    CODE           ?PR?IPS200PRO_LABEL_PRINTF?ZF_DEVICE_IPS200PRO
   *DEL*:           000047H   BYTE   INSEG    CODE           ?PR?IPS200PRO_WAVEFORM_LINE_STATE?ZF_DEVICE_IPS200PRO
   *DEL*:           0000E1H   BYTE   INSEG    CODE           ?PR?IPS200PRO_TABLE_CELL_PRINTF?ZF_DEVICE_IPS200PRO
   *DEL*:           0000FEH   BYTE   INSEG    CODE           ?PR?IPS200PRO_WRITE_PACKET?ZF_DEVICE_IPS200PRO
   *DEL*:           000080H   BYTE   INSEG    CODE           ?PR?IPS200PRO_SEND_BUFFER?ZF_DEVICE_IPS200PRO
   *DEL*:           000041H   BYTE   INSEG    CODE           ?PR?IPS200PRO_LABEL_MODE?ZF_DEVICE_IPS200PRO
   *DEL*:           00003FH   BYTE   INSEG    CODE           ?PR?IPS200PRO_PAGE_SWITCH?ZF_DEVICE_IPS200PRO
   *DEL*:           000020H   BYTE   INSEG    CODE           ?PR?IPS200PRO_CALENDAR_CREATE?ZF_DEVICE_IPS200PRO
   *DEL*:           00005BH   BYTE   INSEG    CODE           ?PR?IPS200PRO_CALENDAR_DISPLAY?ZF_DEVICE_IPS200PRO
   *DEL*:           000043H   BYTE   INSEG    CODE           ?PR?IPS200PRO_WAVEFORM_LINE_TYPE?ZF_DEVICE_IPS200PRO
   *DEL*:           000041H   BYTE   INSEG    CODE           ?PR?IPS200PRO_SET_HIDDEN?ZF_DEVICE_IPS200PRO
   *DEL*:           00004BH   BYTE   INSEG    CODE           ?PR?IPS200PRO_CONTAINER_CREATE?ZF_DEVICE_IPS200PRO
   *DEL*:           0000A8H   BYTE   INSEG    CODE           ?PR?IPS200PRO_IMAGE_DRAW_LINE?ZF_DEVICE_IPS200PRO
   *DEL*:           000061H   BYTE   INSEG    CODE           ?PR?IPS200PRO_LABEL_SHOW_STRING?ZF_DEVICE_IPS200PRO
   *DEL*:           000040H   BYTE   INSEG    CODE           ?PR?IPS200PRO_SET_OPTIMIZE?ZF_DEVICE_IPS200PRO
   *DEL*:           000047H   BYTE   INSEG    CODE           ?PR?IPS200PRO_SET_POSITION?ZF_DEVICE_IPS200PRO
   *DEL*:           00003EH   BYTE   INSEG    CODE           ?PR?IPS200PRO_SET_DEFAULT_FONT?ZF_DEVICE_IPS200PRO
   *DEL*:           000047H   BYTE   INSEG    CODE           ?PR?IPS200PRO_PAGE_SET_TITLE_POSITION_WIDTH?ZF_DEVICE_IPS2
                                                             -00PRO
   *DEL*:           000080H   BYTE   INSEG    CODE           ?PR?IPS200PRO_IMAGE_DRAW_RECTANGLE?ZF_DEVICE_IPS200PRO
   *DEL*:           0000D5H   BYTE   INSEG    CODE           ?PR?IPS200PRO_INIT?ZF_DEVICE_IPS200PRO
   *DEL*:           000047H   BYTE   INSEG    CODE           ?PR?IPS200PRO_CONTAINER_RADIUS?ZF_DEVICE_IPS200PRO
   *DEL*:           000031H   BYTE   INSEG    CODE           ?PR?IPS200PRO_WAIT_IDLE?ZF_DEVICE_IPS200PRO
   *DEL*:           00003EH   BYTE   INSEG    CODE           ?PR?IPS200PRO_SET_FORMAT?ZF_DEVICE_IPS200PRO
   *DEL*:           000044H   BYTE   INSEG    CODE           ?PR?IPS200PRO_SET_PARENT?ZF_DEVICE_IPS200PRO
   *DEL*:           00004BH   BYTE   INSEG    CODE           ?PR?IPS200PRO_PROGRESS_BAR_SET_VALUE?ZF_DEVICE_IPS200PRO
   *DEL*:           000037H   BYTE   INSEG    CODE           ?PR?IPS200PRO_GET_DATE?ZF_DEVICE_IPS200PRO
   *DEL*:           00004BH   BYTE   INSEG    CODE           ?PR?IPS200PRO_WAVEFORM_CREATE?ZF_DEVICE_IPS200PRO
   *DEL*:           000056H   BYTE   INSEG    CODE           ?PR?IPS200PRO_READ_PARAMETER?ZF_DEVICE_IPS200PRO
   *DEL*:           000083H   BYTE   INSEG    CODE           ?PR?IPS200PRO_RECEIVE_BUFFER?ZF_DEVICE_IPS200PRO
   *DEL*:           000056H   BYTE   INSEG    CODE           ?PR?IPS200PRO_SET_DATE?ZF_DEVICE_IPS200PRO
   *DEL*:           000041H   BYTE   INSEG    CODE           ?PR?IPS200PRO_METER_SET_VALUE?ZF_DEVICE_IPS200PRO
   *DEL*:           000047H   BYTE   INSEG    CODE           ?PR?IPS200PRO_SET_COLOR?ZF_DEVICE_IPS200PRO
   *DEL*:           00003FH   BYTE   INSEG    CODE           ?PR?IPS200PRO_GET_INFORMATION?ZF_DEVICE_IPS200PRO
   *DEL*:           000039H   BYTE   INSEG    CODE           ?PR?IPS200PRO_DELETE_WIDGETS?ZF_DEVICE_IPS200PRO
   *DEL*:           000039H   BYTE   INSEG    CODE           ?PR?IPS200PRO_GET_TIME?ZF_DEVICE_IPS200PRO
   *DEL*:           000073H   BYTE   INSEG    CODE           ?PR?IPS200PRO_CREATE_WIDGETS?ZF_DEVICE_IPS200PRO
   *DEL*:           00003BH   BYTE   INSEG    CODE           ?PR?IPS200PRO_WAVEFORM_CLEAR?ZF_DEVICE_IPS200PRO
   *DEL*:           00004FH   BYTE   INSEG    CODE           ?PR?IPS200PRO_PAGE_SET_TITLE_NAME?ZF_DEVICE_IPS200PRO
   *DEL*:           00004BH   BYTE   INSEG    CODE           ?PR?IPS200PRO_LABEL_CREATE?ZF_DEVICE_IPS200PRO
   *DEL*:           000049H   BYTE   INSEG    CODE           ?PR?IPS200PRO_TABLE_SET_COL_WIDTH?ZF_DEVICE_IPS200PRO
   *DEL*:           000040H   BYTE   INSEG    CODE           ?PR?IPS200PRO_SET_BACKLIGHT?ZF_DEVICE_IPS200PRO
   *DEL*:           00004BH   BYTE   INSEG    CODE           ?PR?IPS200PRO_IMAGE_CREATE?ZF_DEVICE_IPS200PRO
L251 LINKER/LOCATER V4.66.93.0                                                        01/14/2026  23:11:45  PAGE 14


   *DEL*:           000030H   BYTE   INSEG    CODE           ?PR?IPS200PRO_GET_FREE_STACK_SIZE?ZF_DEVICE_IPS200PRO
   *DEL*:           000068H   BYTE   INSEG    CODE           ?PR?IPS200PRO_SET_TIME?ZF_DEVICE_IPS200PRO
   *DEL*:           000149H   BYTE   INSEG    CODE           ?PR?IPS200PRO_IMAGE_DISPLAY?ZF_DEVICE_IPS200PRO
   *DEL*:           00004BH   BYTE   INSEG    CODE           ?PR?IPS200PRO_TABLE_CREATE?ZF_DEVICE_IPS200PRO
   *DEL*:           00004BH   BYTE   INSEG    CODE           ?PR?IPS200PRO_CLOCK_CREATE?ZF_DEVICE_IPS200PRO
   *DEL*:           00003FH   BYTE   INSEG    CODE           ?PR?IPS200PRO_SET_FONT?ZF_DEVICE_IPS200PRO
   *DEL*:           00000AH   BYTE   UNIT     XDATA          ?XD?IPS200PRO_SEND_BUFFER?ZF_DEVICE_IPS200PRO
   *DEL*:           000009H   BYTE   UNIT     XDATA          ?XD?IPS200PRO_RECEIVE_BUFFER?ZF_DEVICE_IPS200PRO
   *DEL*:           00000CH   BYTE   UNIT     XDATA          ?XD?IPS200PRO_WRITE_PACKET?ZF_DEVICE_IPS200PRO
   *DEL*:           000001H   BYTE   UNIT     XDATA          ?XD?IPS200PRO_READ_PARAMETER?ZF_DEVICE_IPS200PRO
   *DEL*:           00000CH   BYTE   UNIT     XDATA          ?XD?IPS200PRO_SET_DATE?ZF_DEVICE_IPS200PRO
   *DEL*:           00000CH   BYTE   UNIT     XDATA          ?XD?IPS200PRO_SET_TIME?ZF_DEVICE_IPS200PRO
   *DEL*:           00000CH   BYTE   UNIT     XDATA          ?XD?IPS200PRO_SET_PARENT?ZF_DEVICE_IPS200PRO
   *DEL*:           00000AH   BYTE   UNIT     XDATA          ?XD?IPS200PRO_SET_FORMAT?ZF_DEVICE_IPS200PRO
   *DEL*:           00000AH   BYTE   UNIT     XDATA          ?XD?IPS200PRO_SET_BACKLIGHT?ZF_DEVICE_IPS200PRO
   *DEL*:           00000AH   BYTE   UNIT     XDATA          ?XD?IPS200PRO_SET_DIRECTION?ZF_DEVICE_IPS200PRO
   *DEL*:           00000AH   BYTE   UNIT     XDATA          ?XD?IPS200PRO_SET_CRC_STATE?ZF_DEVICE_IPS200PRO
   *DEL*:           00000AH   BYTE   UNIT     XDATA          ?XD?IPS200PRO_SET_DEFAULT_FONT?ZF_DEVICE_IPS200PRO
   *DEL*:           00000AH   BYTE   UNIT     XDATA          ?XD?IPS200PRO_SET_OPTIMIZE?ZF_DEVICE_IPS200PRO
   *DEL*:           00000DH   BYTE   UNIT     XDATA          ?XD?IPS200PRO_GET_DATE?ZF_DEVICE_IPS200PRO
   *DEL*:           00000DH   BYTE   UNIT     XDATA          ?XD?IPS200PRO_GET_TIME?ZF_DEVICE_IPS200PRO
   *DEL*:           000011H   BYTE   UNIT     XDATA          ?XD?IPS200PRO_GET_INFORMATION?ZF_DEVICE_IPS200PRO
   *DEL*:           00000CH   BYTE   UNIT     XDATA          ?XD?IPS200PRO_GET_FREE_STACK_SIZE?ZF_DEVICE_IPS200PRO
   *DEL*:           000012H   BYTE   UNIT     XDATA          ?XD?IPS200PRO_CREATE_WIDGETS?ZF_DEVICE_IPS200PRO
   *DEL*:           000008H   BYTE   UNIT     XDATA          ?XD?IPS200PRO_DELETE_WIDGETS?ZF_DEVICE_IPS200PRO
   *DEL*:           00000AH   BYTE   UNIT     XDATA          ?XD?IPS200PRO_SET_FONT?ZF_DEVICE_IPS200PRO
   *DEL*:           00000CH   BYTE   UNIT     XDATA          ?XD?IPS200PRO_SET_COLOR?ZF_DEVICE_IPS200PRO
   *DEL*:           00000CH   BYTE   UNIT     XDATA          ?XD?IPS200PRO_SET_POSITION?ZF_DEVICE_IPS200PRO
   *DEL*:           00000AH   BYTE   UNIT     XDATA          ?XD?IPS200PRO_SET_HIDDEN?ZF_DEVICE_IPS200PRO
   *DEL*:           000001H   BYTE   UNIT     XDATA          ?XD?IPS200PRO_PAGE_CREATE?ZF_DEVICE_IPS200PRO
   *DEL*:           00000AH   BYTE   UNIT     XDATA          ?XD?IPS200PRO_PAGE_SWITCH?ZF_DEVICE_IPS200PRO
   *DEL*:           00000AH   BYTE   UNIT     XDATA          ?XD?IPS200PRO_PAGE_SET_TITLE_NAME?ZF_DEVICE_IPS200PRO
   *DEL*:           00000CH   BYTE   UNIT     XDATA          ?XD?IPS200PRO_PAGE_SET_TITLE_POSITION_WIDTH?ZF_DEVICE_IPS2
                                                             -00PRO
   *DEL*:           000036H   BYTE   UNIT     XDATA          ?XD?IPS200PRO_LABEL_PRINTF?ZF_DEVICE_IPS200PRO
   *DEL*:           00000AH   BYTE   UNIT     XDATA          ?XD?IPS200PRO_LABEL_SHOW_STRING?ZF_DEVICE_IPS200PRO
   *DEL*:           00000AH   BYTE   UNIT     XDATA          ?XD?IPS200PRO_LABEL_MODE?ZF_DEVICE_IPS200PRO
   *DEL*:           000041H   BYTE   UNIT     XDATA          ?XD?IPS200PRO_TABLE_CELL_PRINTF?ZF_DEVICE_IPS200PRO
   *DEL*:           00000CH   BYTE   UNIT     XDATA          ?XD?IPS200PRO_TABLE_SET_COL_WIDTH?ZF_DEVICE_IPS200PRO
   *DEL*:           00000CH   BYTE   UNIT     XDATA          ?XD?IPS200PRO_TABLE_SELECT?ZF_DEVICE_IPS200PRO
   *DEL*:           00000AH   BYTE   UNIT     XDATA          ?XD?IPS200PRO_METER_SET_VALUE?ZF_DEVICE_IPS200PRO
   *DEL*:           00000CH   BYTE   UNIT     XDATA          ?XD?IPS200PRO_PROGRESS_BAR_SET_VALUE?ZF_DEVICE_IPS200PRO
   *DEL*:           00000CH   BYTE   UNIT     XDATA          ?XD?IPS200PRO_CALENDAR_DISPLAY?ZF_DEVICE_IPS200PRO
   *DEL*:           00000EH   BYTE   UNIT     XDATA          ?XD?IPS200PRO_WAVEFORM_ADD_VALUE?ZF_DEVICE_IPS200PRO
   *DEL*:           00000CH   BYTE   UNIT     XDATA          ?XD?IPS200PRO_WAVEFORM_LINE_STATE?ZF_DEVICE_IPS200PRO
   *DEL*:           00000AH   BYTE   UNIT     XDATA          ?XD?IPS200PRO_WAVEFORM_LINE_TYPE?ZF_DEVICE_IPS200PRO
   *DEL*:           000008H   BYTE   UNIT     XDATA          ?XD?IPS200PRO_WAVEFORM_CLEAR?ZF_DEVICE_IPS200PRO
   *DEL*:           00001FH   BYTE   UNIT     XDATA          ?XD?IPS200PRO_IMAGE_DISPLAY?ZF_DEVICE_IPS200PRO
   *DEL*:           000010H   BYTE   UNIT     XDATA          ?XD?IPS200PRO_IMAGE_DRAW_LINE?ZF_DEVICE_IPS200PRO
   *DEL*:           000018H   BYTE   UNIT     XDATA          ?XD?IPS200PRO_IMAGE_DRAW_RECTANGLE?ZF_DEVICE_IPS200PRO
   *DEL*:           00000CH   BYTE   UNIT     XDATA          ?XD?IPS200PRO_CONTAINER_RADIUS?ZF_DEVICE_IPS200PRO
   *DEL*:           000005H   BYTE   UNIT     XDATA          ?XD?IPS200PRO_INIT?ZF_DEVICE_IPS200PRO
   *DEL*:           00017EH   BYTE   INSEG    CODE           ?PR?TFT180_SHOW_FLOAT?ZF_DEVICE_TFT180
   *DEL*:           000063H   BYTE   INSEG    CODE           ?PR?TFT180_DRAW_POINT?ZF_DEVICE_TFT180
   *DEL*:           0000A5H   BYTE   INSEG    CODE           ?PR?TFT180_SHOW_STRING?ZF_DEVICE_TFT180
   *DEL*:           0000CEH   BYTE   INSEG    CODE           ?PR?TFT180_SHOW_CHAR?ZF_DEVICE_TFT180
   *DEL*:           0000CEH   BYTE   INSEG    CODE           ?PR?TFT180_SHOW_UINT16?ZF_DEVICE_TFT180
   *DEL*:           000102H   BYTE   INSEG    CODE           ?PR?TFT180_SHOW_INT32?ZF_DEVICE_TFT180
   *DEL*:           000119H   BYTE   INSEG    CODE           ?PR?TFT180_SHOW_INT16?ZF_DEVICE_TFT180
   *DEL*:           0001A6H   BYTE   INSEG    CODE           ?PR?TFT180_SHOW_WAVE?ZF_DEVICE_TFT180
   *DEL*:           0000BAH   BYTE   INSEG    CODE           ?PR?TFT180_SHOW_UINT8?ZF_DEVICE_TFT180
   *DEL*:           0000E5H   BYTE   INSEG    CODE           ?PR?TFT180_SHOW_INT8?ZF_DEVICE_TFT180
   *DEL*:           000002H   BYTE   UNIT     XDATA          ?XD?TFT180_DRAW_POINT?ZF_DEVICE_TFT180
   *DEL*:           000004H   BYTE   UNIT     XDATA          ?XD?TFT180_SHOW_CHAR?ZF_DEVICE_TFT180
   *DEL*:           000006H   BYTE   UNIT     XDATA          ?XD?TFT180_SHOW_STRING?ZF_DEVICE_TFT180
L251 LINKER/LOCATER V4.66.93.0                                                        01/14/2026  23:11:45  PAGE 15


   *DEL*:           000005H   BYTE   UNIT     XDATA          ?XD?TFT180_SHOW_INT8?ZF_DEVICE_TFT180
   *DEL*:           000005H   BYTE   UNIT     XDATA          ?XD?TFT180_SHOW_UINT8?ZF_DEVICE_TFT180
   *DEL*:           000008H   BYTE   UNIT     XDATA          ?XD?TFT180_SHOW_INT16?ZF_DEVICE_TFT180
   *DEL*:           000008H   BYTE   UNIT     XDATA          ?XD?TFT180_SHOW_UINT16?ZF_DEVICE_TFT180
   *DEL*:           000028H   BYTE   UNIT     XDATA          ?XD?TFT180_SHOW_INT32?ZF_DEVICE_TFT180
   *DEL*:           00002BH   BYTE   UNIT     XDATA          ?XD?TFT180_SHOW_FLOAT?ZF_DEVICE_TFT180
   *DEL*:           00001CH   BYTE   UNIT     XDATA          ?XD?TFT180_SHOW_WAVE?ZF_DEVICE_TFT180
   *DEL*:           00006EH   BYTE   INSEG    CODE           ?PR?TSL1401_SEND_DATA?ZF_DEVICE_TSL1401
   *DEL*:           00003AH   BYTE   INSEG    CODE           ?PR?TSL1401_INIT?ZF_DEVICE_TSL1401
   *DEL*:           000097H   BYTE   INSEG    CODE           ?PR?TSL1401_COLLECT_PIT_HANDLER?ZF_DEVICE_TSL1401
   *DEL*:           00000DH   BYTE   INSEG    CODE           ?PR?SET_TOF_TYPE?ZF_DEVICE_TYPE
   *DEL*:           00003AH   BYTE   INSEG    CODE           ?PR?SET_GPS_TYPE?ZF_DEVICE_TYPE
   *DEL*:           00003AH   BYTE   INSEG    CODE           ?PR?SET_WIRELESS_TYPE?ZF_DEVICE_TYPE
   *DEL*:           0000B5H   BYTE   INSEG    CODE           ?PR?WIRELESS_UART_SEND_BUFFER?ZF_DEVICE_WIRELESS_UART
   *DEL*:           00003FH   BYTE   INSEG    CODE           ?PR?WIRELESS_UART_SEND_STRING?ZF_DEVICE_WIRELESS_UART
   *DEL*:           000025H   BYTE   INSEG    CODE           ?PR?WIRELESS_UART_CALLBACK?ZF_DEVICE_WIRELESS_UART
   *DEL*:           000079H   BYTE   INSEG    CODE           ?PR?WIRELESS_UART_INIT?ZF_DEVICE_WIRELESS_UART
   *DEL*:           000044H   BYTE   INSEG    CODE           ?PR?WIRELESS_UART_SEND_BYTE?ZF_DEVICE_WIRELESS_UART
   *DEL*:           00005CH   BYTE   INSEG    CODE           ?PR?WIRELESS_UART_READ_BUFFER?ZF_DEVICE_WIRELESS_UART
   *DEL*:           000008H   BYTE   UNIT     XDATA          ?XD?WIRELESS_UART_SEND_BUFFER?ZF_DEVICE_WIRELESS_UART
   *DEL*:           000004H   BYTE   UNIT     XDATA          ?XD?WIRELESS_UART_SEND_STRING?ZF_DEVICE_WIRELESS_UART
   *DEL*:           000004H   BYTE   UNIT     XDATA          ?XD?WIRELESS_UART_READ_BUFFER?ZF_DEVICE_WIRELESS_UART
   *DEL*:           000001H   BYTE   UNIT     XDATA          ?XD?WIRELESS_UART_CALLBACK?ZF_DEVICE_WIRELESS_UART
   *DEL*:           000332H   BYTE   INSEG    CODE           ?PR?SEEKFREE_ASSISTANT_CAMERA_BOUNDARY_CONFIG?SEEKFREE_ASS
                                                             -ISTANT
   *DEL*:           0000CAH   BYTE   INSEG    CODE           ?PR?SEEKFREE_ASSISTANT_CAMERA_DOT_SEND?SEEKFREE_ASSISTANT
   *DEL*:           0000CAH   BYTE   INSEG    CODE           ?PR?SEEKFREE_ASSISTANT_OSCILLOSCOPE_SEND?SEEKFREE_ASSISTAN
                                                             -T
   *DEL*:           00002DH   BYTE   INSEG    CODE           ?PR?SEEKFREE_ASSISTANT_INIT?SEEKFREE_ASSISTANT
   *DEL*:           000017H   BYTE   INSEG    CODE           ?PR?SEEKFREE_ASSISTANT_SUM?SEEKFREE_ASSISTANT
   *DEL*:           000035H   BYTE   INSEG    CODE           ?PR?SEEKFREE_ASSISTANT_CAMERA_INFORMATION_CONFIG?SEEKFREE_
                                                             -ASSISTANT
   *DEL*:           00019CH   BYTE   INSEG    CODE           ?PR?SEEKFREE_ASSISTANT_DATA_ANALYSIS?SEEKFREE_ASSISTANT
   *DEL*:           0000F8H   BYTE   INSEG    CODE           ?PR?SEEKFREE_ASSISTANT_CAMERA_DATA_SEND?SEEKFREE_ASSISTANT
   *DEL*:           00003FH   BYTE   INSEG    CODE           ?PR?SEEKFREE_ASSISTANT_CAMERA_SEND?SEEKFREE_ASSISTANT
   *DEL*:           00000AH   BYTE   UNIT     XDATA          ?XD?SEEKFREE_ASSISTANT_CAMERA_DATA_SEND?SEEKFREE_ASSISTANT
   *DEL*:           000002H   BYTE   UNIT     XDATA          ?XD?SEEKFREE_ASSISTANT_CAMERA_INFORMATION_CONFIG?SEEKFREE_
                                                             -ASSISTANT
   *DEL*:           000024H   BYTE   UNIT     XDATA          ?XD?SEEKFREE_ASSISTANT_OSCILLOSCOPE_SEND?SEEKFREE_ASSISTAN
                                                             -T
   *DEL*:           000003H   BYTE   UNIT     XDATA          ?XD?SEEKFREE_ASSISTANT_CAMERA_DOT_SEND?SEEKFREE_ASSISTANT
   *DEL*:           000014H   BYTE   UNIT     XDATA          ?XD?SEEKFREE_ASSISTANT_CAMERA_BOUNDARY_CONFIG?SEEKFREE_ASS
                                                             -ISTANT
   *DEL*:           000085H   BYTE   UNIT     XDATA          ?XD?SEEKFREE_ASSISTANT_DATA_ANALYSIS?SEEKFREE_ASSISTANT
   *DEL*:           000000H.1 BIT    UNIT     BIT            ?BI?SEEKFREE_ASSISTANT_DATA_ANALYSIS?SEEKFREE_ASSISTANT
   *DEL*:           000041H   BYTE   INSEG    CODE           ?PR?SEEKFREE_ASSISTANT_INTERFACE_INIT?SEEKFREE_ASSISTANT_I
                                                             -NTERFACE
   *DEL*:           000082H   BYTE   INSEG    CODE           ?PR?MOTOR_TEST?MOTOR
   *DEL*:           000028H   BYTE   INSEG    CODE           ?PR?MOTOR_FANSET?MOTOR
   *DEL*:           000051H   BYTE   INSEG    CODE           ?PR?KEY_SCAN?KEY
   *DEL*:           000072H   BYTE   INSEG    CODE           ?PR?KEY_DISP?KEY
   *DEL*:           00000FH   BYTE   INSEG    CODE           ?PR?LCD_DISP?LCD
   *DEL*:           0000B7H   BYTE   INSEG    CODE           ?PR?ADC_TEST?ADC
   *DEL*:           00003AH   BYTE   INSEG    CODE           ?PR?LIMIT?ADC
   *DEL*:           000053H   BYTE   INSEG    CODE           ?PR?ADC_GETVAL?ADC
   *DEL*:           000001H   BYTE   INSEG    CODE           ?PR?UART_DISP?UART
   *DEL*:           000045H   BYTE   INSEG    CODE           ?PR?PID_CLEAR?PID
   *DEL*:           0000A4H   BYTE   INSEG    CODE           ?PR?PID_INIT?PID
   *DEL*:           00000EH   BYTE   INSEG    CODE           ?PR?PID_SET_TARGET?PID
   *DEL*:           00002EH   BYTE   INSEG    CODE           ?PR?PID_SET_PARAM?PID
   *DEL*:           000008H   BYTE   UNIT     XDATA          ?XD?PID_INIT?PID
   *DEL*:           000008H   BYTE   UNIT     XDATA          ?XD?PID_SET_PARAM?PID
   *DEL*:           000093H   BYTE   INSEG    CODE           ?PR?NORMALIZATION?NORMALIZATION
   *DEL*:           00002EH   BYTE   INSEG    CODE           ?PR?SDSD_INIT?CONTROL
   *DEL*:           000008H   BYTE   UNIT     XDATA          ?XD?SDSD_INIT?CONTROL
L251 LINKER/LOCATER V4.66.93.0                                                        01/14/2026  23:11:45  PAGE 16


   *DEL*:           0000F2H   BYTE   INSEG    CODE           ?PR?POW?_?POW
   *DEL*:           000037H   BYTE   INSEG    CODE           ?PR?STRNCMP?_?STRNCMP
   *DEL*:           000030H   BYTE   INSEG    CODE           ?PR?STRNCPY?_?STRNCPY
   *DEL*:           00000EH   BYTE   INSEG    CODE           ?PR?STRLEN?_?STRLEN
   *DEL*:           00001FH   BYTE   INSEG    CODE           ?PR?STRCHR?_?STRCHR
   *DEL*:           00001AH   BYTE   INSEG    CODE           ?PR?MEMSET?_?MEMSET



OVERLAY MAP OF MODULE:   .\out_file\SEEKFREE (?C_START)


FUNCTION/MODULE                               XDATA_GROUP
--> CALLED FUNCTION/MODULE                    START  STOP
=========================================================
?C_C51STARTUP                                 ----- -----

*** NEW ROOT ********************************

?C_C51STARTUP?3                               ----- -----
  +--> main/main

main/main                                     ----- -----
  +--> _m/main
  +--> SPRINTF/SPRINTF

_m/main                                       ----- -----
  +--> clock_init/zf_common_clock
  +--> debug_init/zf_common_debug
  +--> Lcd_Init/lcd
  +--> key_init/key
  +--> Motor_Init/motor
  +--> Adc_All_Init/adc
  +--> Encoder_Init/encoder
  +--> imu_init/IMU
  +--> PRINTF/PRINTF
  +--> pit_handler_1/main
  +--> pit_handler_2/main
  +--> ?C?SLDIV/?C?SLDIV
  +--> pit_init/zf_driver_pit
  +--> system_delay_ms/zf_driver_delay

clock_init/zf_common_clock                    ----- -----
  +--> set_sys_clk/zf_common_clock
  +--> system_delay_init/zf_driver_delay
  +--> interrupt_global_enable/zf_common_interrupt

set_sys_clk/zf_common_clock                   ----- -----

system_delay_init/zf_driver_delay             ----- -----
  +--> ?C?SLDIV/?C?SLDIV

?C?SLDIV/?C?SLDIV                             ----- -----
  +--> ?C?ULIDIV/?C?ULDIV

?C?ULIDIV/?C?ULDIV                            ----- -----

interrupt_global_enable/zf_common_interr+     ----- -----
... upt

debug_init/zf_common_debug                    ----- -----
  +--> uart_init/zf_driver_uart
  +--> fifo_init/zf_common_fifo
  +--> uart_rx_interrupt/zf_driver_uart
  +--> debug_interrupr_handler/zf_common_debug
L251 LINKER/LOCATER V4.66.93.0                                                        01/14/2026  23:11:45  PAGE 17



uart_init/zf_driver_uart                      05C7H 05CCH
  +--> uart_funciton_check/zf_driver_uart
  +--> debug_assert_handler/zf_common_debug
  +--> timer_funciton_check/zf_driver_timer
  +--> gpio_init/zf_driver_gpio
  +--> ?C?ULIDIV/?C?ULDIV
  +--> uart_dma_init/zf_driver_uart

uart_funciton_check/zf_driver_uart            ----- -----

debug_assert_handler/zf_common_debug          05DDH 05ECH
  +--> PRINTF/PRINTF
  +--> system_delay_ms/zf_driver_delay

PRINTF/PRINTF                                 05EDH 0614H
  +--> OUT/PRINTF

OUT/PRINTF                                    ----- -----
  +--> PUTCH/PRINTF

PUTCH/PRINTF                                  ----- -----
  +--> putchar/zf_common_debug
  +--> OUT/PRINTF

putchar/zf_common_debug                       ----- -----
  +--> uart_write_byte/zf_driver_uart

uart_write_byte/zf_driver_uart                0615H 0615H
  +--> uart_write_buffer/zf_driver_uart

uart_write_buffer/zf_driver_uart              0616H 065BH
  +--> memcpy?_/memcpy

memcpy?_/memcpy                               ----- -----

system_delay_ms/zf_driver_delay               ----- -----
  +--> delay_cycles/zf_driver_delay

delay_cycles/zf_driver_delay                  ----- -----

timer_funciton_check/zf_driver_timer          ----- -----

gpio_init/zf_driver_gpio                      05D7H 05D9H
  +--> debug_assert_handler/zf_common_debug
  +--> gpio_set_impedance/zf_driver_gpio
  +--> gpio_set_dir/zf_driver_gpio
  +--> gpio_set_mode/zf_driver_gpio
  +--> gpio_set_level/zf_driver_gpio

gpio_set_impedance/zf_driver_gpio             ----- -----

gpio_set_dir/zf_driver_gpio                   ----- -----
  +--> debug_assert_handler/zf_common_debug

gpio_set_mode/zf_driver_gpio                  ----- -----

gpio_set_level/zf_driver_gpio                 ----- -----

uart_dma_init/zf_driver_uart                  ----- -----

fifo_init/zf_common_fifo                      05C7H 05D0H
  +--> debug_assert_handler/zf_common_debug

uart_rx_interrupt/zf_driver_uart              ----- -----
L251 LINKER/LOCATER V4.66.93.0                                                        01/14/2026  23:11:45  PAGE 18



debug_interrupr_handler/zf_common_debug       05C7H 05C7H
  +--> uart_query_byte/zf_driver_uart
  +--> fifo_write_buffer/zf_common_fifo

uart_query_byte/zf_driver_uart                ----- -----
  +--> uart_rx_start_buff/zf_driver_uart

uart_rx_start_buff/zf_driver_uart             ----- -----

fifo_write_buffer/zf_common_fifo              05C8H 05D5H
  +--> debug_assert_handler/zf_common_debug
  +--> memcpy?_/memcpy
  +--> fifo_head_offset/zf_common_fifo

fifo_head_offset/zf_common_fifo               ----- -----

Lcd_Init/lcd                                  ----- -----
  +--> tft180_init/zf_device_tft180
  +--> tft180_set_color/zf_device_tft180
  +--> tft180_clear/zf_device_tft180

tft180_init/zf_device_tft180                  ----- -----
  +--> spi_init/zf_driver_spi
  +--> tft180_set_dir/zf_device_tft180
  +--> tft180_set_color/zf_device_tft180
  +--> system_delay_ms/zf_driver_delay
  +--> tft180_write_index/zf_device_tft180
  +--> spi_write_8bit/zf_driver_spi
  +--> tft180_clear/zf_device_tft180

spi_init/zf_driver_spi                        05C7H 05D6H
  +--> debug_assert_handler/zf_common_debug
  +--> gpio_init/zf_driver_gpio
  +--> gpio_set_level_speed/zf_driver_gpio
  +--> ?C?ULIDIV/?C?ULDIV
  +--> uart_funciton_check/zf_driver_uart

gpio_set_level_speed/zf_driver_gpio           ----- -----

tft180_set_dir/zf_device_tft180               ----- -----

tft180_set_color/zf_device_tft180             ----- -----

tft180_write_index/zf_device_tft180           ----- -----
  +--> spi_write_8bit/zf_driver_spi

spi_write_8bit/zf_driver_spi                  ----- -----
  +--> spi_write_dat/zf_driver_spi

spi_write_dat/zf_driver_spi                   ----- -----
  +--> debug_assert_handler/zf_common_debug

tft180_clear/zf_device_tft180                 05C7H 05CAH
  +--> tft180_set_region/zf_device_tft180
  +--> spi_write_16bit/zf_driver_spi

tft180_set_region/zf_device_tft180            05CBH 05CEH
  +--> debug_assert_handler/zf_common_debug
  +--> tft180_write_index/zf_device_tft180
  +--> spi_write_16bit/zf_driver_spi

spi_write_16bit/zf_driver_spi                 ----- -----
  +--> spi_write_dat/zf_driver_spi

L251 LINKER/LOCATER V4.66.93.0                                                        01/14/2026  23:11:45  PAGE 19


key_init/key                                  ----- -----
  +--> gpio_init/zf_driver_gpio

Motor_Init/motor                              ----- -----
  +--> gpio_init/zf_driver_gpio
  +--> pwm_init/zf_driver_pwm

pwm_init/zf_driver_pwm                        05C7H 05D4H
  +--> debug_assert_handler/zf_common_debug
  +--> gpio_init/zf_driver_gpio
  +--> ?C?ULIDIV/?C?ULDIV

Adc_All_Init/adc                              ----- -----
  +--> adc_init/zf_driver_adc

adc_init/zf_driver_adc                        ----- -----

Encoder_Init/encoder                          ----- -----
  +--> encoder_dir_init/zf_driver_encoder

encoder_dir_init/zf_driver_encoder            05C7H 05C8H
  +--> timer_funciton_check/zf_driver_timer
  +--> debug_assert_handler/zf_common_debug
  +--> gpio_init/zf_driver_gpio

imu_init/IMU                                  ----- -----
  +--> imu660rb_init/zf_device_imu660rb
  +--> system_delay_ms/zf_driver_delay
  +--> imu_get_data/IMU
  +--> imu_quaternion_init/IMU

imu660rb_init/zf_device_imu660rb              ----- -----
  +--> system_delay_ms/zf_driver_delay
  +--> imu660rb_self_check/zf_device_imu660rb
  +--> PRINTF/PRINTF
  +--> imu660rb_write_register/zf_device_imu660rb

imu660rb_self_check/zf_device_imu660rb        ----- -----
  +--> imu660rb_read_register/zf_device_imu660rb
  +--> system_delay_ms/zf_driver_delay

imu660rb_read_register/zf_device_imu660r+     05C7H 05C7H
... b
  +--> imu660rb_simspi_r_reg_byte/zf_device_imu660rb

imu660rb_simspi_r_reg_byte/zf_device_imu+     ----- -----
... 660rb
  +--> imu660rb_simspi_wr_byte/zf_device_imu660rb

imu660rb_simspi_wr_byte/zf_device_imu660+     ----- -----
... rb

imu660rb_write_register/zf_device_imu660+     ----- -----
... rb
  +--> imu660rb_simspi_w_reg_byte/zf_device_imu660rb

imu660rb_simspi_w_reg_byte/zf_device_imu+     ----- -----
... 660rb
  +--> imu660rb_simspi_wr_byte/zf_device_imu660rb

imu_get_data/IMU                              ----- -----
  +--> imu660rb_get_acc/zf_device_imu660rb
  +--> imu660rb_get_gyro/zf_device_imu660rb
  +--> imu660rb_acc_transition/zf_device_imu660rb
  +--> imu660rb_gyro_transition/zf_device_imu660rb
L251 LINKER/LOCATER V4.66.93.0                                                        01/14/2026  23:11:45  PAGE 20



imu660rb_get_acc/zf_device_imu660rb           05C7H 05CCH
  +--> imu660rb_read_registers/zf_device_imu660rb

imu660rb_read_registers/zf_device_imu660+     ----- -----
... rb
  +--> imu660rb_simspi_r_reg_bytes/zf_device_imu660rb

imu660rb_simspi_r_reg_bytes/zf_device_im+     05CDH 05D0H
... u660rb
  +--> imu660rb_simspi_wr_byte/zf_device_imu660rb

imu660rb_get_gyro/zf_device_imu660rb          05C7H 05CCH
  +--> imu660rb_read_registers/zf_device_imu660rb

imu660rb_acc_transition/zf_device_imu660+     ----- -----
... rb

imu660rb_gyro_transition/zf_device_imu66+     ----- -----
... 0rb

imu_quaternion_init/IMU                       05C7H 05CAH
  +--> fast_inv_sqrt/IMU

fast_inv_sqrt/IMU                             05DBH 05E2H

pit_handler_1/main                            ----- -----
  +--> encoder_get_count/zf_driver_encoder
  +--> motor_pid_control/pid
  +--> encoder_clear_count/zf_driver_encoder

encoder_get_count/zf_driver_encoder           ----- -----
  +--> gpio_get_level/zf_driver_gpio

gpio_get_level/zf_driver_gpio                 ----- -----

motor_pid_control/pid                         05C7H 05D0H
  +--> SDSD_calculate/control
  +--> pid_calc_position/pid
  +--> pid_calc_increment/pid
  +--> Motor_LeftForward/motor
  +--> Motor_LeftBackward/motor
  +--> Motor_RightForward/motor
  +--> Motor_RightBackward/motor

SDSD_calculate/control                        ----- -----
  +--> abs?_/ABS
  +--> ?C?SLDIV/?C?SLDIV

abs?_/ABS                                     ----- -----

pid_calc_position/pid                         ----- -----
  +--> constrain_float/pid

constrain_float/pid                           05D1H 05D4H

pid_calc_increment/pid                        ----- -----
  +--> constrain_float/pid

Motor_LeftForward/motor                       ----- -----
  +--> gpio_set_level/zf_driver_gpio
  +--> pwm_set_duty/zf_driver_pwm

pwm_set_duty/zf_driver_pwm                    05D1H 05DCH
  +--> debug_assert_handler/zf_common_debug
L251 LINKER/LOCATER V4.66.93.0                                                        01/14/2026  23:11:45  PAGE 21



Motor_LeftBackward/motor                      ----- -----
  +--> gpio_set_level/zf_driver_gpio
  +--> pwm_set_duty/zf_driver_pwm

Motor_RightForward/motor                      ----- -----
  +--> gpio_set_level/zf_driver_gpio
  +--> pwm_set_duty/zf_driver_pwm

Motor_RightBackward/motor                     ----- -----
  +--> gpio_set_level/zf_driver_gpio
  +--> pwm_set_duty/zf_driver_pwm

encoder_clear_count/zf_driver_encoder         ----- -----

pit_handler_2/main                            ----- -----
  +--> imu_update/IMU

imu_update/IMU                                ----- -----
  +--> imu_get_data/IMU
  +--> imu_quaternion_update/IMU
  +--> imu_quaternion_to_euler/IMU

imu_quaternion_update/IMU                     05C7H 05DAH
  +--> fast_inv_sqrt/IMU

imu_quaternion_to_euler/IMU                   05C7H 05D2H
  +--> my_atan2/IMU
  +--> my_asin/IMU
  +--> angle_normalize/IMU

my_atan2/IMU                                  05D3H 05D6H

my_asin/IMU                                   ----- -----

angle_normalize/IMU                           ----- -----

pit_init/zf_driver_pit                        ----- -----
  +--> ?C?ULIDIV/?C?ULDIV

SPRINTF/SPRINTF                               05C7H 05EEH
  +--> OUT/SPRINTF

OUT/SPRINTF                                   ----- -----
  +--> PUTCH/SPRINTF

PUTCH/SPRINTF                                 ----- -----

*** NEW ROOT ********************************

DMA_UART1_IRQHandler/isr                      ----- -----
  +--> uart_rx_start_buff/zf_driver_uart

*** NEW ROOT ********************************

DMA_UART2_IRQHandler/isr                      ----- -----
  +--> uart_rx_start_buff/zf_driver_uart

*** NEW ROOT ********************************

DMA_UART3_IRQHandler/isr                      ----- -----
  +--> uart_rx_start_buff/zf_driver_uart

*** NEW ROOT ********************************

L251 LINKER/LOCATER V4.66.93.0                                                        01/14/2026  23:11:45  PAGE 22


DMA_UART4_IRQHandler/isr                      ----- -----
  +--> uart_rx_start_buff/zf_driver_uart

*** NEW ROOT ********************************

TM0_IRQHandler/isr                            ----- -----

*** NEW ROOT ********************************

TM1_IRQHandler/isr                            ----- -----

*** NEW ROOT ********************************

TM2_IRQHandler/isr                            ----- -----

*** NEW ROOT ********************************

TM3_IRQHandler/isr                            ----- -----

*** NEW ROOT ********************************

TM4_IRQHandler/isr                            ----- -----

*** NEW ROOT ********************************

?C_C51STARTUP?2                               ----- -----



PUBLIC SYMBOLS OF MODULE:  .\out_file\SEEKFREE (?C_START)


      VALUE       CLASS    TYPE      PUBLIC SYMBOL NAME
      =================================================
      00FF304AH   CODE     ---       ?C?BMOVEPP
      00FF3048H   CODE     ---       ?C?BMOVEPP8
      00FF243EH   CODE     NEAR LAB  ?C?CASTF
      000000FFH   NUMBER   ---       ?C?CODESEG
      00FF240BH   CODE     NEAR LAB  ?C?FCASTC
      00FF2406H   CODE     NEAR LAB  ?C?FCASTI
      00FF2401H   CODE     NEAR LAB  ?C?FCASTL
      00FF2C4BH   CODE     ---       ?C?FP2SERIES
      00FF21D4H   CODE     ---       ?C?FPADD
      00FF23AFH   CODE     ---       ?C?FPCMP
      00FF23ADH   CODE     ---       ?C?FPCMP3
      00FF2E13H   CODE     ---       ?C?FPCONVERT
      00FF232CH   CODE     ---       ?C?FPDIV
      00FF27A1H   CODE     ---       ?C?FPGETOPN2
      00FF228CH   CODE     ---       ?C?FPMUL
      00FF27DEH   CODE     ---       ?C?FPNANRESULT
      00FF23F3H   CODE     ---       ?C?FPNEG
      00FF27E6H   CODE     ---       ?C?FPOVERFLOW
      00FF27BAH   CODE     ---       ?C?FPRESULT
      00FF27D0H   CODE     ---       ?C?FPRESULT2
      00FF2ECBH   CODE     ---       ?C?FPROUND
      00FF2C54H   CODE     ---       ?C?FPSERIES
      00FF21D1H   CODE     ---       ?C?FPSUB
      00FF27E3H   CODE     ---       ?C?FPUNDERFLOW
      00FF2F3EH   CODE     ---       ?C?FTNPWR
      00FF7214H   CODE     ---       ?C?INITHDATA
      00FF7E6CH   HCONST   WORD      ?C?INITHDATA_END
      00FF2FB8H   CODE     ---       ?C?LIMUL
      00FF2FA7H   CODE     ---       ?C?LMUL
      00FF283CH   CODE     ---       ?C?PRNFMT
      00FF2F75H   CODE     ---       ?C?SIDIV
L251 LINKER/LOCATER V4.66.93.0                                                        01/14/2026  23:11:45  PAGE 23


      00FF3014H   CODE     NEAR LAB  ?C?SLDIV
      00FF0000H   CODE     ---       ?C?STARTUP
      00FF2FC3H   CODE     NEAR LAB  ?C?ULDIV
      00FF2FC1H   CODE     NEAR LAB  ?C?ULIDIV
      00000001H   NUMBER   ---       ?C?XDATASEG
      00FF0000H   CODE     ---       ?C_STARTUP
      000105C9H   XDATA    BYTE      ?constrain_float?BYTE
      000105C3H   XDATA    BYTE      ?fifo_init?BYTE
*DEL*:1FFFFFFCH   XDATA    BYTE      ?fifo_read_buffer?BYTE
      000105C4H   XDATA    BYTE      ?fifo_write_buffer?BYTE
*DEL*:00000000H   XDATA    BYTE      ?get_two_points_azimuth?BYTE
*DEL*:1FFFFFF8H   XDATA    BYTE      ?get_two_points_distance?BYTE
*DEL*:1FFFFFFCH   XDATA    BYTE      ?iap_read_buff?BYTE
*DEL*:1FFFFFFCH   XDATA    BYTE      ?iap_write_buff?BYTE
*DEL*:1FFFFFFCH   XDATA    BYTE      ?ips114_show_chinese?BYTE
*DEL*:1FFFFFFCH   XDATA    BYTE      ?ips114_show_float?BYTE
*DEL*:1FFFFFFCH   XDATA    BYTE      ?ips114_show_wave?BYTE
*DEL*:1FFFFFFCH   XDATA    BYTE      ?ips200_show_chinese?BYTE
*DEL*:1FFFFFFCH   XDATA    BYTE      ?ips200_show_float?BYTE
*DEL*:1FFFFFFCH   XDATA    BYTE      ?ips200_show_wave?BYTE
*DEL*:1FFFFFF8H   XDATA    BYTE      ?ips200pro_create_widgets?BYTE
*DEL*:1FFFFFF8H   XDATA    BYTE      ?ips200pro_image_display?BYTE
*DEL*:1FFFFFF7H   XDATA    BYTE      ?ips200pro_image_draw_line?BYTE
*DEL*:1FFFFFF7H   XDATA    BYTE      ?ips200pro_image_draw_rectangle?BYTE
*DEL*:00000028H   XDATA    BYTE      ?ips200pro_label_printf?BYTE
*DEL*:1FFFFFFCH   XDATA    BYTE      ?ips200pro_receive_buffer?BYTE
*DEL*:1FFFFFFCH   XDATA    BYTE      ?ips200pro_send_buffer?BYTE
*DEL*:00000028H   XDATA    BYTE      ?ips200pro_table_cell_printf?BYTE
*DEL*:1FFFFFF7H   XDATA    BYTE      ?ips200pro_waveform_add_value?BYTE
*DEL*:1FFFFFF7H   XDATA    BYTE      ?ips200pro_write_packet?BYTE
*DEL*:1FFFFFF8H   XDATA    BYTE      ?pid_init?BYTE
*DEL*:1FFFFFF8H   XDATA    BYTE      ?pid_set_param?BYTE
      00010615H   XDATA    ---       ?printf?BYTE
      000105C5H   XDATA    BYTE      ?pwm_init?BYTE
*DEL*:1FFFFFFEH   XDATA    BYTE      ?pwm_set_freq?BYTE
*DEL*:1FFFFFF8H   XDATA    BYTE      ?SDSD_init?BYTE
*DEL*:1FFFFFF8H   XDATA    BYTE      ?seekfree_assistant_camera_boundary_config?BYTE
*DEL*:1FFFFFFBH   XDATA    BYTE      ?seekfree_assistant_camera_data_send?BYTE
*DEL*:1FFFFFF8H   XDATA    BYTE      ?seekfree_assistant_camera_information_config?BYTE
*DEL*:1FFFFFFCH   XDATA    BYTE      ?soft_iic_init?BYTE
*DEL*:1FFFFFFCH   XDATA    BYTE      ?soft_iic_read_16bit_array?BYTE
*DEL*:1FFFFFFCH   XDATA    BYTE      ?soft_iic_read_16bit_registers?BYTE
*DEL*:1FFFFFFCH   XDATA    BYTE      ?soft_iic_read_8bit_array?BYTE
*DEL*:1FFFFFFCH   XDATA    BYTE      ?soft_iic_read_8bit_registers?BYTE
*DEL*:1FFFFFFCH   XDATA    BYTE      ?soft_iic_transfer_16bit_array?BYTE
*DEL*:1FFFFFFCH   XDATA    BYTE      ?soft_iic_transfer_8bit_array?BYTE
*DEL*:1FFFFFFCH   XDATA    BYTE      ?soft_iic_write_16bit_array?BYTE
*DEL*:1FFFFFFCH   XDATA    BYTE      ?soft_iic_write_16bit_registers?BYTE
*DEL*:1FFFFFFCH   XDATA    BYTE      ?soft_iic_write_8bit_array?BYTE
*DEL*:1FFFFFFCH   XDATA    BYTE      ?soft_iic_write_8bit_registers?BYTE
*DEL*:1FFFFFFCH   XDATA    BYTE      ?soft_spi_init?BYTE
*DEL*:1FFFFFFCH   XDATA    BYTE      ?soft_spi_read_16bit_array?BYTE
*DEL*:1FFFFFFCH   XDATA    BYTE      ?soft_spi_read_16bit_registers?BYTE
*DEL*:1FFFFFFCH   XDATA    BYTE      ?soft_spi_read_8bit_array?BYTE
*DEL*:1FFFFFFCH   XDATA    BYTE      ?soft_spi_read_8bit_registers?BYTE
*DEL*:1FFFFFFCH   XDATA    BYTE      ?soft_spi_transfer_16bit?BYTE
*DEL*:1FFFFFFCH   XDATA    BYTE      ?soft_spi_transfer_8bit?BYTE
*DEL*:1FFFFFFCH   XDATA    BYTE      ?soft_spi_write_16bit_array?BYTE
*DEL*:1FFFFFFCH   XDATA    BYTE      ?soft_spi_write_16bit_registers?BYTE
*DEL*:1FFFFFFCH   XDATA    BYTE      ?soft_spi_write_8bit_array?BYTE
*DEL*:1FFFFFFCH   XDATA    BYTE      ?soft_spi_write_8bit_registers?BYTE
      000105C3H   XDATA    BYTE      ?spi_init?BYTE
*DEL*:1FFFFFFCH   XDATA    BYTE      ?spi_read_16bit_array?BYTE
*DEL*:1FFFFFFCH   XDATA    BYTE      ?spi_read_16bit_registers?BYTE
*DEL*:1FFFFFFCH   XDATA    BYTE      ?spi_read_8bit_array?BYTE
L251 LINKER/LOCATER V4.66.93.0                                                        01/14/2026  23:11:45  PAGE 24


*DEL*:1FFFFFFBH   XDATA    BYTE      ?spi_read_8bit_registers?BYTE
*DEL*:1FFFFFFCH   XDATA    BYTE      ?spi_transfer_16bit?BYTE
*DEL*:1FFFFFFCH   XDATA    BYTE      ?spi_transfer_8bit?BYTE
*DEL*:1FFFFFFCH   XDATA    BYTE      ?spi_write_16bit_array?BYTE
*DEL*:1FFFFFFCH   XDATA    BYTE      ?spi_write_16bit_registers?BYTE
*DEL*:1FFFFFFCH   XDATA    BYTE      ?spi_write_8bit_array?BYTE
*DEL*:1FFFFFFBH   XDATA    BYTE      ?spi_write_8bit_registers?BYTE
      000105EFH   XDATA    ---       ?sprintf?BYTE
*DEL*:1FFFFFFCH   XDATA    BYTE      ?tft180_show_float?BYTE
*DEL*:1FFFFFFCH   XDATA    BYTE      ?tft180_show_wave?BYTE
      000105C3H   XDATA    BYTE      ?uart_init?BYTE
*DEL*:1FFFFFF8H   XDATA    BYTE      ?vsnprintf?BYTE
*DEL*:00000028H   XDATA    BYTE      ?zf_sprintf?BYTE
      00FF27F2H   CODE     ---       _chkfloat_?_
      00FF5F54H   CODE     ---       _m
      00FF7986H   CODE     ---       abs?_
*SFR* 000000D0H.6 DATA     BIT       AC
*SFR* 000000E0H   DATA     BYTE      ACC
      00FF7765H   CODE     ---       Adc_All_Init
*SFR* 000000BCH   DATA     BYTE      ADC_CONTR
*DEL*:00000000H   CODE     ---       adc_convert
*DEL*:00000000H   CODE     ---       Adc_Getval
      00FF7027H   CODE     ---       adc_init
*DEL*:00000000H   CODE     ---       adc_mean_filter_convert
      00010910H   XDATA    ---       adc_normalized_list
*SFR* 000000BDH   DATA     BYTE      ADC_RES
*SFR* 000000BEH   DATA     BYTE      ADC_RESL
*DEL*:00000000H   CODE     ---       Adc_Test
      00010824H   XDATA    ---       adc_val_list
*SFR* 000000DEH   DATA     BYTE      ADCCFG
      00FF75BFH   CODE     ---       angle_normalize
      00FF3071H   CODE     ---       ascii_font_8x16
      00FF2781H   CODE     ---       asin?_
      00FF26AFH   CODE     ---       atan?_
*SFR* 000000EFH   DATA     BYTE      AUXINTIF
*SFR* 0000008EH   DATA     BYTE      AUXR
*SFR* 00000097H   DATA     BYTE      AUXR2
*SFR* 000000F0H   DATA     BYTE      B
*DEL*:00000000H   CODE     ---       ble6a20_callback
*DEL*:00000000H   CODE     ---       ble6a20_init
*DEL*:00000000H   CODE     ---       ble6a20_read_buffer
*DEL*:00000000H   CODE     ---       ble6a20_send_buffer
*DEL*:00000000H   CODE     ---       ble6a20_send_byte
*DEL*:00000000H   CODE     ---       ble6a20_send_string
      000107F0H   XDATA    ---       buf
*SFR* 000000C8H.1 DATA     BIT       C_T2
*SFR* 000000F1H   DATA     BYTE      CANICR
*SFR* 000000FAH   DATA     BYTE      CCAP0H
*SFR* 000000EAH   DATA     BYTE      CCAP0L
*SFR* 000000FBH   DATA     BYTE      CCAP1H
*SFR* 000000EBH   DATA     BYTE      CCAP1L
*SFR* 000000FCH   DATA     BYTE      CCAP2H
*SFR* 000000ECH   DATA     BYTE      CCAP2L
*SFR* 000000FDH   DATA     BYTE      CCAP3H
*SFR* 000000EDH   DATA     BYTE      CCAP3L
*SFR* 000000FEH   DATA     BYTE      CCAP4H
*SFR* 000000EEH   DATA     BYTE      CCAP4L
*SFR* 000000DAH   DATA     BYTE      CCAPM0
*SFR* 000000DBH   DATA     BYTE      CCAPM1
*SFR* 000000DCH   DATA     BYTE      CCAPM2
*SFR* 000000DDH   DATA     BYTE      CCAPM3
*SFR* 000000DEH   DATA     BYTE      CCAPM4
*SFR* 000000D8H.0 DATA     BIT       CCF0
*SFR* 000000D8H.1 DATA     BIT       CCF1
*SFR* 000000D8H.2 DATA     BIT       CCF2
L251 LINKER/LOCATER V4.66.93.0                                                        01/14/2026  23:11:45  PAGE 25


*SFR* 000000D8H.3 DATA     BIT       CCF3
*SFR* 000000D8H.4 DATA     BIT       CCF4
*SFR* 000000D8H   DATA     BYTE      CCON
*SFR* 00000090H.3 DATA     BIT       CEX0
*SFR* 00000090H.4 DATA     BIT       CEX1
*SFR* 00000090H.5 DATA     BIT       CEX2
*SFR* 00000090H.6 DATA     BIT       CEX3
*SFR* 00000090H.7 DATA     BIT       CEX4
*SFR* 000000D8H.7 DATA     BIT       CF
*SFR* 000000F9H   DATA     BYTE      CH
      00010823H   XDATA    BYTE      channel_index
      00010842H   XDATA    ---       channel_list
*SFR* 000000EAH   DATA     BYTE      CKCON
*SFR* 000000E9H   DATA     BYTE      CL
      00FF6E24H   CODE     ---       clock_init
*SFR* 000000D9H   DATA     BYTE      CMOD
*SFR* 000000E6H   DATA     BYTE      CMPCR1
*SFR* 000000E7H   DATA     BYTE      CMPCR2
      00010822H   XDATA    BYTE      cnt
      00FF0066H   CODE     ---       constrain_float
      00FF259FH   CODE     ---       cos?_
*SFR* 000000C8H.0 DATA     BIT       CP_RL2
*SFR* 000000D8H.6 DATA     BIT       CR
*SFR* 000000D0H.7 DATA     BIT       CY
      00FF6EF8H   CODE     ---       debug_assert_handler
      00FF70E8H   CODE     ---       debug_init
      00FF7638H   CODE     ---       debug_interrupr_handler
*DEL*:00000000H   CODE     ---       debug_read_buffer
*DEL*:00000000H   CODE     ---       debug_send_buffer
      0001065CH   XDATA    ---       debug_uart_buffer
      0001069DH   XDATA    ---       debug_uart_fifo
      000108D1H   XDATA    WORD      dl1a_distance_mm
      000108D3H   XDATA    BYTE      dl1a_finsh_flag
*DEL*:00000000H   CODE     ---       dl1a_get_distance
*DEL*:00000000H   CODE     ---       dl1a_init
*DEL*:00000000H   CODE     ---       dl1a_int_handler
      000108DEH   XDATA    WORD      dl1b_distance_mm
      000108E0H   XDATA    BYTE      dl1b_finsh_flag
*DEL*:00000000H   CODE     ---       dl1b_get_distance
*DEL*:00000000H   CODE     ---       dl1b_init
*DEL*:00000000H   CODE     ---       dl1b_int_handler
      00FF68DDH   CODE     ---       DMA_UART1_IRQHandler
      00FF6AF2H   CODE     ---       DMA_UART2_IRQHandler
      00FF6B6BH   CODE     ---       DMA_UART3_IRQHandler
      00FF6BE4H   CODE     ---       DMA_UART4_IRQHandler
*SFR* 00000083H   DATA     BYTE      DPH
*SFR* 00000082H   DATA     BYTE      DPL
*SFR* 00000084H   DATA     BYTE      DPXL
*SFR* 000000A8H.7 DATA     BIT       EA
*SFR* 000000BAH.7 DATA     BIT       EAXFR
*SFR* 000000A8H.6 DATA     BIT       EC
*SFR* 00000090H.2 DATA     BIT       ECI
*DEL*:00000000H   CODE     ---       eeprom_trig
      00FF7248H   CODE     ---       encoder_clear_count
      00010959H   XDATA    INT       encoder_data_dir_L
      0001095BH   XDATA    INT       encoder_data_dir_R
      00FF6542H   CODE     ---       encoder_dir_init
      00FF6DB7H   CODE     ---       encoder_get_count
      00FF78BBH   CODE     ---       Encoder_Init
*SFR* 000000A8H.4 DATA     BIT       ES
*SFR* 000000A8H.1 DATA     BIT       ET0
*SFR* 000000A8H.3 DATA     BIT       ET1
*SFR* 000000A8H.5 DATA     BIT       ET2
*SFR* 000000A8H.0 DATA     BIT       EX0
*SFR* 000000A8H.2 DATA     BIT       EX1
L251 LINKER/LOCATER V4.66.93.0                                                        01/14/2026  23:11:45  PAGE 26


*SFR* 000000C8H.3 DATA     BIT       EXEN2
*SFR* 000000C8H.6 DATA     BIT       EXF2
      00FF2CB1H   CODE     ---       exp?_
*DEL*:00000000H   CODE     ---       extern_iap_write_buff
*SFR* 000000D0H.5 DATA     BIT       F0
      00FF6832H   CODE     ---       fast_inv_sqrt
*SFR* 00000098H.7 DATA     BIT       FE
*DEL*:00000000H   CODE     ---       fifo_clear
      00FF6C5DH   CODE     ---       fifo_init
*DEL*:00000000H   CODE     ---       fifo_read_buffer
*DEL*:00000000H   CODE     ---       fifo_used
      00FF46EDH   CODE     ---       fifo_write_buffer
*DEL*:00000000H   CODE     ---       func_double_to_str
*DEL*:00000000H   CODE     ---       func_float_to_str
*DEL*:00000000H   CODE     ---       func_get_greatest_common_divisor
*DEL*:00000000H   CODE     ---       func_hex_to_str
*DEL*:00000000H   CODE     ---       func_int_to_str
*DEL*:00000000H   CODE     ---       func_soft_delay
*DEL*:00000000H   CODE     ---       func_str_to_double
*DEL*:00000000H   CODE     ---       func_str_to_float
*DEL*:00000000H   CODE     ---       func_str_to_hex
*DEL*:00000000H   CODE     ---       func_str_to_int
*DEL*:00000000H   CODE     ---       func_str_to_uint
*DEL*:00000000H   CODE     ---       func_uint_to_str
*DEL*:00000000H   CODE     ---       get_two_points_azimuth
*DEL*:00000000H   CODE     ---       get_two_points_distance
      00FF626CH   CODE     ---       gpio_get_level
      00FF6786H   CODE     ---       gpio_init
      00FF645DH   CODE     ---       gpio_set_impedance
      00FF53FEH   CODE     ---       gpio_set_level
      00FF4E9FH   CODE     ---       gpio_set_level_speed
*DEL*:00000000H   CODE     ---       gpio_toggle_level
*DEL*:00000000H   CODE     ---       gps_data_parse
      000103C6H   XDATA    INT       gps_gga_state
*DEL*:00000000H   CODE     ---       gps_init
      000103C8H   XDATA    INT       gps_rmc_state
      0001029AH   XDATA    ---       gps_tau1201
      00010219H   XDATA    BYTE      gps_tau1201_flag
      00010941H   XDATA    INT       gps_type
*DEL*:00000000H   CODE     ---       gps_uart_callback
*SFR* 000000F6H   DATA     BYTE      IAP_ADDRE
*SFR* 000000C3H   DATA     BYTE      IAP_ADDRH
*SFR* 000000C4H   DATA     BYTE      IAP_ADDRL
*SFR* 000000C5H   DATA     BYTE      IAP_CMD
*SFR* 000000C7H   DATA     BYTE      IAP_CONTR
*SFR* 000000C2H   DATA     BYTE      IAP_DATA
*DEL*:00000000H   CODE     ---       iap_erase_page
*DEL*:00000000H   CODE     ---       iap_get_cmd_state
*DEL*:00000000H   CODE     ---       iap_idle
*DEL*:00000000H   CODE     ---       iap_init
*DEL*:00000000H   CODE     ---       iap_read_buff
*DEL*:00000000H   CODE     ---       iap_read_byte
*DEL*:00000000H   CODE     ---       iap_set_tps
*SFR* 000000F5H   DATA     BYTE      IAP_TPS
*SFR* 000000C6H   DATA     BYTE      IAP_TRIG
*DEL*:00000000H   CODE     ---       iap_write_buff
*DEL*:00000000H   CODE     ---       iap_write_byte
      000108A0H   XDATA    INT       icm20602_acc_x
      000108A2H   XDATA    INT       icm20602_acc_y
      000108A4H   XDATA    INT       icm20602_acc_z
*DEL*:00000000H   CODE     ---       icm20602_get_acc
*DEL*:00000000H   CODE     ---       icm20602_get_gyro
      000108A6H   XDATA    INT       icm20602_gyro_x
      000108A8H   XDATA    INT       icm20602_gyro_y
      000108AAH   XDATA    INT       icm20602_gyro_z
L251 LINKER/LOCATER V4.66.93.0                                                        01/14/2026  23:11:45  PAGE 27


*DEL*:00000000H   CODE     ---       icm20602_init
      000108ACH   XDATA    ---       icm20602_transition_factor
*SFR* 000000A8H   DATA     BYTE      IE
*SFR* 000000A8H   DATA     BYTE      IE0
*SFR* 00000088H.1 DATA     BIT       IE0_
*SFR* 000000B1H   DATA     BYTE      IE1
*SFR* 00000088H.3 DATA     BIT       IE1_
*SFR* 000000AFH   DATA     BYTE      IE2
      000107BCH   XDATA    ---       imu
      000108B4H   XDATA    INT       imu660ra_acc_x
      000108B6H   XDATA    INT       imu660ra_acc_y
      000108B8H   XDATA    INT       imu660ra_acc_z
      00FF01CEH   CODE     ---       imu660ra_config_file
*DEL*:00000000H   CODE     ---       imu660ra_get_acc
*DEL*:00000000H   CODE     ---       imu660ra_get_gyro
      000108BAH   XDATA    INT       imu660ra_gyro_x
      000108BCH   XDATA    INT       imu660ra_gyro_y
      000108BEH   XDATA    INT       imu660ra_gyro_z
*DEL*:00000000H   CODE     ---       imu660ra_init
      000108C0H   XDATA    ---       imu660ra_transition_factor
      00FF7953H   CODE     ---       imu660rb_acc_transition
      000108FAH   XDATA    INT       imu660rb_acc_x
      000108FCH   XDATA    INT       imu660rb_acc_y
      000108FEH   XDATA    INT       imu660rb_acc_z
      00FF72E9H   CODE     ---       imu660rb_get_acc
      00FF7299H   CODE     ---       imu660rb_get_gyro
      00FF7941H   CODE     ---       imu660rb_gyro_transition
      00010900H   XDATA    INT       imu660rb_gyro_x
      00010902H   XDATA    INT       imu660rb_gyro_y
      00010904H   XDATA    INT       imu660rb_gyro_z
      00FF6E8EH   CODE     ---       imu660rb_init
      0001086AH   XDATA    INT       imu963ra_acc_x
      0001086CH   XDATA    INT       imu963ra_acc_y
      0001086EH   XDATA    INT       imu963ra_acc_z
*DEL*:00000000H   CODE     ---       imu963ra_get_acc
*DEL*:00000000H   CODE     ---       imu963ra_get_gyro
*DEL*:00000000H   CODE     ---       imu963ra_get_mag
      00010876H   XDATA    INT       imu963ra_gyro_x
      00010878H   XDATA    INT       imu963ra_gyro_y
      0001087AH   XDATA    INT       imu963ra_gyro_z
*DEL*:00000000H   CODE     ---       imu963ra_init
      00010870H   XDATA    INT       imu963ra_mag_x
      00010872H   XDATA    INT       imu963ra_mag_y
      00010874H   XDATA    INT       imu963ra_mag_z
      0001087CH   XDATA    ---       imu963ra_transition_factor
      00FF6A79H   CODE     ---       imu_get_data
      00FF0026H   CODE     ---       imu_init
      00FF5253H   CODE     ---       imu_quaternion_init
      00FF507BH   CODE     ---       imu_quaternion_to_euler
      00FF3661H   CODE     ---       imu_quaternion_update
      00010922H   XDATA    BYTE      imu_state
      00FF01AEH   CODE     ---       imu_update
*SFR* 000000B0H.2 DATA     BIT       INT0
      00010858H   XDATA    ---       int0_irq_handler
*SFR* 000000B0H.3 DATA     BIT       INT1
      0001085CH   XDATA    ---       int1_irq_handler
      00010860H   XDATA    ---       int2_irq_handler
      00010864H   XDATA    ---       int3_irq_handler
      00010868H   XDATA    ---       int4_irq_handler
*SFR* 0000008FH   DATA     BYTE      INTCLKO
*DEL*:00000000H   CODE     ---       interrupt_global_disable
      00FF001EH   CODE     ---       interrupt_global_enable
*DEL*:00000000H   CODE     ---       interrupt_set_priority
*SFR* 000000B8H   DATA     BYTE      IP
*SFR* 000000B5H   DATA     BYTE      IP2
L251 LINKER/LOCATER V4.66.93.0                                                        01/14/2026  23:11:45  PAGE 28


*SFR* 000000B6H   DATA     BYTE      IP2H
*SFR* 000000DFH   DATA     BYTE      IP3
*SFR* 000000EEH   DATA     BYTE      IP3H
*SFR* 000000B7H   DATA     BYTE      IPH
*SFR* 000000B7H   DATA     BYTE      IPH0
*SFR* 000000B8H   DATA     BYTE      IPL0
      0001092DH   XDATA    WORD      ips114_bgcolor
*DEL*:00000000H   CODE     ---       ips114_clear
      0001092FH   XDATA    INT       ips114_display_dir
*DEL*:00000000H   CODE     ---       ips114_draw_point
*DEL*:00000000H   CODE     ---       ips114_init
      0001092BH   XDATA    WORD      ips114_pencolor
*DEL*:00000000H   CODE     ---       ips114_set_color
*DEL*:00000000H   CODE     ---       ips114_set_dir
*DEL*:00000000H   CODE     ---       ips114_show_char
*DEL*:00000000H   CODE     ---       ips114_show_chinese
*DEL*:00000000H   CODE     ---       ips114_show_float
*DEL*:00000000H   CODE     ---       ips114_show_int16
*DEL*:00000000H   CODE     ---       ips114_show_int32
*DEL*:00000000H   CODE     ---       ips114_show_int8
*DEL*:00000000H   CODE     ---       ips114_show_string
*DEL*:00000000H   CODE     ---       ips114_show_uint16
*DEL*:00000000H   CODE     ---       ips114_show_uint8
*DEL*:00000000H   CODE     ---       ips114_show_wave
      00010931H   XDATA    BYTE      ips114_x_max
      00010932H   XDATA    BYTE      ips114_y_max
      00010908H   XDATA    WORD      ips200_bgcolor
*DEL*:00000000H   CODE     ---       ips200_clear
      0001090AH   XDATA    INT       ips200_display_dir
*DEL*:00000000H   CODE     ---       ips200_draw_point
*DEL*:00000000H   CODE     ---       ips200_init
      00010906H   XDATA    WORD      ips200_pencolor
*DEL*:00000000H   CODE     ---       ips200_set_color
*DEL*:00000000H   CODE     ---       ips200_set_dir
*DEL*:00000000H   CODE     ---       ips200_show_char
*DEL*:00000000H   CODE     ---       ips200_show_chinese
*DEL*:00000000H   CODE     ---       ips200_show_float
*DEL*:00000000H   CODE     ---       ips200_show_int16
*DEL*:00000000H   CODE     ---       ips200_show_int32
*DEL*:00000000H   CODE     ---       ips200_show_int8
*DEL*:00000000H   CODE     ---       ips200_show_string
*DEL*:00000000H   CODE     ---       ips200_show_uint16
*DEL*:00000000H   CODE     ---       ips200_show_uint8
*DEL*:00000000H   CODE     ---       ips200_show_wave
      0001090CH   XDATA    WORD      ips200_x_max
      0001090EH   XDATA    WORD      ips200_y_max
*DEL*:00000000H   CODE     ---       ips200pro_calendar_create
*DEL*:00000000H   CODE     ---       ips200pro_calendar_display
*DEL*:00000000H   CODE     ---       ips200pro_clock_create
*DEL*:00000000H   CODE     ---       ips200pro_container_create
*DEL*:00000000H   CODE     ---       ips200pro_container_radius
*DEL*:00000000H   CODE     ---       ips200pro_create_widgets
*DEL*:00000000H   CODE     ---       ips200pro_delete_widgets
*DEL*:00000000H   CODE     ---       ips200pro_get_date
*DEL*:00000000H   CODE     ---       ips200pro_get_free_stack_size
*DEL*:00000000H   CODE     ---       ips200pro_get_information
*DEL*:00000000H   CODE     ---       ips200pro_get_time
*DEL*:00000000H   CODE     ---       ips200pro_image_create
*DEL*:00000000H   CODE     ---       ips200pro_image_display
*DEL*:00000000H   CODE     ---       ips200pro_image_draw_line
*DEL*:00000000H   CODE     ---       ips200pro_image_draw_rectangle
      00010796H   XDATA    ---       ips200pro_information
*DEL*:00000000H   CODE     ---       ips200pro_init
*DEL*:00000000H   CODE     ---       ips200pro_label_create
*DEL*:00000000H   CODE     ---       ips200pro_label_mode
L251 LINKER/LOCATER V4.66.93.0                                                        01/14/2026  23:11:45  PAGE 29


*DEL*:00000000H   CODE     ---       ips200pro_label_printf
*DEL*:00000000H   CODE     ---       ips200pro_label_show_string
*DEL*:00000000H   CODE     ---       ips200pro_meter_create
*DEL*:00000000H   CODE     ---       ips200pro_meter_set_value
*DEL*:00000000H   CODE     ---       ips200pro_page_create
*DEL*:00000000H   CODE     ---       ips200pro_page_hidden
*DEL*:00000000H   CODE     ---       ips200pro_page_set_title_name
*DEL*:00000000H   CODE     ---       ips200pro_page_set_title_position_width
*DEL*:00000000H   CODE     ---       ips200pro_page_switch
*DEL*:00000000H   CODE     ---       ips200pro_progress_bar_create
*DEL*:00000000H   CODE     ---       ips200pro_progress_bar_set_value
*DEL*:00000000H   CODE     ---       ips200pro_read_parameter
*DEL*:00000000H   CODE     ---       ips200pro_receive_buffer
*DEL*:00000000H   CODE     ---       ips200pro_send_buffer
*DEL*:00000000H   CODE     ---       ips200pro_set_backlight
*DEL*:00000000H   CODE     ---       ips200pro_set_color
*DEL*:00000000H   CODE     ---       ips200pro_set_crc_state
*DEL*:00000000H   CODE     ---       ips200pro_set_date
*DEL*:00000000H   CODE     ---       ips200pro_set_default_font
*DEL*:00000000H   CODE     ---       ips200pro_set_direction
*DEL*:00000000H   CODE     ---       ips200pro_set_font
*DEL*:00000000H   CODE     ---       ips200pro_set_format
*DEL*:00000000H   CODE     ---       ips200pro_set_hidden
*DEL*:00000000H   CODE     ---       ips200pro_set_optimize
*DEL*:00000000H   CODE     ---       ips200pro_set_parent
*DEL*:00000000H   CODE     ---       ips200pro_set_position
*DEL*:00000000H   CODE     ---       ips200pro_set_time
*DEL*:00000000H   CODE     ---       ips200pro_table_cell_printf
*DEL*:00000000H   CODE     ---       ips200pro_table_create
*DEL*:00000000H   CODE     ---       ips200pro_table_select
*DEL*:00000000H   CODE     ---       ips200pro_table_set_col_width
      0001079FH   XDATA    ---       ips200pro_time
*DEL*:00000000H   CODE     ---       ips200pro_waveform_add_value
*DEL*:00000000H   CODE     ---       ips200pro_waveform_clear
*DEL*:00000000H   CODE     ---       ips200pro_waveform_create
*DEL*:00000000H   CODE     ---       ips200pro_waveform_line_state
*DEL*:00000000H   CODE     ---       ips200pro_waveform_line_type
*DEL*:00000000H   CODE     ---       ips200pro_write_packet
*SFR* 0000009DH   DATA     BYTE      IRCBAND
*SFR* 0000009FH   DATA     BYTE      IRTRIM
*SFR* 00000088H.0 DATA     BIT       IT0
*SFR* 00000088H.2 DATA     BIT       IT1
*DEL*:00000000H   CODE     ---       Key_Disp
      00010956H   XDATA    BYTE      key_down
      00FF7142H   CODE     ---       key_init
      00010957H   XDATA    BYTE      key_old
*DEL*:00000000H   CODE     ---       Key_Scan
      00010955H   XDATA    BYTE      key_up
      00010958H   XDATA    BYTE      key_val
      00010967H   XDATA    BYTE      lcd_cnt
*DEL*:00000000H   CODE     ---       Lcd_Disp
      00FF7965H   CODE     ---       Lcd_Init
      0001091EH   XDATA    FLOAT     left_target
*DEL*:00000000H   CODE     ---       limit
*SFR* 000000F9H   DATA     BYTE      LINICR
      00FF2D40H   CODE     NEAR LAB  log?_
      00FF7853H   CODE     ---       MAIN
      0001082EH   XDATA    ---       max_min_adc
      00FF782EH   CODE     ---       memcpy?_
*DEL*:00000000H   CODE     ---       memset?_
*DEL*:00000000H   CODE     ---       Motor_FanSet
      00FF6CD2H   CODE     ---       Motor_Init
      00FF7807H   CODE     ---       Motor_LeftBackward
      00FF77B8H   CODE     ---       Motor_LeftForward
      00FF5997H   CODE     ---       motor_pid_control
L251 LINKER/LOCATER V4.66.93.0                                                        01/14/2026  23:11:45  PAGE 30


      00FF77E0H   CODE     ---       Motor_RightBackward
      00FF7790H   CODE     ---       Motor_RightForward
*DEL*:00000000H   CODE     ---       Motor_Test
*DEL*:00000000H   CODE     ---       Normalization
*SFR* 000000D0H.2 DATA     BIT       OV
*SFR* 000000D0H.0 DATA     BIT       P
*SFR* 00000080H   DATA     BYTE      P0
*SFR* 00000094H   DATA     BYTE      P0M0
*SFR* 00000093H   DATA     BYTE      P0M1
*SFR* 00000090H   DATA     BYTE      P1
*SFR* 00000092H   DATA     BYTE      P1M0
*SFR* 00000091H   DATA     BYTE      P1M1
*SFR* 000000A0H   DATA     BYTE      P2
*SFR* 000000A0H.0 DATA     BIT       P20
*SFR* 000000A0H.1 DATA     BIT       P21
*SFR* 000000A0H.2 DATA     BIT       P22
*SFR* 00000096H   DATA     BYTE      P2M0
*SFR* 00000095H   DATA     BYTE      P2M1
*SFR* 000000B0H   DATA     BYTE      P3
*SFR* 000000B2H   DATA     BYTE      P3M0
*SFR* 000000B1H   DATA     BYTE      P3M1
*SFR* 000000C0H   DATA     BYTE      P4
*SFR* 000000C0H.0 DATA     BIT       P40
*SFR* 000000C0H.1 DATA     BIT       P41
*SFR* 000000C0H.2 DATA     BIT       P42
*SFR* 000000C0H.3 DATA     BIT       P43
*SFR* 000000B4H   DATA     BYTE      P4M0
*SFR* 000000B3H   DATA     BYTE      P4M1
*SFR* 000000C8H   DATA     BYTE      P5
*SFR* 000000CAH   DATA     BYTE      P5M0
*SFR* 000000C9H   DATA     BYTE      P5M1
*SFR* 000000E8H   DATA     BYTE      P6
*SFR* 000000CCH   DATA     BYTE      P6M0
*SFR* 000000CBH   DATA     BYTE      P6M1
*SFR* 000000F8H   DATA     BYTE      P7
*SFR* 000000E2H   DATA     BYTE      P7M0
*SFR* 000000E1H   DATA     BYTE      P7M1
*SFR* 000000A2H   DATA     BYTE      P_SW1
*SFR* 000000BAH   DATA     BYTE      P_SW2
*SFR* 000000BBH   DATA     BYTE      P_SW3
*SFR* 00000087H   DATA     BYTE      PCON
      00FF5AC8H   CODE     ---       pid_calc_increment
      00FF585CH   CODE     ---       pid_calc_position
*DEL*:00000000H   CODE     ---       pid_clear
*DEL*:00000000H   CODE     ---       pid_init
      00010587H   XDATA    ---       pid_motor_left
      00010547H   XDATA    ---       pid_motor_right
      00010507H   XDATA    ---       pid_SDSD
*DEL*:00000000H   CODE     ---       pid_set_param
*DEL*:00000000H   CODE     ---       pid_set_target
      00FF7738H   CODE     ---       pit_handler_1
      00FF0096H   CODE     ---       pit_handler_2
      00FF5701H   CODE     ---       pit_init
*DEL*:00000000H   CODE     ---       pow?_
*SFR* 000000B8H.6 DATA     BIT       PPC
      00FF247BH   CODE     NEAR LAB  printf
*SFR* 000000B8H.4 DATA     BIT       PS
*SFR* 000000D0H   DATA     BYTE      PSW
*SFR* 000000D1H   DATA     BYTE      PSW1
*SFR* 000000B8H.1 DATA     BIT       PT0
*SFR* 000000B8H.3 DATA     BIT       PT1
*SFR* 000000B8H.5 DATA     BIT       PT2
      00FF79A5H   CODE     ---       putchar
      00FF84ACH   HCONST   ---       PWM_ARR_ADDR
      00FF84B4H   HCONST   ---       PWM_CCER_ADDR
L251 LINKER/LOCATER V4.66.93.0                                                        01/14/2026  23:11:45  PAGE 31


      00FF84C4H   HCONST   ---       PWM_CCMR_ADDR
      00FF848CH   HCONST   ---       PWM_CCR_ADDR
      00FF3C09H   CODE     ---       pwm_init
      00FF8484H   HCONST   ---       PWM_PSCR_ADDR
      00FF5E3BH   CODE     ---       pwm_set_duty
*DEL*:00000000H   CODE     ---       pwm_set_freq
*SFR* 000000B8H.0 DATA     BIT       PX0
*SFR* 000000B8H.2 DATA     BIT       PX1
*SFR* 00000098H.2 DATA     BIT       RB8
*SFR* 000000CBH   DATA     BYTE      RCAP2H
*SFR* 000000CAH   DATA     BYTE      RCAP2L
*SFR* 000000C8H.5 DATA     BIT       RCLK
*SFR* 000000B0H.7 DATA     BIT       RD
*SFR* 00000098H.4 DATA     BIT       REN
      00010894H   XDATA    FLOAT     res
*SFR* 00000098H.0 DATA     BIT       RI
      0001091AH   XDATA    FLOAT     right_target
*SFR* 000000D0H.3 DATA     BIT       RS0
*SFR* 000000D0H.4 DATA     BIT       RS1
*SFR* 000000FFH   DATA     BYTE      RSTCFG
*SFR* 000000B0H.0 DATA     BIT       RXD
*SFR* 0000009BH   DATA     BYTE      S2BUF
*SFR* 0000009AH   DATA     BYTE      S2CON
*SFR* 0000009AH.1 DATA     BIT       S2TI
*SFR* 000000ACH   DATA     BYTE      S3CON
*SFR* 000000FDH   DATA     BYTE      S4CON
*SFR* 000000A9H   DATA     BYTE      SADDR
*SFR* 000000B9H   DATA     BYTE      SADEN
*SFR* 00000099H   DATA     BYTE      SBUF
*SFR* 00000098H   DATA     BYTE      SCON
      00010888H   XDATA    ---       SDSD
      00FF6060H   CODE     ---       SDSD_calculate
*DEL*:00000000H   CODE     ---       SDSD_init
*DEL*:00000000H   CODE     ---       seekfree_assistant_camera_boundary_config
*DEL*:00000000H   CODE     ---       seekfree_assistant_camera_data_send
*DEL*:00000000H   CODE     ---       seekfree_assistant_camera_dot_send
*DEL*:00000000H   CODE     ---       seekfree_assistant_camera_information_config
*DEL*:00000000H   CODE     ---       seekfree_assistant_camera_send
*DEL*:00000000H   CODE     ---       seekfree_assistant_data_analysis
*DEL*:00000000H   CODE     ---       seekfree_assistant_init
*DEL*:00000000H   CODE     ---       seekfree_assistant_interface_init
      000103D2H   XDATA    ---       seekfree_assistant_oscilloscope_data
*DEL*:00000000H   CODE     ---       seekfree_assistant_oscilloscope_send
      00010415H   XDATA    ---       seekfree_assistant_parameter
      0001040DH   XDATA    ---       seekfree_assistant_parameter_update_flag
      00010951H   XDATA    ---       seekfree_assistant_receive_callback
      00010953H   XDATA    ---       seekfree_assistant_transfer_callback
*DEL*:00000000H   CODE     ---       set_gps_type
      00FF616BH   CODE     ---       set_sys_clk
*DEL*:00000000H   CODE     ---       set_tof_type
*DEL*:00000000H   CODE     ---       set_wireless_type
      00FF25BCH   CODE     ---       sin?_
*SFR* 00000098H.7 DATA     BIT       SM0
*SFR* 00000098H.6 DATA     BIT       SM1
*SFR* 00000098H.5 DATA     BIT       SM2
      00FF7671H   CODE     ---       soft_iic_delay
*DEL*:00000000H   CODE     ---       soft_iic_init
*DEL*:00000000H   CODE     ---       soft_iic_read_16bit
*DEL*:00000000H   CODE     ---       soft_iic_read_16bit_array
*DEL*:00000000H   CODE     ---       soft_iic_read_16bit_register
*DEL*:00000000H   CODE     ---       soft_iic_read_16bit_registers
*DEL*:00000000H   CODE     ---       soft_iic_read_8bit
*DEL*:00000000H   CODE     ---       soft_iic_read_8bit_array
*DEL*:00000000H   CODE     ---       soft_iic_read_8bit_register
*DEL*:00000000H   CODE     ---       soft_iic_read_8bit_registers
L251 LINKER/LOCATER V4.66.93.0                                                        01/14/2026  23:11:45  PAGE 32


      00FF66D2H   CODE     ---       soft_iic_read_data
*DEL*:00000000H   CODE     ---       soft_iic_sccb_read_register
*DEL*:00000000H   CODE     ---       soft_iic_sccb_write_register
      00FF6D47H   CODE     ---       soft_iic_send_ack
      00FF6974H   CODE     ---       soft_iic_send_data
      00FF719CH   CODE     ---       soft_iic_start
      00FF6FC5H   CODE     ---       soft_iic_stop
*DEL*:00000000H   CODE     ---       soft_iic_transfer_16bit_array
*DEL*:00000000H   CODE     ---       soft_iic_transfer_8bit_array
      00FF6A00H   CODE     ---       soft_iic_wait_ack
*DEL*:00000000H   CODE     ---       soft_iic_write_16bit
*DEL*:00000000H   CODE     ---       soft_iic_write_16bit_array
*DEL*:00000000H   CODE     ---       soft_iic_write_16bit_register
*DEL*:00000000H   CODE     ---       soft_iic_write_16bit_registers
*DEL*:00000000H   CODE     ---       soft_iic_write_8bit
*DEL*:00000000H   CODE     ---       soft_iic_write_8bit_array
*DEL*:00000000H   CODE     ---       soft_iic_write_8bit_register
*DEL*:00000000H   CODE     ---       soft_iic_write_8bit_registers
*DEL*:00000000H   CODE     ---       soft_spi_delay
*DEL*:00000000H   CODE     ---       soft_spi_init
*DEL*:00000000H   CODE     ---       soft_spi_read_16bit
*DEL*:00000000H   CODE     ---       soft_spi_read_16bit_array
*DEL*:00000000H   CODE     ---       soft_spi_read_16bit_register
*DEL*:00000000H   CODE     ---       soft_spi_read_16bit_registers
*DEL*:00000000H   CODE     ---       soft_spi_read_8bit
*DEL*:00000000H   CODE     ---       soft_spi_read_8bit_array
*DEL*:00000000H   CODE     ---       soft_spi_read_8bit_register
*DEL*:00000000H   CODE     ---       soft_spi_read_8bit_registers
*DEL*:00000000H   CODE     ---       soft_spi_transfer_16bit
*DEL*:00000000H   CODE     ---       soft_spi_transfer_8bit
*DEL*:00000000H   CODE     ---       soft_spi_write_16bit
*DEL*:00000000H   CODE     ---       soft_spi_write_16bit_array
*DEL*:00000000H   CODE     ---       soft_spi_write_16bit_register
*DEL*:00000000H   CODE     ---       soft_spi_write_16bit_registers
*DEL*:00000000H   CODE     ---       soft_spi_write_8bit
*DEL*:00000000H   CODE     ---       soft_spi_write_8bit_array
*DEL*:00000000H   CODE     ---       soft_spi_write_8bit_register
*DEL*:00000000H   CODE     ---       soft_spi_write_8bit_registers
*SFR* 00000081H   DATA     BYTE      SP
*SFR* 000000CEH   DATA     BYTE      SPCTL
*SFR* 000000CFH   DATA     BYTE      SPDAT
*SFR* 000000BEH   DATA     BYTE      SPH
      00FF3FDAH   CODE     ---       spi_init
*DEL*:00000000H   CODE     ---       spi_read_16bit
*DEL*:00000000H   CODE     ---       spi_read_16bit_array
*DEL*:00000000H   CODE     ---       spi_read_16bit_register
*DEL*:00000000H   CODE     ---       spi_read_16bit_registers
*DEL*:00000000H   CODE     ---       spi_read_8bit
*DEL*:00000000H   CODE     ---       spi_read_8bit_array
*DEL*:00000000H   CODE     ---       spi_read_8bit_register
*DEL*:00000000H   CODE     ---       spi_read_8bit_registers
*DEL*:00000000H   CODE     ---       spi_read_dat
*DEL*:00000000H   CODE     ---       spi_transfer_16bit
*DEL*:00000000H   CODE     ---       spi_transfer_8bit
      00FF7905H   CODE     ---       spi_write_16bit
*DEL*:00000000H   CODE     ---       spi_write_16bit_array
*DEL*:00000000H   CODE     ---       spi_write_16bit_register
*DEL*:00000000H   CODE     ---       spi_write_16bit_registers
      00FF008EH   CODE     ---       spi_write_8bit
*DEL*:00000000H   CODE     ---       spi_write_8bit_array
*DEL*:00000000H   CODE     ---       spi_write_8bit_register
*DEL*:00000000H   CODE     ---       spi_write_8bit_registers
      00FF744BH   CODE     ---       spi_write_dat
      00FF24A7H   CODE     NEAR LAB  sprintf
*SFR* 000000CDH   DATA     BYTE      SPSTAT
L251 LINKER/LOCATER V4.66.93.0                                                        01/14/2026  23:11:45  PAGE 33


      00FF24C7H   CODE     ---       sqrt?_
*DEL*:00000000H   CODE     ---       strchr?_
*DEL*:00000000H   CODE     ---       strlen?_
*DEL*:00000000H   CODE     ---       strncmp?_
*DEL*:00000000H   CODE     ---       strncpy?_
      00010898H   XDATA    LONG      sub
      0001089CH   XDATA    LONG      sum
      00010949H   XDATA    LONG      system_clock
      00FF73C8H   CODE     ---       system_delay_init
      00FF78D7H   CODE     ---       system_delay_ms
*DEL*:00000000H   CODE     ---       system_delay_us
*SFR* 000000B0H.4 DATA     BIT       T0
*SFR* 000000B0H.5 DATA     BIT       T1
*SFR* 00000090H.0 DATA     BIT       T2
*SFR* 000000C8H   DATA     BYTE      T2CON
*SFR* 00000090H.1 DATA     BIT       T2EX
*SFR* 000000D6H   DATA     BYTE      T2H
*SFR* 000000D7H   DATA     BYTE      T2L
*SFR* 000000C9H   DATA     BYTE      T2MOD
*SFR* 000000D4H   DATA     BYTE      T3H
*SFR* 000000D5H   DATA     BYTE      T3L
*SFR* 000000D2H   DATA     BYTE      T4H
*SFR* 000000D3H   DATA     BYTE      T4L
*SFR* 000000DDH   DATA     BYTE      T4T3M
      00FF25E9H   CODE     ---       TAN?_
*SFR* 00000098H.3 DATA     BIT       TB8
*SFR* 000000C8H.4 DATA     BIT       TCLK
*SFR* 00000088H   DATA     BYTE      TCON
*SFR* 00000088H.5 DATA     BIT       TF0
*SFR* 00000088H.7 DATA     BIT       TF1
*SFR* 000000C8H.7 DATA     BIT       TF2
      00010935H   XDATA    WORD      tft180_bgcolor
      00FF6F60H   CODE     ---       tft180_clear
      00010937H   XDATA    INT       tft180_display_dir
*DEL*:00000000H   CODE     ---       tft180_draw_point
      00FF438FH   CODE     ---       tft180_init
      00010933H   XDATA    WORD      tft180_pencolor
      00FF000EH   CODE     ---       tft180_set_color
      00FF7877H   CODE     ---       tft180_set_dir
*DEL*:00000000H   CODE     ---       tft180_show_char
*DEL*:00000000H   CODE     ---       tft180_show_float
*DEL*:00000000H   CODE     ---       tft180_show_int16
*DEL*:00000000H   CODE     ---       tft180_show_int32
*DEL*:00000000H   CODE     ---       tft180_show_int8
*DEL*:00000000H   CODE     ---       tft180_show_string
*DEL*:00000000H   CODE     ---       tft180_show_uint16
*DEL*:00000000H   CODE     ---       tft180_show_uint8
*DEL*:00000000H   CODE     ---       tft180_show_wave
      00010939H   XDATA    BYTE      tft180_x_max
      0001093AH   XDATA    BYTE      tft180_y_max
*SFR* 0000008CH   DATA     BYTE      TH0
*SFR* 0000008DH   DATA     BYTE      TH1
*SFR* 000000CDH   DATA     BYTE      TH2
*SFR* 00000098H.1 DATA     BIT       TI
      00010856H   XDATA    ---       tim0_irq_handler
      0001084CH   XDATA    ---       tim11_irq_handler
      0001085AH   XDATA    ---       tim1_irq_handler
      0001085EH   XDATA    ---       tim2_irq_handler
      00010862H   XDATA    ---       tim3_irq_handler
      00010866H   XDATA    ---       tim4_irq_handler
      00FF76A9H   CODE     ---       timer_funciton_check
*SFR* 0000008AH   DATA     BYTE      TL0
*SFR* 0000008BH   DATA     BYTE      TL1
*SFR* 000000CCH   DATA     BYTE      TL2
      00FF7489H   CODE     ---       TM0_IRQHandler
L251 LINKER/LOCATER V4.66.93.0                                                        01/14/2026  23:11:45  PAGE 34


      00FF74C7H   CODE     ---       TM1_IRQHandler
      00FF7505H   CODE     ---       TM2_IRQHandler
      00FF7543H   CODE     ---       TM3_IRQHandler
      00FF7581H   CODE     ---       TM4_IRQHandler
*SFR* 00000089H   DATA     BYTE      TMOD
      0001093BH   XDATA    ---       tof_module_exti_handler
      0001093FH   XDATA    INT       tof_type
*SFR* 00000088H.4 DATA     BIT       TR0
*SFR* 00000088H.6 DATA     BIT       TR1
*SFR* 000000C8H.2 DATA     BIT       TR2
*DEL*:00000000H   CODE     ---       tsl1401_collect_pit_handler
      00010001H   XDATA    ---       tsl1401_data
      00010000H   XDATA    BYTE      tsl1401_finish_flag
*DEL*:00000000H   CODE     ---       tsl1401_init
*DEL*:00000000H   CODE     ---       tsl1401_send_data
*SFR* 000000B0H.1 DATA     BIT       TXD
      0001084EH   XDATA    ---       uart1_irq_handler
      00010850H   XDATA    ---       uart2_irq_handler
      00010852H   XDATA    ---       uart3_irq_handler
      00010854H   XDATA    ---       uart4_irq_handler
*DEL*:00000000H   CODE     ---       Uart_Disp
      00FF661BH   CODE     ---       uart_dma_init
      00FF76DAH   CODE     ---       uart_funciton_check
      00FF4CA9H   CODE     ---       uart_init
      00FF7339H   CODE     ---       uart_query_byte
*DEL*:00000000H   CODE     ---       uart_read_byte
      000108F6H   XDATA    ---       uart_rx_buff
      00FF75FCH   CODE     ---       uart_rx_interrupt
      00FF7088H   CODE     ---       uart_rx_start_buff
      00FF5D1FH   CODE     ---       uart_write_buffer
      00FF792EH   CODE     ---       uart_write_byte
*DEL*:00000000H   CODE     ---       uart_write_string
*SFR* 000000F4H   DATA     BYTE      USBCON
*SFR* 000000A6H   DATA     BYTE      VRTRIM
*DEL*:00000000H   CODE     ---       vsnprintf
*SFR* 000000C1H   DATA     BYTE      WDT_CONTR
*SFR* 000000A6H   DATA     BYTE      WDTRST
      0001093DH   XDATA    INT       wireless_type
*DEL*:00000000H   CODE     ---       wireless_uart_callback
*DEL*:00000000H   CODE     ---       wireless_uart_init
*DEL*:00000000H   CODE     ---       wireless_uart_read_buffer
*DEL*:00000000H   CODE     ---       wireless_uart_send_buffer
*DEL*:00000000H   CODE     ---       wireless_uart_send_byte
*DEL*:00000000H   CODE     ---       wireless_uart_send_string
*SFR* 000000B0H.6 DATA     BIT       WR
*SFR* 000000E9H   DATA     BYTE      WTST
*DEL*:00000000H   CODE     ---       zf_sprintf



SYMBOL TABLE OF MODULE:  .\out_file\SEEKFREE (?C_START)

      VALUE       REP       CLASS    TYPE      SYMBOL NAME
      ====================================================
      ---         MODULE    ---      ---       ?C_START
      00FF0000H   PUBLIC    CODE     ---       ?C?STARTUP
      00FF0000H   PUBLIC    CODE     ---       ?C_STARTUP
      000000D0H.6 SFRSYM    DATA     BIT       AC
      000000E0H   SFRSYM    DATA     BYTE      ACC
      000000F0H   SFRSYM    DATA     BYTE      B
      000000FAH   SFRSYM    DATA     BYTE      CCAP0H
      000000EAH   SFRSYM    DATA     BYTE      CCAP0L
      000000FBH   SFRSYM    DATA     BYTE      CCAP1H
      000000EBH   SFRSYM    DATA     BYTE      CCAP1L
      000000FCH   SFRSYM    DATA     BYTE      CCAP2H
L251 LINKER/LOCATER V4.66.93.0                                                        01/14/2026  23:11:45  PAGE 35


      000000ECH   SFRSYM    DATA     BYTE      CCAP2L
      000000FDH   SFRSYM    DATA     BYTE      CCAP3H
      000000EDH   SFRSYM    DATA     BYTE      CCAP3L
      000000FEH   SFRSYM    DATA     BYTE      CCAP4H
      000000EEH   SFRSYM    DATA     BYTE      CCAP4L
      000000DAH   SFRSYM    DATA     BYTE      CCAPM0
      000000DBH   SFRSYM    DATA     BYTE      CCAPM1
      000000DCH   SFRSYM    DATA     BYTE      CCAPM2
      000000DDH   SFRSYM    DATA     BYTE      CCAPM3
      000000DEH   SFRSYM    DATA     BYTE      CCAPM4
      000000D8H.0 SFRSYM    DATA     BIT       CCF0
      000000D8H.1 SFRSYM    DATA     BIT       CCF1
      000000D8H.2 SFRSYM    DATA     BIT       CCF2
      000000D8H.3 SFRSYM    DATA     BIT       CCF3
      000000D8H.4 SFRSYM    DATA     BIT       CCF4
      000000D8H   SFRSYM    DATA     BYTE      CCON
      00000090H.3 SFRSYM    DATA     BIT       CEX0
      00000090H.4 SFRSYM    DATA     BIT       CEX1
      00000090H.5 SFRSYM    DATA     BIT       CEX2
      00000090H.6 SFRSYM    DATA     BIT       CEX3
      00000090H.7 SFRSYM    DATA     BIT       CEX4
      000000D8H.7 SFRSYM    DATA     BIT       CF
      000000F9H   SFRSYM    DATA     BYTE      CH
      000000E9H   SFRSYM    DATA     BYTE      CL
      000000D9H   SFRSYM    DATA     BYTE      CMOD
      000000C8H.0 SFRSYM    DATA     BIT       CP_RL2
      000000D8H.6 SFRSYM    DATA     BIT       CR
      000000D0H.7 SFRSYM    DATA     BIT       CY
      000000C8H.1 SFRSYM    DATA     BIT       C_T2
      00000083H   SFRSYM    DATA     BYTE      DPH
      00000082H   SFRSYM    DATA     BYTE      DPL
      00000084H   SFRSYM    DATA     BYTE      DPXL
      000000A8H.7 SFRSYM    DATA     BIT       EA
      000000A8H.6 SFRSYM    DATA     BIT       EC
      00000090H.2 SFRSYM    DATA     BIT       ECI
      000000A8H.4 SFRSYM    DATA     BIT       ES
      000000A8H.1 SFRSYM    DATA     BIT       ET0
      000000A8H.3 SFRSYM    DATA     BIT       ET1
      000000A8H.5 SFRSYM    DATA     BIT       ET2
      000000A8H.0 SFRSYM    DATA     BIT       EX0
      000000A8H.2 SFRSYM    DATA     BIT       EX1
      000000C8H.3 SFRSYM    DATA     BIT       EXEN2
      000000C8H.6 SFRSYM    DATA     BIT       EXF2
      000000D0H.5 SFRSYM    DATA     BIT       F0
      00000098H.7 SFRSYM    DATA     BIT       FE
      000000A8H   SFRSYM    DATA     BYTE      IE0
      00000088H.1 SFRSYM    DATA     BIT       IE0_
      000000B1H   SFRSYM    DATA     BYTE      IE1
      00000088H.3 SFRSYM    DATA     BIT       IE1_
      000000B0H.2 SFRSYM    DATA     BIT       INT0
      000000B0H.3 SFRSYM    DATA     BIT       INT1
      000000B7H   SFRSYM    DATA     BYTE      IPH0
      000000B8H   SFRSYM    DATA     BYTE      IPL0
      00000088H.0 SFRSYM    DATA     BIT       IT0
      00000088H.2 SFRSYM    DATA     BIT       IT1
      000000D0H.2 SFRSYM    DATA     BIT       OV
      000000D0H.0 SFRSYM    DATA     BIT       P
      00000080H   SFRSYM    DATA     BYTE      P0
      00000090H   SFRSYM    DATA     BYTE      P1
      000000A0H   SFRSYM    DATA     BYTE      P2
      000000B0H   SFRSYM    DATA     BYTE      P3
      00000087H   SFRSYM    DATA     BYTE      PCON
      000000B8H.6 SFRSYM    DATA     BIT       PPC
      000000B8H.4 SFRSYM    DATA     BIT       PS
      000000D0H   SFRSYM    DATA     BYTE      PSW
L251 LINKER/LOCATER V4.66.93.0                                                        01/14/2026  23:11:45  PAGE 36


      000000D1H   SFRSYM    DATA     BYTE      PSW1
      000000B8H.1 SFRSYM    DATA     BIT       PT0
      000000B8H.3 SFRSYM    DATA     BIT       PT1
      000000B8H.5 SFRSYM    DATA     BIT       PT2
      000000B8H.0 SFRSYM    DATA     BIT       PX0
      000000B8H.2 SFRSYM    DATA     BIT       PX1
      00000098H.2 SFRSYM    DATA     BIT       RB8
      000000CBH   SFRSYM    DATA     BYTE      RCAP2H
      000000CAH   SFRSYM    DATA     BYTE      RCAP2L
      000000C8H.5 SFRSYM    DATA     BIT       RCLK
      000000B0H.7 SFRSYM    DATA     BIT       RD
      00000098H.4 SFRSYM    DATA     BIT       REN
      00000098H.0 SFRSYM    DATA     BIT       RI
      000000D0H.3 SFRSYM    DATA     BIT       RS0
      000000D0H.4 SFRSYM    DATA     BIT       RS1
      000000B0H.0 SFRSYM    DATA     BIT       RXD
      000000A9H   SFRSYM    DATA     BYTE      SADDR
      000000B9H   SFRSYM    DATA     BYTE      SADEN
      00000099H   SFRSYM    DATA     BYTE      SBUF
      00000098H   SFRSYM    DATA     BYTE      SCON
      00000098H.7 SFRSYM    DATA     BIT       SM0
      00000098H.6 SFRSYM    DATA     BIT       SM1
      00000098H.5 SFRSYM    DATA     BIT       SM2
      00000081H   SFRSYM    DATA     BYTE      SP
      000000BEH   SFRSYM    DATA     BYTE      SPH
      000000B0H.4 SFRSYM    DATA     BIT       T0
      000000B0H.5 SFRSYM    DATA     BIT       T1
      00000090H.0 SFRSYM    DATA     BIT       T2
      000000C8H   SFRSYM    DATA     BYTE      T2CON
      00000090H.1 SFRSYM    DATA     BIT       T2EX
      000000C9H   SFRSYM    DATA     BYTE      T2MOD
      00000098H.3 SFRSYM    DATA     BIT       TB8
      000000C8H.4 SFRSYM    DATA     BIT       TCLK
      00000088H   SFRSYM    DATA     BYTE      TCON
      00000088H.5 SFRSYM    DATA     BIT       TF0
      00000088H.7 SFRSYM    DATA     BIT       TF1
      000000C8H.7 SFRSYM    DATA     BIT       TF2
      0000008CH   SFRSYM    DATA     BYTE      TH0
      0000008DH   SFRSYM    DATA     BYTE      TH1
      000000CDH   SFRSYM    DATA     BYTE      TH2
      00000098H.1 SFRSYM    DATA     BIT       TI
      0000008AH   SFRSYM    DATA     BYTE      TL0
      0000008BH   SFRSYM    DATA     BYTE      TL1
      000000CCH   SFRSYM    DATA     BYTE      TL2
      00000089H   SFRSYM    DATA     BYTE      TMOD
      00000088H.4 SFRSYM    DATA     BIT       TR0
      00000088H.6 SFRSYM    DATA     BIT       TR1
      000000C8H.2 SFRSYM    DATA     BIT       TR2
      000000B0H.1 SFRSYM    DATA     BIT       TXD
      000000A6H   SFRSYM    DATA     BYTE      WDTRST
      000000B0H.6 SFRSYM    DATA     BIT       WR
      00000800H   SYMBOL    NUMBER   ---       EDATALEN
      00FF71FBH   SYMBOL    CODE     ---       EDATALOOP
      00000001H   SYMBOL    NUMBER   ---       EDF
      00000001H   SYMBOL    NUMBER   ---       EMAP
      00000000H   SYMBOL    NUMBER   ---       HDATALEN
      00010000H   SYMBOL    NUMBER   ---       HDATASTART
      00000000H   SYMBOL    NUMBER   ---       IBPSTACK
      00000100H   SYMBOL    NUMBER   ---       IBPSTACKTOP
      00000001H   SYMBOL    NUMBER   ---       INTR
      00000001H   SYMBOL    NUMBER   ---       PAGM
      00000003H   SYMBOL    NUMBER   ---       RDRG
      00000001H   SYMBOL    NUMBER   ---       SRCM
      00000800H   SYMBOL    NUMBER   ---       STACKSIZE
      00FF71F3H   SYMBOL    CODE     ---       STARTUP1
L251 LINKER/LOCATER V4.66.93.0                                                        01/14/2026  23:11:45  PAGE 37


      00000003H   SYMBOL    NUMBER   ---       WSA
      00000003H   SYMBOL    NUMBER   ---       WSB
      00000001H   SYMBOL    NUMBER   ---       XALE
      00000000H   SYMBOL    NUMBER   ---       XBPSTACK
      00010000H   SYMBOL    NUMBER   ---       XBPSTACKTOP
      00008000H   SYMBOL    NUMBER   ---       XDATALEN
      00FF720AH   SYMBOL    CODE     ---       XDATALOOP
      00010000H   SYMBOL    NUMBER   ---       XDATASTART

      00FF0000H   BLOCK     CODE     NEAR LAB  LVL=0
      00FF0000H   LINE      CODE     ---       #183
      ---         BLOCKEND  ---      ---       LVL=0

      00FF71F3H   BLOCK     CODE     NEAR LAB  LVL=0
      00FF71F3H   LINE      CODE     ---       #188
      00FF71F6H   LINE      CODE     ---       #191
      00FF71FAH   LINE      CODE     ---       #192
      00FF71FBH   LINE      CODE     ---       #193
      00FF71FEH   LINE      CODE     ---       #194
      00FF7200H   LINE      CODE     ---       #195
      00FF7202H   LINE      CODE     ---       #199
      00FF7205H   LINE      CODE     ---       #200
      00FF7209H   LINE      CODE     ---       #201
      00FF720AH   LINE      CODE     ---       #202
      00FF720BH   LINE      CODE     ---       #203
      00FF720CH   LINE      CODE     ---       #204
      00FF720EH   LINE      CODE     ---       #205
      00FF7210H   LINE      CODE     ---       #235
      ---         BLOCKEND  ---      ---       LVL=0

      00FF7245H   BLOCK     CODE     NEAR LAB  LVL=0
      00FF7245H   LINE      CODE     ---       #238
      ---         BLOCKEND  ---      ---       LVL=0

      ---         MODULE    ---      ---       stc32g_isr

      00FF019BH   BLOCK     CODE     NEAR LAB  LVL=0
      00FF019BH   LINE      CODE     ---       #3
      ---         BLOCKEND  ---      ---       LVL=0

      00FF01ABH   BLOCK     CODE     NEAR LAB  LVL=0
      00FF01ABH   LINE      CODE     ---       #6
      ---         BLOCKEND  ---      ---       LVL=0

      00FF01BBH   BLOCK     CODE     NEAR LAB  LVL=0
      00FF01BBH   LINE      CODE     ---       #9
      ---         BLOCKEND  ---      ---       LVL=0

      00FF01CBH   BLOCK     CODE     NEAR LAB  LVL=0
      00FF01CBH   LINE      CODE     ---       #12
      ---         BLOCKEND  ---      ---       LVL=0

      ---         MODULE    ---      ---       zf_common_clock
      00FF6E24H   PUBLIC    CODE     ---       clock_init
      00FF616BH   PUBLIC    CODE     ---       set_sys_clk
      00010949H   PUBLIC    XDATA    LONG      system_clock
      00000094H   SFRSYM    DATA     BYTE      P0M0
      000000D0H   SFRSYM    DATA     BYTE      PSW
      000000BAH.7 SFRSYM    DATA     BIT       EAXFR
      0000009DH   SFRSYM    DATA     BYTE      IRCBAND
      00000097H   SFRSYM    DATA     BYTE      AUXR2
      000000EAH   SFRSYM    DATA     BYTE      CKCON
      000000EFH   SFRSYM    DATA     BYTE      AUXINTIF
      000000FDH   SFRSYM    DATA     BYTE      S4CON
      000000ACH   SFRSYM    DATA     BYTE      S3CON
L251 LINKER/LOCATER V4.66.93.0                                                        01/14/2026  23:11:45  PAGE 38


      0000009AH   SFRSYM    DATA     BYTE      S2CON
      000000A6H   SFRSYM    DATA     BYTE      VRTRIM
      000000B7H   SFRSYM    DATA     BYTE      IPH
      000000CDH   SFRSYM    DATA     BYTE      SPSTAT
      000000DDH   SFRSYM    DATA     BYTE      T4T3M
      0000009FH   SFRSYM    DATA     BYTE      IRTRIM
      000000C1H   SFRSYM    DATA     BYTE      WDT_CONTR
      000000E9H   SFRSYM    DATA     BYTE      WTST
      000000DFH   SFRSYM    DATA     BYTE      IP3
      000000F4H   SFRSYM    DATA     BYTE      USBCON
      000000B5H   SFRSYM    DATA     BYTE      IP2
      000000FFH   SFRSYM    DATA     BYTE      RSTCFG
      000000C7H   SFRSYM    DATA     BYTE      IAP_CONTR
      000000F9H   SFRSYM    DATA     BYTE      LINICR
      0000008EH   SFRSYM    DATA     BYTE      AUXR
      000000AFH   SFRSYM    DATA     BYTE      IE2
      00000088H   SFRSYM    DATA     BYTE      TCON
      00000089H   SFRSYM    DATA     BYTE      TMOD
      00000098H   SFRSYM    DATA     BYTE      SCON
      000000F1H   SFRSYM    DATA     BYTE      CANICR
      00000087H   SFRSYM    DATA     BYTE      PCON
      000000BCH   SFRSYM    DATA     BYTE      ADC_CONTR
      000000E7H   SFRSYM    DATA     BYTE      CMPCR2
      000000E6H   SFRSYM    DATA     BYTE      CMPCR1
      000000DEH   SFRSYM    DATA     BYTE      ADCCFG
      000000B8H   SFRSYM    DATA     BYTE      IP
      0000008FH   SFRSYM    DATA     BYTE      INTCLKO
      000000EEH   SFRSYM    DATA     BYTE      IP3H
      000000B6H   SFRSYM    DATA     BYTE      IP2H
      000000A8H   SFRSYM    DATA     BYTE      IE
      000000BBH   SFRSYM    DATA     BYTE      P_SW3
      000000BAH   SFRSYM    DATA     BYTE      P_SW2
      000000A2H   SFRSYM    DATA     BYTE      P_SW1
      000000CEH   SFRSYM    DATA     BYTE      SPCTL
      000000F8H   SFRSYM    DATA     BYTE      P7
      000000E1H   SFRSYM    DATA     BYTE      P7M1
      000000E8H   SFRSYM    DATA     BYTE      P6
      000000C8H   SFRSYM    DATA     BYTE      P5
      000000CBH   SFRSYM    DATA     BYTE      P6M1
      000000E2H   SFRSYM    DATA     BYTE      P7M0
      000000C0H   SFRSYM    DATA     BYTE      P4
      000000C9H   SFRSYM    DATA     BYTE      P5M1
      000000CCH   SFRSYM    DATA     BYTE      P6M0
      000000B0H   SFRSYM    DATA     BYTE      P3
      000000B3H   SFRSYM    DATA     BYTE      P4M1
      000000CAH   SFRSYM    DATA     BYTE      P5M0
      000000A0H   SFRSYM    DATA     BYTE      P2
      000000B1H   SFRSYM    DATA     BYTE      P3M1
      000000B4H   SFRSYM    DATA     BYTE      P4M0
      00000090H   SFRSYM    DATA     BYTE      P1
      00000095H   SFRSYM    DATA     BYTE      P2M1
      000000B2H   SFRSYM    DATA     BYTE      P3M0
      00000080H   SFRSYM    DATA     BYTE      P0
      00000091H   SFRSYM    DATA     BYTE      P1M1
      00000096H   SFRSYM    DATA     BYTE      P2M0
      00000092H   SFRSYM    DATA     BYTE      P1M0
      00000093H   SFRSYM    DATA     BYTE      P0M1

      00FF616BH   BLOCK     CODE     ---       LVL=0
      DR0         REGSYM    ---      DWORD     sys_clk
      00FF616BH   LINE      CODE     ---       #54
      00FF616DH   LINE      CODE     ---       #57
      00FF6170H   LINE      CODE     ---       #59
      00FF61AFH   LINE      CODE     ---       #61
      00FF61AFH   LINE      CODE     ---       #63
L251 LINKER/LOCATER V4.66.93.0                                                        01/14/2026  23:11:45  PAGE 39


      00FF61BCH   LINE      CODE     ---       #64
      00FF61C0H   LINE      CODE     ---       #65
      00FF61C0H   LINE      CODE     ---       #66
      00FF61C0H   LINE      CODE     ---       #67
      00FF61C0H   LINE      CODE     ---       #68
      00FF61C3H   LINE      CODE     ---       #70
      00FF61C3H   LINE      CODE     ---       #72
      00FF61D0H   LINE      CODE     ---       #73
      00FF61D4H   LINE      CODE     ---       #74
      00FF61D4H   LINE      CODE     ---       #75
      00FF61D4H   LINE      CODE     ---       #76
      00FF61D4H   LINE      CODE     ---       #77
      00FF61D6H   LINE      CODE     ---       #79
      00FF61D6H   LINE      CODE     ---       #81
      00FF61E3H   LINE      CODE     ---       #82
      00FF61E7H   LINE      CODE     ---       #83
      00FF61E7H   LINE      CODE     ---       #84
      00FF61E7H   LINE      CODE     ---       #85
      00FF61E7H   LINE      CODE     ---       #86
      00FF61E9H   LINE      CODE     ---       #88
      00FF61E9H   LINE      CODE     ---       #90
      00FF61F6H   LINE      CODE     ---       #91
      00FF61FAH   LINE      CODE     ---       #92
      00FF61FAH   LINE      CODE     ---       #93
      00FF61FAH   LINE      CODE     ---       #94
      00FF61FAH   LINE      CODE     ---       #95
      00FF61FCH   LINE      CODE     ---       #97
      00FF61FCH   LINE      CODE     ---       #99
      00FF6209H   LINE      CODE     ---       #100
      00FF620DH   LINE      CODE     ---       #101
      00FF620DH   LINE      CODE     ---       #102
      00FF620DH   LINE      CODE     ---       #103
      00FF620DH   LINE      CODE     ---       #104
      00FF620FH   LINE      CODE     ---       #106
      00FF620FH   LINE      CODE     ---       #108
      00FF621CH   LINE      CODE     ---       #109
      00FF6229H   LINE      CODE     ---       #110
      00FF6232H   LINE      CODE     ---       #111
      00FF6235H   LINE      CODE     ---       #112
      00FF6235H   LINE      CODE     ---       #113
      00FF6237H   LINE      CODE     ---       #115
      00FF6237H   LINE      CODE     ---       #116
      00FF623FH   LINE      CODE     ---       #118
      00FF624CH   LINE      CODE     ---       #119
      00FF6259H   LINE      CODE     ---       #120
      00FF6262H   LINE      CODE     ---       #121
      00FF6265H   LINE      CODE     ---       #122
      00FF6269H   LINE      CODE     ---       #123
      00FF6269H   LINE      CODE     ---       #124
      00FF6269H   LINE      CODE     ---       #126
      00FF626BH   LINE      CODE     ---       #127
      ---         BLOCKEND  ---      ---       LVL=0

      00FF6E24H   BLOCK     CODE     ---       LVL=0
      DR0         REGSYM    ---      DWORD     clock
      00FF6E24H   LINE      CODE     ---       #132
      00FF6E24H   LINE      CODE     ---       #134
      00FF6E27H   LINE      CODE     ---       #135
      00FF6E2AH   LINE      CODE     ---       #136
      00FF6E2DH   LINE      CODE     ---       #137
      00FF6E30H   LINE      CODE     ---       #147
      00FF6E3DH   LINE      CODE     ---       #153
      00FF6E40H   LINE      CODE     ---       #156
      00FF6E43H   LINE      CODE     ---       #157
      00FF6E46H   LINE      CODE     ---       #158
L251 LINKER/LOCATER V4.66.93.0                                                        01/14/2026  23:11:45  PAGE 40


      00FF6E49H   LINE      CODE     ---       #159
      00FF6E4CH   LINE      CODE     ---       #160
      00FF6E4FH   LINE      CODE     ---       #161
      00FF6E52H   LINE      CODE     ---       #162
      00FF6E55H   LINE      CODE     ---       #163
      00FF6E58H   LINE      CODE     ---       #164
      00FF6E5BH   LINE      CODE     ---       #165
      00FF6E5EH   LINE      CODE     ---       #166
      00FF6E61H   LINE      CODE     ---       #167
      00FF6E64H   LINE      CODE     ---       #168
      00FF6E67H   LINE      CODE     ---       #169
      00FF6E6AH   LINE      CODE     ---       #170
      00FF6E6DH   LINE      CODE     ---       #171
      00FF6E70H   LINE      CODE     ---       #173
      00FF6E73H   LINE      CODE     ---       #174
      00FF6E76H   LINE      CODE     ---       #175
      00FF6E79H   LINE      CODE     ---       #176
      00FF6E7CH   LINE      CODE     ---       #177
      00FF6E7FH   LINE      CODE     ---       #178
      00FF6E82H   LINE      CODE     ---       #179
      00FF6E85H   LINE      CODE     ---       #180
      00FF6E88H   LINE      CODE     ---       #181
      00FF6E8BH   LINE      CODE     ---       #183
      ---         BLOCKEND  ---      ---       LVL=0

      ---         MODULE    ---      ---       zf_common_debug
      00FF7638H   PUBLIC    CODE     ---       debug_interrupr_handler
      00FF70E8H   PUBLIC    CODE     ---       debug_init
      00FF6EF8H   PUBLIC    CODE     ---       debug_assert_handler
      00FF79A5H   PUBLIC    CODE     ---       putchar
      0001065CH   PUBLIC    XDATA    ---       debug_uart_buffer
      0001069DH   PUBLIC    XDATA    ---       debug_uart_fifo
      000000D0H   SFRSYM    DATA     BYTE      PSW
      0000009DH   SFRSYM    DATA     BYTE      IRCBAND
      00000097H   SFRSYM    DATA     BYTE      AUXR2
      000000EFH   SFRSYM    DATA     BYTE      AUXINTIF
      000000FDH   SFRSYM    DATA     BYTE      S4CON
      000000ACH   SFRSYM    DATA     BYTE      S3CON
      0000009AH   SFRSYM    DATA     BYTE      S2CON
      000000B7H   SFRSYM    DATA     BYTE      IPH
      000000CDH   SFRSYM    DATA     BYTE      SPSTAT
      000000DDH   SFRSYM    DATA     BYTE      T4T3M
      000000C1H   SFRSYM    DATA     BYTE      WDT_CONTR
      000000DFH   SFRSYM    DATA     BYTE      IP3
      000000F4H   SFRSYM    DATA     BYTE      USBCON
      000000B5H   SFRSYM    DATA     BYTE      IP2
      000000FFH   SFRSYM    DATA     BYTE      RSTCFG
      000000C7H   SFRSYM    DATA     BYTE      IAP_CONTR
      000000F9H   SFRSYM    DATA     BYTE      LINICR
      0000008EH   SFRSYM    DATA     BYTE      AUXR
      000000AFH   SFRSYM    DATA     BYTE      IE2
      00000088H   SFRSYM    DATA     BYTE      TCON
      00000089H   SFRSYM    DATA     BYTE      TMOD
      00000098H   SFRSYM    DATA     BYTE      SCON
      000000F1H   SFRSYM    DATA     BYTE      CANICR
      00000087H   SFRSYM    DATA     BYTE      PCON
      000000BCH   SFRSYM    DATA     BYTE      ADC_CONTR
      000000E7H   SFRSYM    DATA     BYTE      CMPCR2
      000000E6H   SFRSYM    DATA     BYTE      CMPCR1
      000000DEH   SFRSYM    DATA     BYTE      ADCCFG
      000000B8H   SFRSYM    DATA     BYTE      IP
      0000008FH   SFRSYM    DATA     BYTE      INTCLKO
      000000EEH   SFRSYM    DATA     BYTE      IP3H
      000000B6H   SFRSYM    DATA     BYTE      IP2H
      000000A8H   SFRSYM    DATA     BYTE      IE
L251 LINKER/LOCATER V4.66.93.0                                                        01/14/2026  23:11:45  PAGE 41


      000000BBH   SFRSYM    DATA     BYTE      P_SW3
      000000BAH   SFRSYM    DATA     BYTE      P_SW2
      000000A2H   SFRSYM    DATA     BYTE      P_SW1
      000000CEH   SFRSYM    DATA     BYTE      SPCTL
      000000F8H   SFRSYM    DATA     BYTE      P7
      000000E8H   SFRSYM    DATA     BYTE      P6
      000000C8H   SFRSYM    DATA     BYTE      P5
      000000C0H   SFRSYM    DATA     BYTE      P4
      000000B0H   SFRSYM    DATA     BYTE      P3
      000000A0H   SFRSYM    DATA     BYTE      P2
      00000090H   SFRSYM    DATA     BYTE      P1
      00000080H   SFRSYM    DATA     BYTE      P0
      00FF8933H   SYMBOL    HCONST   ---       ?tpl?0001
      0001069CH   SYMBOL    XDATA    BYTE      zf_debug_assert_enable
      000106B4H   SYMBOL    XDATA    BYTE      zf_debug_init_flag
      REG=2       REGSYM    ---      ---       buff
      DR12        REGSYM    ---      DWORD     len
      REG=2       REGSYM    ---      ---       buff

      00FF7638H   BLOCK     CODE     ---       LVL=0
      000105C7H   SYMBOL    XDATA    BYTE      dat
      00FF7638H   LINE      CODE     ---       #281
      00FF763CH   LINE      CODE     ---       #283
      00FF7642H   LINE      CODE     ---       #285
      00FF764FH   LINE      CODE     ---       #286
      00FF7670H   LINE      CODE     ---       #287
      ---         BLOCKEND  ---      ---       LVL=0

      00FF79A5H   BLOCK     CODE     ---       LVL=0
      R15         REGSYM    ---      CHAR      c
      00FF79A5H   LINE      CODE     ---       #303
      00FF79A9H   LINE      CODE     ---       #305
      00FF79AEH   LINE      CODE     ---       #307
      00FF79B0H   LINE      CODE     ---       #308
      ---         BLOCKEND  ---      ---       LVL=0

      00FF6EF8H   BLOCK     CODE     ---       LVL=0
      000105DDH   SYMBOL    XDATA    BYTE      pass
      REG=3       REGSYM    ---      ---       file
      000105DEH   SYMBOL    XDATA    INT       line
      00FF6F06H   BLOCK     CODE     NEAR LAB  LVL=1
      000105E0H   SYMBOL    XDATA    ---       log_str
      ---         BLOCKEND  ---      ---       LVL=1
      00FF6EF8H   LINE      CODE     ---       #346
      00FF6F06H   LINE      CODE     ---       #347
      00FF6F06H   LINE      CODE     ---       #348
      00FF6F1BH   LINE      CODE     ---       #350
      00FF6F1DH   LINE      CODE     ---       #366
      00FF6F50H   LINE      CODE     ---       #369
      00FF6F57H   LINE      CODE     ---       #370
      00FF6F5DH   LINE      CODE     ---       #371
      ---         BLOCKEND  ---      ---       LVL=0

      00FF70E8H   BLOCK     CODE     ---       LVL=0
      00FF70E8H   LINE      CODE     ---       #453
      00FF70E8H   LINE      CODE     ---       #454
      00FF70E8H   LINE      CODE     ---       #455
      00FF70E8H   LINE      CODE     ---       #461
      00FF7103H   LINE      CODE     ---       #468
      00FF7130H   LINE      CODE     ---       #469
      00FF7137H   LINE      CODE     ---       #472
      00FF7137H   LINE      CODE     ---       #474
      00FF7141H   LINE      CODE     ---       #475
      00FF7141H   LINE      CODE     ---       #476
      00FF7141H   LINE      CODE     ---       #478
L251 LINKER/LOCATER V4.66.93.0                                                        01/14/2026  23:11:45  PAGE 42


      00FF7141H   LINE      CODE     ---       #480
      00FF7141H   LINE      CODE     ---       #482
      00FF7141H   LINE      CODE     ---       #484
      00FF7141H   LINE      CODE     ---       #486
      00FF7141H   LINE      CODE     ---       #487
      ---         BLOCKEND  ---      ---       LVL=0

      ---         MODULE    ---      ---       zf_common_fifo
      00FF46EDH   PUBLIC    CODE     ---       fifo_write_buffer
      00FF6C5DH   PUBLIC    CODE     ---       fifo_init
      000105C4H   PUBLIC    XDATA    BYTE      ?fifo_write_buffer?BYTE
      000105C3H   PUBLIC    XDATA    BYTE      ?fifo_init?BYTE
      000000D0H   SFRSYM    DATA     BYTE      PSW
      0000009DH   SFRSYM    DATA     BYTE      IRCBAND
      00000097H   SFRSYM    DATA     BYTE      AUXR2
      000000EFH   SFRSYM    DATA     BYTE      AUXINTIF
      000000FDH   SFRSYM    DATA     BYTE      S4CON
      000000ACH   SFRSYM    DATA     BYTE      S3CON
      0000009AH   SFRSYM    DATA     BYTE      S2CON
      000000B7H   SFRSYM    DATA     BYTE      IPH
      000000CDH   SFRSYM    DATA     BYTE      SPSTAT
      000000DDH   SFRSYM    DATA     BYTE      T4T3M
      000000C1H   SFRSYM    DATA     BYTE      WDT_CONTR
      000000DFH   SFRSYM    DATA     BYTE      IP3
      000000F4H   SFRSYM    DATA     BYTE      USBCON
      000000B5H   SFRSYM    DATA     BYTE      IP2
      000000FFH   SFRSYM    DATA     BYTE      RSTCFG
      000000C7H   SFRSYM    DATA     BYTE      IAP_CONTR
      000000F9H   SFRSYM    DATA     BYTE      LINICR
      0000008EH   SFRSYM    DATA     BYTE      AUXR
      000000AFH   SFRSYM    DATA     BYTE      IE2
      00000088H   SFRSYM    DATA     BYTE      TCON
      00000089H   SFRSYM    DATA     BYTE      TMOD
      00000098H   SFRSYM    DATA     BYTE      SCON
      000000F1H   SFRSYM    DATA     BYTE      CANICR
      00000087H   SFRSYM    DATA     BYTE      PCON
      000000BCH   SFRSYM    DATA     BYTE      ADC_CONTR
      000000E7H   SFRSYM    DATA     BYTE      CMPCR2
      000000E6H   SFRSYM    DATA     BYTE      CMPCR1
      000000DEH   SFRSYM    DATA     BYTE      ADCCFG
      000000B8H   SFRSYM    DATA     BYTE      IP
      0000008FH   SFRSYM    DATA     BYTE      INTCLKO
      000000EEH   SFRSYM    DATA     BYTE      IP3H
      000000B6H   SFRSYM    DATA     BYTE      IP2H
      000000A8H   SFRSYM    DATA     BYTE      IE
      000000BBH   SFRSYM    DATA     BYTE      P_SW3
      000000BAH   SFRSYM    DATA     BYTE      P_SW2
      000000A2H   SFRSYM    DATA     BYTE      P_SW1
      000000CEH   SFRSYM    DATA     BYTE      SPCTL
      000000F8H   SFRSYM    DATA     BYTE      P7
      000000E8H   SFRSYM    DATA     BYTE      P6
      000000C8H   SFRSYM    DATA     BYTE      P5
      000000C0H   SFRSYM    DATA     BYTE      P4
      000000B0H   SFRSYM    DATA     BYTE      P3
      000000A0H   SFRSYM    DATA     BYTE      P2
      00000090H   SFRSYM    DATA     BYTE      P1
      00000080H   SFRSYM    DATA     BYTE      P0
      00FF7382H   SYMBOL    CODE     ---       fifo_head_offset

      00FF7382H   BLOCK     CODE     ---       LVL=0
      REG=7       REGSYM    ---      ---       fifo
      DR24        REGSYM    ---      DWORD     offset
      00FF7382H   LINE      CODE     ---       #51
      00FF7386H   LINE      CODE     ---       #53
      00FF7393H   LINE      CODE     ---       #55
L251 LINKER/LOCATER V4.66.93.0                                                        01/14/2026  23:11:45  PAGE 43


      00FF7395H   LINE      CODE     ---       #57
      00FF73B3H   LINE      CODE     ---       #58
      00FF73C7H   LINE      CODE     ---       #59
      ---         BLOCKEND  ---      ---       LVL=0
      REG=7       REGSYM    ---      ---       fifo
      DR24        REGSYM    ---      DWORD     offset
      REG=3       REGSYM    ---      ---       fifo
      REG=3       REGSYM    ---      ---       fifo

      00FF46EDH   BLOCK     CODE     ---       LVL=0
      REG=3       REGSYM    ---      ---       fifo
      000105C8H   SYMBOL    XDATA    ---       dat
      000105CCH   SYMBOL    XDATA    DWORD     length
      00FF46FBH   BLOCK     CODE     NEAR LAB  LVL=1
      000105D0H   SYMBOL    XDATA    INT       return_state
      000105D2H   SYMBOL    XDATA    DWORD     temp_length
      ---         BLOCKEND  ---      ---       LVL=1
      00FF46EDH   LINE      CODE     ---       #178
      00FF46FBH   LINE      CODE     ---       #179
      00FF46FBH   LINE      CODE     ---       #180
      00FF4703H   LINE      CODE     ---       #181
      00FF470FH   LINE      CODE     ---       #182
      00FF4729H   LINE      CODE     ---       #184
      00FF4729H   LINE      CODE     ---       #186
      00FF4739H   LINE      CODE     ---       #188
      00FF473DH   LINE      CODE     ---       #189
      00FF473FH   LINE      CODE     ---       #190
      00FF473FH   LINE      CODE     ---       #191
      00FF474AH   LINE      CODE     ---       #193
      00FF4754H   LINE      CODE     ---       #194
      00FF4757H   LINE      CODE     ---       #195
      00FF4757H   LINE      CODE     ---       #196
      00FF475CH   LINE      CODE     ---       #198
      00FF4775H   LINE      CODE     ---       #200
      00FF4791H   LINE      CODE     ---       #202
      00FF4798H   LINE      CODE     ---       #204
      00FF47AEH   LINE      CODE     ---       #206
      00FF47AEH   LINE      CODE     ---       #208
      00FF47C8H   LINE      CODE     ---       #211
      00FF47D7H   LINE      CODE     ---       #212
      00FF4800H   LINE      CODE     ---       #216
      00FF4800H   LINE      CODE     ---       #217
      00FF4803H   LINE      CODE     ---       #218
      00FF4803H   LINE      CODE     ---       #220
      00FF482DH   LINE      CODE     ---       #223
      00FF483CH   LINE      CODE     ---       #224
      00FF4870H   LINE      CODE     ---       #228
      00FF4870H   LINE      CODE     ---       #229
      00FF4872H   LINE      CODE     ---       #230
      00FF4872H   LINE      CODE     ---       #232
      00FF48A0H   LINE      CODE     ---       #235
      00FF48AFH   LINE      CODE     ---       #236
      00FF48FAH   LINE      CODE     ---       #240
      00FF4912H   LINE      CODE     ---       #241
      00FF4912H   LINE      CODE     ---       #242
      00FF4912H   LINE      CODE     ---       #243
      00FF4915H   LINE      CODE     ---       #246
      00FF4928H   LINE      CODE     ---       #248
      00FF4928H   LINE      CODE     ---       #250
      00FF494EH   LINE      CODE     ---       #253
      00FF495AH   LINE      CODE     ---       #254
      00FF495CH   LINE      CODE     ---       #255
      00FF495CH   LINE      CODE     ---       #257
      00FF4986H   LINE      CODE     ---       #260
      00FF4992H   LINE      CODE     ---       #261
L251 LINKER/LOCATER V4.66.93.0                                                        01/14/2026  23:11:45  PAGE 44


      00FF4994H   LINE      CODE     ---       #262
      00FF4994H   LINE      CODE     ---       #264
      00FF49C2H   LINE      CODE     ---       #267
      00FF49D1H   LINE      CODE     ---       #268
      00FF49D1H   LINE      CODE     ---       #269
      00FF49D1H   LINE      CODE     ---       #270
      00FF49D1H   LINE      CODE     ---       #272
      00FF49F1H   LINE      CODE     ---       #273
      00FF49F3H   LINE      CODE     ---       #276
      00FF49FDH   LINE      CODE     ---       #277
      00FF49FDH   LINE      CODE     ---       #278
      00FF4A05H   LINE      CODE     ---       #279
      00FF4A05H   LINE      CODE     ---       #281
      00FF4A0BH   LINE      CODE     ---       #282
      ---         BLOCKEND  ---      ---       LVL=0
      REG=3       REGSYM    ---      ---       fifo

      00FF6C5DH   BLOCK     CODE     ---       LVL=0
      REG=3       REGSYM    ---      ---       fifo
      000105C7H   SYMBOL    XDATA    INT       type
      000105C9H   SYMBOL    XDATA    ---       buffer_addr
      000105CDH   SYMBOL    XDATA    DWORD     siz
      00FF6C5DH   LINE      CODE     ---       #549
      00FF6C67H   LINE      CODE     ---       #551
      00FF6C81H   LINE      CODE     ---       #552
      00FF6C81H   LINE      CODE     ---       #554
      00FF6C93H   LINE      CODE     ---       #555
      00FF6C97H   LINE      CODE     ---       #556
      00FF6CA1H   LINE      CODE     ---       #557
      00FF6CABH   LINE      CODE     ---       #558
      00FF6CB3H   LINE      CODE     ---       #559
      00FF6CC5H   LINE      CODE     ---       #560
      00FF6CCDH   LINE      CODE     ---       #561
      00FF6CCDH   LINE      CODE     ---       #562
      00FF6CCFH   LINE      CODE     ---       #563
      ---         BLOCKEND  ---      ---       LVL=0

      ---         MODULE    ---      ---       zf_common_font
      00FF3071H   PUBLIC    CODE     ---       ascii_font_8x16
      000000D0H   SFRSYM    DATA     BYTE      PSW
      0000009DH   SFRSYM    DATA     BYTE      IRCBAND
      00000097H   SFRSYM    DATA     BYTE      AUXR2
      000000EFH   SFRSYM    DATA     BYTE      AUXINTIF
      000000FDH   SFRSYM    DATA     BYTE      S4CON
      000000ACH   SFRSYM    DATA     BYTE      S3CON
      0000009AH   SFRSYM    DATA     BYTE      S2CON
      000000B7H   SFRSYM    DATA     BYTE      IPH
      000000CDH   SFRSYM    DATA     BYTE      SPSTAT
      000000DDH   SFRSYM    DATA     BYTE      T4T3M
      000000C1H   SFRSYM    DATA     BYTE      WDT_CONTR
      000000DFH   SFRSYM    DATA     BYTE      IP3
      000000F4H   SFRSYM    DATA     BYTE      USBCON
      000000B5H   SFRSYM    DATA     BYTE      IP2
      000000FFH   SFRSYM    DATA     BYTE      RSTCFG
      000000C7H   SFRSYM    DATA     BYTE      IAP_CONTR
      000000F9H   SFRSYM    DATA     BYTE      LINICR
      0000008EH   SFRSYM    DATA     BYTE      AUXR
      000000AFH   SFRSYM    DATA     BYTE      IE2
      00000088H   SFRSYM    DATA     BYTE      TCON
      00000089H   SFRSYM    DATA     BYTE      TMOD
      00000098H   SFRSYM    DATA     BYTE      SCON
      000000F1H   SFRSYM    DATA     BYTE      CANICR
      00000087H   SFRSYM    DATA     BYTE      PCON
      000000BCH   SFRSYM    DATA     BYTE      ADC_CONTR
      000000E7H   SFRSYM    DATA     BYTE      CMPCR2
L251 LINKER/LOCATER V4.66.93.0                                                        01/14/2026  23:11:45  PAGE 45


      000000E6H   SFRSYM    DATA     BYTE      CMPCR1
      000000DEH   SFRSYM    DATA     BYTE      ADCCFG
      000000B8H   SFRSYM    DATA     BYTE      IP
      0000008FH   SFRSYM    DATA     BYTE      INTCLKO
      000000EEH   SFRSYM    DATA     BYTE      IP3H
      000000B6H   SFRSYM    DATA     BYTE      IP2H
      000000A8H   SFRSYM    DATA     BYTE      IE
      000000BBH   SFRSYM    DATA     BYTE      P_SW3
      000000BAH   SFRSYM    DATA     BYTE      P_SW2
      000000A2H   SFRSYM    DATA     BYTE      P_SW1
      000000CEH   SFRSYM    DATA     BYTE      SPCTL
      000000F8H   SFRSYM    DATA     BYTE      P7
      000000E8H   SFRSYM    DATA     BYTE      P6
      000000C8H   SFRSYM    DATA     BYTE      P5
      000000C0H   SFRSYM    DATA     BYTE      P4
      000000B0H   SFRSYM    DATA     BYTE      P3
      000000A0H   SFRSYM    DATA     BYTE      P2
      00000090H   SFRSYM    DATA     BYTE      P1
      00000080H   SFRSYM    DATA     BYTE      P0

      ---         MODULE    ---      ---       zf_common_function
      000000D0H   SFRSYM    DATA     BYTE      PSW
      0000009DH   SFRSYM    DATA     BYTE      IRCBAND
      00000097H   SFRSYM    DATA     BYTE      AUXR2
      000000EFH   SFRSYM    DATA     BYTE      AUXINTIF
      000000FDH   SFRSYM    DATA     BYTE      S4CON
      000000ACH   SFRSYM    DATA     BYTE      S3CON
      0000009AH   SFRSYM    DATA     BYTE      S2CON
      000000B7H   SFRSYM    DATA     BYTE      IPH
      000000CDH   SFRSYM    DATA     BYTE      SPSTAT
      000000DDH   SFRSYM    DATA     BYTE      T4T3M
      000000C1H   SFRSYM    DATA     BYTE      WDT_CONTR
      000000DFH   SFRSYM    DATA     BYTE      IP3
      000000F4H   SFRSYM    DATA     BYTE      USBCON
      000000B5H   SFRSYM    DATA     BYTE      IP2
      000000FFH   SFRSYM    DATA     BYTE      RSTCFG
      000000C7H   SFRSYM    DATA     BYTE      IAP_CONTR
      000000F9H   SFRSYM    DATA     BYTE      LINICR
      0000008EH   SFRSYM    DATA     BYTE      AUXR
      000000AFH   SFRSYM    DATA     BYTE      IE2
      00000088H   SFRSYM    DATA     BYTE      TCON
      00000089H   SFRSYM    DATA     BYTE      TMOD
      00000098H   SFRSYM    DATA     BYTE      SCON
      000000F1H   SFRSYM    DATA     BYTE      CANICR
      00000087H   SFRSYM    DATA     BYTE      PCON
      000000BCH   SFRSYM    DATA     BYTE      ADC_CONTR
      000000E7H   SFRSYM    DATA     BYTE      CMPCR2
      000000E6H   SFRSYM    DATA     BYTE      CMPCR1
      000000DEH   SFRSYM    DATA     BYTE      ADCCFG
      000000B8H   SFRSYM    DATA     BYTE      IP
      0000008FH   SFRSYM    DATA     BYTE      INTCLKO
      000000EEH   SFRSYM    DATA     BYTE      IP3H
      000000B6H   SFRSYM    DATA     BYTE      IP2H
      000000A8H   SFRSYM    DATA     BYTE      IE
      000000BBH   SFRSYM    DATA     BYTE      P_SW3
      000000BAH   SFRSYM    DATA     BYTE      P_SW2
      000000A2H   SFRSYM    DATA     BYTE      P_SW1
      000000CEH   SFRSYM    DATA     BYTE      SPCTL
      000000F8H   SFRSYM    DATA     BYTE      P7
      000000E8H   SFRSYM    DATA     BYTE      P6
      000000C8H   SFRSYM    DATA     BYTE      P5
      000000C0H   SFRSYM    DATA     BYTE      P4
      000000B0H   SFRSYM    DATA     BYTE      P3
      000000A0H   SFRSYM    DATA     BYTE      P2
      00000090H   SFRSYM    DATA     BYTE      P1
L251 LINKER/LOCATER V4.66.93.0                                                        01/14/2026  23:11:45  PAGE 46


      00000080H   SFRSYM    DATA     BYTE      P0
      00FF8673H   SYMBOL    HCONST   ---       ?tpl?0001
      00FF8683H   SYMBOL    HCONST   ---       ?tpl?0002
      DR8         REGSYM    ---      DWORD     num1
      DR28        REGSYM    ---      DWORD     num2
      REG=3       REGSYM    ---      ---       str
      REG=3       REGSYM    ---      ---       str
      REG=3       REGSYM    ---      ---       str
      REG=3       REGSYM    ---      ---       str
      REG=3       REGSYM    ---      ---       str
      REG=3       REGSYM    ---      ---       str
      REG=3       REGSYM    ---      ---       str
      REG=3       REGSYM    ---      ---       str
      REG=3       REGSYM    ---      ---       str
      REG=3       REGSYM    ---      ---       str
      DR24        REGSYM    ---      DWORD     dat
      REG=7       REGSYM    ---      ---       p
      R10         REGSYM    ---      BYTE      neg_type
      DR20        REGSYM    ---      LONG      neg_dat
      DR24        REGSYM    ---      DWORD     pos_dat
      R14         REGSYM    ---      BYTE      temp_data
      R15         REGSYM    ---      BYTE      valid_num
      REG=7       REGSYM    ---      ---       d_buff
      DR24        REGSYM    ---      DWORD     len
      DR4         REGSYM    ---      DWORD     i
      R3          REGSYM    ---      CHAR      temp_data
      REG=4       REGSYM    ---      ---       buffer
      DR28        REGSYM    ---      DWORD     siz
      REG=5       REGSYM    ---      ---       format
      REG=6       REGSYM    ---      ---       args
      REG=0       REGSYM    ---      ---       ptr
      WR8         REGSYM    ---      INT       num
      REG=4       REGSYM    ---      ---       str
      R10         REGSYM    ---      CHAR      t
      REG=3       REGSYM    ---      ---       buff

      ---         MODULE    ---      ---       zf_common_typedef
      0001084CH   PUBLIC    XDATA    ---       tim11_irq_handler
      0001084EH   PUBLIC    XDATA    ---       uart1_irq_handler
      00010850H   PUBLIC    XDATA    ---       uart2_irq_handler
      00010852H   PUBLIC    XDATA    ---       uart3_irq_handler
      00010854H   PUBLIC    XDATA    ---       uart4_irq_handler
      00010856H   PUBLIC    XDATA    ---       tim0_irq_handler
      00010858H   PUBLIC    XDATA    ---       int0_irq_handler
      0001085AH   PUBLIC    XDATA    ---       tim1_irq_handler
      0001085CH   PUBLIC    XDATA    ---       int1_irq_handler
      0001085EH   PUBLIC    XDATA    ---       tim2_irq_handler
      00010860H   PUBLIC    XDATA    ---       int2_irq_handler
      00010862H   PUBLIC    XDATA    ---       tim3_irq_handler
      00010864H   PUBLIC    XDATA    ---       int3_irq_handler
      00010866H   PUBLIC    XDATA    ---       tim4_irq_handler
      00010868H   PUBLIC    XDATA    ---       int4_irq_handler
      000000D0H   SFRSYM    DATA     BYTE      PSW
      0000009DH   SFRSYM    DATA     BYTE      IRCBAND
      00000097H   SFRSYM    DATA     BYTE      AUXR2
      000000EFH   SFRSYM    DATA     BYTE      AUXINTIF
      000000FDH   SFRSYM    DATA     BYTE      S4CON
      000000ACH   SFRSYM    DATA     BYTE      S3CON
      0000009AH   SFRSYM    DATA     BYTE      S2CON
      000000B7H   SFRSYM    DATA     BYTE      IPH
      000000CDH   SFRSYM    DATA     BYTE      SPSTAT
      000000DDH   SFRSYM    DATA     BYTE      T4T3M
      000000C1H   SFRSYM    DATA     BYTE      WDT_CONTR
      000000DFH   SFRSYM    DATA     BYTE      IP3
      000000F4H   SFRSYM    DATA     BYTE      USBCON
L251 LINKER/LOCATER V4.66.93.0                                                        01/14/2026  23:11:45  PAGE 47


      000000B5H   SFRSYM    DATA     BYTE      IP2
      000000FFH   SFRSYM    DATA     BYTE      RSTCFG
      000000C7H   SFRSYM    DATA     BYTE      IAP_CONTR
      000000F9H   SFRSYM    DATA     BYTE      LINICR
      0000008EH   SFRSYM    DATA     BYTE      AUXR
      000000AFH   SFRSYM    DATA     BYTE      IE2
      00000088H   SFRSYM    DATA     BYTE      TCON
      00000089H   SFRSYM    DATA     BYTE      TMOD
      00000098H   SFRSYM    DATA     BYTE      SCON
      000000F1H   SFRSYM    DATA     BYTE      CANICR
      00000087H   SFRSYM    DATA     BYTE      PCON
      000000BCH   SFRSYM    DATA     BYTE      ADC_CONTR
      000000E7H   SFRSYM    DATA     BYTE      CMPCR2
      000000E6H   SFRSYM    DATA     BYTE      CMPCR1
      000000DEH   SFRSYM    DATA     BYTE      ADCCFG
      000000B8H   SFRSYM    DATA     BYTE      IP
      0000008FH   SFRSYM    DATA     BYTE      INTCLKO
      000000EEH   SFRSYM    DATA     BYTE      IP3H
      000000B6H   SFRSYM    DATA     BYTE      IP2H
      000000A8H   SFRSYM    DATA     BYTE      IE
      000000BBH   SFRSYM    DATA     BYTE      P_SW3
      000000BAH   SFRSYM    DATA     BYTE      P_SW2
      000000A2H   SFRSYM    DATA     BYTE      P_SW1
      000000CEH   SFRSYM    DATA     BYTE      SPCTL
      000000F8H   SFRSYM    DATA     BYTE      P7
      000000E8H   SFRSYM    DATA     BYTE      P6
      000000C8H   SFRSYM    DATA     BYTE      P5
      000000C0H   SFRSYM    DATA     BYTE      P4
      000000B0H   SFRSYM    DATA     BYTE      P3
      000000A0H   SFRSYM    DATA     BYTE      P2
      00000090H   SFRSYM    DATA     BYTE      P1
      00000080H   SFRSYM    DATA     BYTE      P0

      ---         MODULE    ---      ---       zf_common_interrupt
      00FF001EH   PUBLIC    CODE     ---       interrupt_global_enable
      000000D0H   SFRSYM    DATA     BYTE      PSW
      0000009DH   SFRSYM    DATA     BYTE      IRCBAND
      00000097H   SFRSYM    DATA     BYTE      AUXR2
      000000EFH   SFRSYM    DATA     BYTE      AUXINTIF
      000000FDH   SFRSYM    DATA     BYTE      S4CON
      000000ACH   SFRSYM    DATA     BYTE      S3CON
      0000009AH   SFRSYM    DATA     BYTE      S2CON
      000000B7H   SFRSYM    DATA     BYTE      IPH
      000000CDH   SFRSYM    DATA     BYTE      SPSTAT
      000000DDH   SFRSYM    DATA     BYTE      T4T3M
      000000C1H   SFRSYM    DATA     BYTE      WDT_CONTR
      000000DFH   SFRSYM    DATA     BYTE      IP3
      000000F4H   SFRSYM    DATA     BYTE      USBCON
      000000B5H   SFRSYM    DATA     BYTE      IP2
      000000FFH   SFRSYM    DATA     BYTE      RSTCFG
      000000C7H   SFRSYM    DATA     BYTE      IAP_CONTR
      000000F9H   SFRSYM    DATA     BYTE      LINICR
      0000008EH   SFRSYM    DATA     BYTE      AUXR
      000000AFH   SFRSYM    DATA     BYTE      IE2
      00000088H   SFRSYM    DATA     BYTE      TCON
      00000089H   SFRSYM    DATA     BYTE      TMOD
      00000098H   SFRSYM    DATA     BYTE      SCON
      000000F1H   SFRSYM    DATA     BYTE      CANICR
      00000087H   SFRSYM    DATA     BYTE      PCON
      000000BCH   SFRSYM    DATA     BYTE      ADC_CONTR
      000000E7H   SFRSYM    DATA     BYTE      CMPCR2
      000000E6H   SFRSYM    DATA     BYTE      CMPCR1
      000000DEH   SFRSYM    DATA     BYTE      ADCCFG
      000000B8H   SFRSYM    DATA     BYTE      IP
      0000008FH   SFRSYM    DATA     BYTE      INTCLKO
L251 LINKER/LOCATER V4.66.93.0                                                        01/14/2026  23:11:45  PAGE 48


      000000EEH   SFRSYM    DATA     BYTE      IP3H
      000000B6H   SFRSYM    DATA     BYTE      IP2H
      000000A8H   SFRSYM    DATA     BYTE      IE
      000000BBH   SFRSYM    DATA     BYTE      P_SW3
      000000BAH   SFRSYM    DATA     BYTE      P_SW2
      000000A2H   SFRSYM    DATA     BYTE      P_SW1
      000000CEH   SFRSYM    DATA     BYTE      SPCTL
      000000F8H   SFRSYM    DATA     BYTE      P7
      000000A8H.7 SFRSYM    DATA     BIT       EA
      000000E8H   SFRSYM    DATA     BYTE      P6
      000000C8H   SFRSYM    DATA     BYTE      P5
      000000C0H   SFRSYM    DATA     BYTE      P4
      000000B0H   SFRSYM    DATA     BYTE      P3
      000000A0H   SFRSYM    DATA     BYTE      P2
      00000090H   SFRSYM    DATA     BYTE      P1
      00000080H   SFRSYM    DATA     BYTE      P0
      WR4         REGSYM    ---      INT       irqn
      R3          REGSYM    ---      BYTE      priority

      00FF001EH   BLOCK     CODE     ---       LVL=0
      00FF001EH   LINE      CODE     ---       #88
      00FF001EH   LINE      CODE     ---       #90
      00FF0020H   LINE      CODE     ---       #91
      ---         BLOCKEND  ---      ---       LVL=0

      ---         MODULE    ---      ---       zf_driver_adc
      00FF7027H   PUBLIC    CODE     ---       adc_init
      00000094H   SFRSYM    DATA     BYTE      P0M0
      000000D0H   SFRSYM    DATA     BYTE      PSW
      0000009DH   SFRSYM    DATA     BYTE      IRCBAND
      00000097H   SFRSYM    DATA     BYTE      AUXR2
      000000EFH   SFRSYM    DATA     BYTE      AUXINTIF
      000000FDH   SFRSYM    DATA     BYTE      S4CON
      000000ACH   SFRSYM    DATA     BYTE      S3CON
      0000009AH   SFRSYM    DATA     BYTE      S2CON
      000000B7H   SFRSYM    DATA     BYTE      IPH
      000000CDH   SFRSYM    DATA     BYTE      SPSTAT
      000000BEH   SFRSYM    DATA     BYTE      ADC_RESL
      000000DDH   SFRSYM    DATA     BYTE      T4T3M
      000000C1H   SFRSYM    DATA     BYTE      WDT_CONTR
      000000DFH   SFRSYM    DATA     BYTE      IP3
      000000F4H   SFRSYM    DATA     BYTE      USBCON
      000000B5H   SFRSYM    DATA     BYTE      IP2
      000000FFH   SFRSYM    DATA     BYTE      RSTCFG
      000000C7H   SFRSYM    DATA     BYTE      IAP_CONTR
      000000F9H   SFRSYM    DATA     BYTE      LINICR
      0000008EH   SFRSYM    DATA     BYTE      AUXR
      000000AFH   SFRSYM    DATA     BYTE      IE2
      00000088H   SFRSYM    DATA     BYTE      TCON
      00000089H   SFRSYM    DATA     BYTE      TMOD
      00000098H   SFRSYM    DATA     BYTE      SCON
      000000F1H   SFRSYM    DATA     BYTE      CANICR
      00000087H   SFRSYM    DATA     BYTE      PCON
      000000BCH   SFRSYM    DATA     BYTE      ADC_CONTR
      000000E7H   SFRSYM    DATA     BYTE      CMPCR2
      000000E6H   SFRSYM    DATA     BYTE      CMPCR1
      000000DEH   SFRSYM    DATA     BYTE      ADCCFG
      000000B8H   SFRSYM    DATA     BYTE      IP
      0000008FH   SFRSYM    DATA     BYTE      INTCLKO
      000000EEH   SFRSYM    DATA     BYTE      IP3H
      000000B6H   SFRSYM    DATA     BYTE      IP2H
      000000BDH   SFRSYM    DATA     BYTE      ADC_RES
      000000A8H   SFRSYM    DATA     BYTE      IE
      000000BBH   SFRSYM    DATA     BYTE      P_SW3
      000000BAH   SFRSYM    DATA     BYTE      P_SW2
L251 LINKER/LOCATER V4.66.93.0                                                        01/14/2026  23:11:45  PAGE 49


      000000A2H   SFRSYM    DATA     BYTE      P_SW1
      000000CEH   SFRSYM    DATA     BYTE      SPCTL
      000000F8H   SFRSYM    DATA     BYTE      P7
      000000E8H   SFRSYM    DATA     BYTE      P6
      000000C8H   SFRSYM    DATA     BYTE      P5
      000000C0H   SFRSYM    DATA     BYTE      P4
      000000B0H   SFRSYM    DATA     BYTE      P3
      000000A0H   SFRSYM    DATA     BYTE      P2
      00000090H   SFRSYM    DATA     BYTE      P1
      00000080H   SFRSYM    DATA     BYTE      P0
      00000091H   SFRSYM    DATA     BYTE      P1M1
      00000092H   SFRSYM    DATA     BYTE      P1M0
      00000093H   SFRSYM    DATA     BYTE      P0M1
      00010964H   SYMBOL    XDATA    BYTE      adc_resolution
      WR14        REGSYM    ---      INT       ch
      R13         REGSYM    ---      BYTE      count
      R12         REGSYM    ---      BYTE      i
      WR6         REGSYM    ---      INT       ch
      WR6         REGSYM    ---      WORD      adc_value

      00FF7027H   BLOCK     CODE     ---       LVL=0
      WR4         REGSYM    ---      INT       ch
      WR2         REGSYM    ---      INT       resolution
      00FF7027H   LINE      CODE     ---       #108
      00FF702BH   LINE      CODE     ---       #110
      00FF702EH   LINE      CODE     ---       #112
      00FF7031H   LINE      CODE     ---       #113
      00FF7037H   LINE      CODE     ---       #115
      00FF7043H   LINE      CODE     ---       #118
      00FF7058H   LINE      CODE     ---       #119
      00FF705CH   LINE      CODE     ---       #120
      00FF705EH   LINE      CODE     ---       #121
      00FF7062H   LINE      CODE     ---       #124
      00FF7077H   LINE      CODE     ---       #125
      00FF707BH   LINE      CODE     ---       #126
      00FF707BH   LINE      CODE     ---       #128
      00FF707EH   LINE      CODE     ---       #130
      00FF7081H   LINE      CODE     ---       #132
      00FF7087H   LINE      CODE     ---       #133
      ---         BLOCKEND  ---      ---       LVL=0

      ---         MODULE    ---      ---       zf_driver_delay
      00FF73C8H   PUBLIC    CODE     ---       system_delay_init
      00FF78D7H   PUBLIC    CODE     ---       system_delay_ms
      000000D0H   SFRSYM    DATA     BYTE      PSW
      0000009DH   SFRSYM    DATA     BYTE      IRCBAND
      00000097H   SFRSYM    DATA     BYTE      AUXR2
      000000EFH   SFRSYM    DATA     BYTE      AUXINTIF
      000000FDH   SFRSYM    DATA     BYTE      S4CON
      000000ACH   SFRSYM    DATA     BYTE      S3CON
      0000009AH   SFRSYM    DATA     BYTE      S2CON
      000000B7H   SFRSYM    DATA     BYTE      IPH
      000000CDH   SFRSYM    DATA     BYTE      SPSTAT
      000000DDH   SFRSYM    DATA     BYTE      T4T3M
      000000C1H   SFRSYM    DATA     BYTE      WDT_CONTR
      000000DFH   SFRSYM    DATA     BYTE      IP3
      000000F4H   SFRSYM    DATA     BYTE      USBCON
      000000B5H   SFRSYM    DATA     BYTE      IP2
      000000FFH   SFRSYM    DATA     BYTE      RSTCFG
      000000C7H   SFRSYM    DATA     BYTE      IAP_CONTR
      000000F9H   SFRSYM    DATA     BYTE      LINICR
      0000008EH   SFRSYM    DATA     BYTE      AUXR
      000000AFH   SFRSYM    DATA     BYTE      IE2
      00000088H   SFRSYM    DATA     BYTE      TCON
      00000089H   SFRSYM    DATA     BYTE      TMOD
L251 LINKER/LOCATER V4.66.93.0                                                        01/14/2026  23:11:45  PAGE 50


      00000098H   SFRSYM    DATA     BYTE      SCON
      000000F1H   SFRSYM    DATA     BYTE      CANICR
      00000087H   SFRSYM    DATA     BYTE      PCON
      000000BCH   SFRSYM    DATA     BYTE      ADC_CONTR
      000000E7H   SFRSYM    DATA     BYTE      CMPCR2
      000000E6H   SFRSYM    DATA     BYTE      CMPCR1
      000000DEH   SFRSYM    DATA     BYTE      ADCCFG
      000000B8H   SFRSYM    DATA     BYTE      IP
      0000008FH   SFRSYM    DATA     BYTE      INTCLKO
      000000EEH   SFRSYM    DATA     BYTE      IP3H
      000000B6H   SFRSYM    DATA     BYTE      IP2H
      000000A8H   SFRSYM    DATA     BYTE      IE
      000000BBH   SFRSYM    DATA     BYTE      P_SW3
      000000BAH   SFRSYM    DATA     BYTE      P_SW2
      000000A2H   SFRSYM    DATA     BYTE      P_SW1
      000000CEH   SFRSYM    DATA     BYTE      SPCTL
      000000F8H   SFRSYM    DATA     BYTE      P7
      000000E8H   SFRSYM    DATA     BYTE      P6
      000000C8H   SFRSYM    DATA     BYTE      P5
      000000C0H   SFRSYM    DATA     BYTE      P4
      000000B0H   SFRSYM    DATA     BYTE      P3
      000000A0H   SFRSYM    DATA     BYTE      P2
      00000090H   SFRSYM    DATA     BYTE      P1
      00000080H   SFRSYM    DATA     BYTE      P0
      00FF019EH   SYMBOL    CODE     ---       delay_cycles
      0001094DH   SYMBOL    XDATA    WORD      zf_delay_1ms
      0001094FH   SYMBOL    XDATA    WORD      zf_delay_1us

      00FF019EH   BLOCK     CODE     ---       LVL=0
      WR6         REGSYM    ---      WORD      cycles
      00FF019EH   LINE      CODE     ---       #44
      00FF019EH   LINE      CODE     ---       #47
      00FF019EH   LINE      CODE     ---       #50
      00FF01A8H   LINE      CODE     ---       #51
      ---         BLOCKEND  ---      ---       LVL=0

      00FF73C8H   BLOCK     CODE     ---       LVL=0
      00FF73C8H   LINE      CODE     ---       #59
      00FF73C8H   LINE      CODE     ---       #61
      00FF73E1H   LINE      CODE     ---       #62
      00FF73F4H   LINE      CODE     ---       #63
      00FF740BH   LINE      CODE     ---       #64
      ---         BLOCKEND  ---      ---       LVL=0

      00FF78D7H   BLOCK     CODE     ---       LVL=0
      WR14        REGSYM    ---      WORD      ms
      00FF78D7H   LINE      CODE     ---       #72
      00FF78DBH   LINE      CODE     ---       #74
      00FF78DBH   LINE      CODE     ---       #76
      00FF78E4H   LINE      CODE     ---       #77
      00FF78ECH   LINE      CODE     ---       #78
      ---         BLOCKEND  ---      ---       LVL=0
      WR14        REGSYM    ---      WORD      us

      ---         MODULE    ---      ---       zf_driver_eeprom
      000000D0H   SFRSYM    DATA     BYTE      PSW
      0000009DH   SFRSYM    DATA     BYTE      IRCBAND
      00000097H   SFRSYM    DATA     BYTE      AUXR2
      000000C6H   SFRSYM    DATA     BYTE      IAP_TRIG
      000000EFH   SFRSYM    DATA     BYTE      AUXINTIF
      000000FDH   SFRSYM    DATA     BYTE      S4CON
      000000ACH   SFRSYM    DATA     BYTE      S3CON
      0000009AH   SFRSYM    DATA     BYTE      S2CON
      000000B7H   SFRSYM    DATA     BYTE      IPH
      000000CDH   SFRSYM    DATA     BYTE      SPSTAT
L251 LINKER/LOCATER V4.66.93.0                                                        01/14/2026  23:11:45  PAGE 51


      000000DDH   SFRSYM    DATA     BYTE      T4T3M
      000000C1H   SFRSYM    DATA     BYTE      WDT_CONTR
      000000C2H   SFRSYM    DATA     BYTE      IAP_DATA
      000000DFH   SFRSYM    DATA     BYTE      IP3
      000000F4H   SFRSYM    DATA     BYTE      USBCON
      000000B5H   SFRSYM    DATA     BYTE      IP2
      000000FFH   SFRSYM    DATA     BYTE      RSTCFG
      000000C7H   SFRSYM    DATA     BYTE      IAP_CONTR
      000000F9H   SFRSYM    DATA     BYTE      LINICR
      0000008EH   SFRSYM    DATA     BYTE      AUXR
      000000AFH   SFRSYM    DATA     BYTE      IE2
      00000088H   SFRSYM    DATA     BYTE      TCON
      00000089H   SFRSYM    DATA     BYTE      TMOD
      00000098H   SFRSYM    DATA     BYTE      SCON
      000000F5H   SFRSYM    DATA     BYTE      IAP_TPS
      000000F1H   SFRSYM    DATA     BYTE      CANICR
      00000087H   SFRSYM    DATA     BYTE      PCON
      000000BCH   SFRSYM    DATA     BYTE      ADC_CONTR
      000000E7H   SFRSYM    DATA     BYTE      CMPCR2
      000000E6H   SFRSYM    DATA     BYTE      CMPCR1
      000000C4H   SFRSYM    DATA     BYTE      IAP_ADDRL
      000000C3H   SFRSYM    DATA     BYTE      IAP_ADDRH
      000000F6H   SFRSYM    DATA     BYTE      IAP_ADDRE
      000000DEH   SFRSYM    DATA     BYTE      ADCCFG
      000000B8H   SFRSYM    DATA     BYTE      IP
      0000008FH   SFRSYM    DATA     BYTE      INTCLKO
      000000EEH   SFRSYM    DATA     BYTE      IP3H
      000000B6H   SFRSYM    DATA     BYTE      IP2H
      000000C5H   SFRSYM    DATA     BYTE      IAP_CMD
      000000A8H   SFRSYM    DATA     BYTE      IE
      000000BBH   SFRSYM    DATA     BYTE      P_SW3
      000000BAH   SFRSYM    DATA     BYTE      P_SW2
      000000A2H   SFRSYM    DATA     BYTE      P_SW1
      000000CEH   SFRSYM    DATA     BYTE      SPCTL
      000000F8H   SFRSYM    DATA     BYTE      P7
      000000A8H.7 SFRSYM    DATA     BIT       EA
      000000E8H   SFRSYM    DATA     BYTE      P6
      000000C8H   SFRSYM    DATA     BYTE      P5
      000000C0H   SFRSYM    DATA     BYTE      P4
      000000B0H   SFRSYM    DATA     BYTE      P3
      000000A0H   SFRSYM    DATA     BYTE      P2
      00000090H   SFRSYM    DATA     BYTE      P1
      00000080H   SFRSYM    DATA     BYTE      P0
      00FF7E6EH   SYMBOL    HCONST   ---       ?tpl?0001
      R7          REGSYM    ---      BYTE      write_time
      DR4         REGSYM    ---      DWORD     addr
      R11         REGSYM    ---      BYTE      temp
      DR4         REGSYM    ---      DWORD     addr
      R15         REGSYM    ---      BYTE      byte
      REG=3       REGSYM    ---      ---       buf
      REG=3       REGSYM    ---      ---       buf
      DR0         REGSYM    ---      DWORD     addr
      REG=3       REGSYM    ---      ---       buf

      ---         MODULE    ---      ---       zf_driver_encoder
      00FF6DB7H   PUBLIC    CODE     ---       encoder_get_count
      00FF6542H   PUBLIC    CODE     ---       encoder_dir_init
      00FF7248H   PUBLIC    CODE     ---       encoder_clear_count
      000000D0H   SFRSYM    DATA     BYTE      PSW
      0000009DH   SFRSYM    DATA     BYTE      IRCBAND
      00000097H   SFRSYM    DATA     BYTE      AUXR2
      000000EFH   SFRSYM    DATA     BYTE      AUXINTIF
      000000FDH   SFRSYM    DATA     BYTE      S4CON
      000000ACH   SFRSYM    DATA     BYTE      S3CON
      0000009AH   SFRSYM    DATA     BYTE      S2CON
L251 LINKER/LOCATER V4.66.93.0                                                        01/14/2026  23:11:45  PAGE 52


      000000B7H   SFRSYM    DATA     BYTE      IPH
      000000CDH   SFRSYM    DATA     BYTE      SPSTAT
      000000DDH   SFRSYM    DATA     BYTE      T4T3M
      000000C1H   SFRSYM    DATA     BYTE      WDT_CONTR
      00000088H.6 SFRSYM    DATA     BIT       TR1
      00000088H.4 SFRSYM    DATA     BIT       TR0
      000000D3H   SFRSYM    DATA     BYTE      T4L
      000000D5H   SFRSYM    DATA     BYTE      T3L
      000000D7H   SFRSYM    DATA     BYTE      T2L
      0000008BH   SFRSYM    DATA     BYTE      TL1
      0000008AH   SFRSYM    DATA     BYTE      TL0
      000000D2H   SFRSYM    DATA     BYTE      T4H
      000000D4H   SFRSYM    DATA     BYTE      T3H
      000000D6H   SFRSYM    DATA     BYTE      T2H
      0000008DH   SFRSYM    DATA     BYTE      TH1
      0000008CH   SFRSYM    DATA     BYTE      TH0
      000000DFH   SFRSYM    DATA     BYTE      IP3
      000000F4H   SFRSYM    DATA     BYTE      USBCON
      000000B5H   SFRSYM    DATA     BYTE      IP2
      000000FFH   SFRSYM    DATA     BYTE      RSTCFG
      000000C7H   SFRSYM    DATA     BYTE      IAP_CONTR
      000000F9H   SFRSYM    DATA     BYTE      LINICR
      0000008EH   SFRSYM    DATA     BYTE      AUXR
      000000AFH   SFRSYM    DATA     BYTE      IE2
      00000088H   SFRSYM    DATA     BYTE      TCON
      00000089H   SFRSYM    DATA     BYTE      TMOD
      00000098H   SFRSYM    DATA     BYTE      SCON
      000000F1H   SFRSYM    DATA     BYTE      CANICR
      00000087H   SFRSYM    DATA     BYTE      PCON
      000000BCH   SFRSYM    DATA     BYTE      ADC_CONTR
      000000E7H   SFRSYM    DATA     BYTE      CMPCR2
      000000E6H   SFRSYM    DATA     BYTE      CMPCR1
      000000DEH   SFRSYM    DATA     BYTE      ADCCFG
      000000B8H   SFRSYM    DATA     BYTE      IP
      0000008FH   SFRSYM    DATA     BYTE      INTCLKO
      000000EEH   SFRSYM    DATA     BYTE      IP3H
      000000B6H   SFRSYM    DATA     BYTE      IP2H
      000000A8H   SFRSYM    DATA     BYTE      IE
      000000BBH   SFRSYM    DATA     BYTE      P_SW3
      000000BAH   SFRSYM    DATA     BYTE      P_SW2
      000000A2H   SFRSYM    DATA     BYTE      P_SW1
      000000CEH   SFRSYM    DATA     BYTE      SPCTL
      000000F8H   SFRSYM    DATA     BYTE      P7
      000000E8H   SFRSYM    DATA     BYTE      P6
      000000C8H   SFRSYM    DATA     BYTE      P5
      000000C0H   SFRSYM    DATA     BYTE      P4
      000000B0H   SFRSYM    DATA     BYTE      P3
      000000A0H   SFRSYM    DATA     BYTE      P2
      00000090H   SFRSYM    DATA     BYTE      P1
      00000080H   SFRSYM    DATA     BYTE      P0
      00010943H   SYMBOL    XDATA    ---       encoder_dir_pin

      00FF6DB7H   BLOCK     CODE     ---       LVL=0
      WR2         REGSYM    ---      INT       encoder_n
      00FF6DBBH   BLOCK     CODE     NEAR LAB  LVL=1
      WR14        REGSYM    ---      INT       dat
      ---         BLOCKEND  ---      ---       LVL=1
      00FF6DB7H   LINE      CODE     ---       #47
      00FF6DBBH   LINE      CODE     ---       #48
      00FF6DBBH   LINE      CODE     ---       #49
      00FF6DBDH   LINE      CODE     ---       #50
      00FF6DD1H   LINE      CODE     ---       #52
      00FF6DD1H   LINE      CODE     ---       #54
      00FF6DD7H   LINE      CODE     ---       #55
      00FF6DD9H   LINE      CODE     ---       #56
L251 LINKER/LOCATER V4.66.93.0                                                        01/14/2026  23:11:45  PAGE 53


      00FF6DDBH   LINE      CODE     ---       #58
      00FF6DDBH   LINE      CODE     ---       #60
      00FF6DE1H   LINE      CODE     ---       #61
      00FF6DE3H   LINE      CODE     ---       #62
      00FF6DE5H   LINE      CODE     ---       #64
      00FF6DE5H   LINE      CODE     ---       #66
      00FF6DEBH   LINE      CODE     ---       #67
      00FF6DEDH   LINE      CODE     ---       #68
      00FF6DEFH   LINE      CODE     ---       #70
      00FF6DEFH   LINE      CODE     ---       #72
      00FF6DF5H   LINE      CODE     ---       #73
      00FF6DF7H   LINE      CODE     ---       #74
      00FF6DF9H   LINE      CODE     ---       #76
      00FF6DF9H   LINE      CODE     ---       #78
      00FF6DFFH   LINE      CODE     ---       #79
      00FF6E05H   LINE      CODE     ---       #80
      00FF6E05H   LINE      CODE     ---       #82
      00FF6E05H   LINE      CODE     ---       #83
      00FF6E19H   LINE      CODE     ---       #85
      00FF6E1FH   LINE      CODE     ---       #86
      00FF6E1FH   LINE      CODE     ---       #87
      00FF6E21H   LINE      CODE     ---       #88
      ---         BLOCKEND  ---      ---       LVL=0

      00FF7248H   BLOCK     CODE     ---       LVL=0
      WR6         REGSYM    ---      INT       encoder_n
      00FF7248H   LINE      CODE     ---       #97
      00FF7248H   LINE      CODE     ---       #99
      00FF725CH   LINE      CODE     ---       #101
      00FF725CH   LINE      CODE     ---       #103
      00FF725EH   LINE      CODE     ---       #104
      00FF7261H   LINE      CODE     ---       #105
      00FF7264H   LINE      CODE     ---       #106
      00FF7266H   LINE      CODE     ---       #107
      00FF7267H   LINE      CODE     ---       #109
      00FF7267H   LINE      CODE     ---       #111
      00FF7269H   LINE      CODE     ---       #112
      00FF726CH   LINE      CODE     ---       #113
      00FF726FH   LINE      CODE     ---       #114
      00FF7271H   LINE      CODE     ---       #115
      00FF7272H   LINE      CODE     ---       #117
      00FF7272H   LINE      CODE     ---       #119
      00FF7275H   LINE      CODE     ---       #120
      00FF7278H   LINE      CODE     ---       #121
      00FF727BH   LINE      CODE     ---       #122
      00FF727EH   LINE      CODE     ---       #123
      00FF727FH   LINE      CODE     ---       #125
      00FF727FH   LINE      CODE     ---       #127
      00FF7282H   LINE      CODE     ---       #128
      00FF7285H   LINE      CODE     ---       #129
      00FF7288H   LINE      CODE     ---       #130
      00FF728BH   LINE      CODE     ---       #131
      00FF728CH   LINE      CODE     ---       #133
      00FF728CH   LINE      CODE     ---       #135
      00FF728FH   LINE      CODE     ---       #136
      00FF7292H   LINE      CODE     ---       #137
      00FF7295H   LINE      CODE     ---       #138
      00FF7298H   LINE      CODE     ---       #139
      00FF7298H   LINE      CODE     ---       #141
      00FF7298H   LINE      CODE     ---       #142
      ---         BLOCKEND  ---      ---       LVL=0

      00FF6542H   BLOCK     CODE     ---       LVL=0
      WR14        REGSYM    ---      INT       encoder_n
      WR12        REGSYM    ---      INT       dir_pin
L251 LINKER/LOCATER V4.66.93.0                                                        01/14/2026  23:11:45  PAGE 54


      000105C7H   SYMBOL    XDATA    INT       lsb_pin
      00FF6542H   LINE      CODE     ---       #154
      00FF654EH   LINE      CODE     ---       #160
      00FF6564H   LINE      CODE     ---       #161
      00FF657EH   LINE      CODE     ---       #162
      00FF659EH   LINE      CODE     ---       #164
      00FF65AAH   LINE      CODE     ---       #165
      00FF65BCH   LINE      CODE     ---       #166
      00FF65CBH   LINE      CODE     ---       #167
      00FF65DFH   LINE      CODE     ---       #169
      00FF65DFH   LINE      CODE     ---       #171
      00FF65E2H   LINE      CODE     ---       #172
      00FF65E5H   LINE      CODE     ---       #173
      00FF65E8H   LINE      CODE     ---       #174
      00FF65EAH   LINE      CODE     ---       #175
      00FF65ECH   LINE      CODE     ---       #177
      00FF65ECH   LINE      CODE     ---       #179
      00FF65EFH   LINE      CODE     ---       #180
      00FF65F2H   LINE      CODE     ---       #181
      00FF65F5H   LINE      CODE     ---       #182
      00FF65F7H   LINE      CODE     ---       #183
      00FF65F9H   LINE      CODE     ---       #185
      00FF65F9H   LINE      CODE     ---       #187
      00FF65FCH   LINE      CODE     ---       #188
      00FF65FFH   LINE      CODE     ---       #189
      00FF6602H   LINE      CODE     ---       #190
      00FF6604H   LINE      CODE     ---       #192
      00FF6604H   LINE      CODE     ---       #194
      00FF6607H   LINE      CODE     ---       #195
      00FF660AH   LINE      CODE     ---       #196
      00FF660DH   LINE      CODE     ---       #197
      00FF660FH   LINE      CODE     ---       #199
      00FF660FH   LINE      CODE     ---       #201
      00FF6612H   LINE      CODE     ---       #202
      00FF6615H   LINE      CODE     ---       #203
      00FF6618H   LINE      CODE     ---       #204
      00FF6618H   LINE      CODE     ---       #206
      00FF6618H   LINE      CODE     ---       #207
      ---         BLOCKEND  ---      ---       LVL=0

      ---         MODULE    ---      ---       zf_driver_exti
      000000D0H   SFRSYM    DATA     BYTE      PSW
      0000009DH   SFRSYM    DATA     BYTE      IRCBAND
      00000097H   SFRSYM    DATA     BYTE      AUXR2
      000000EFH   SFRSYM    DATA     BYTE      AUXINTIF
      000000FDH   SFRSYM    DATA     BYTE      S4CON
      000000ACH   SFRSYM    DATA     BYTE      S3CON
      0000009AH   SFRSYM    DATA     BYTE      S2CON
      000000B7H   SFRSYM    DATA     BYTE      IPH
      000000CDH   SFRSYM    DATA     BYTE      SPSTAT
      000000DDH   SFRSYM    DATA     BYTE      T4T3M
      000000C1H   SFRSYM    DATA     BYTE      WDT_CONTR
      000000DFH   SFRSYM    DATA     BYTE      IP3
      000000F4H   SFRSYM    DATA     BYTE      USBCON
      000000B5H   SFRSYM    DATA     BYTE      IP2
      000000FFH   SFRSYM    DATA     BYTE      RSTCFG
      000000C7H   SFRSYM    DATA     BYTE      IAP_CONTR
      000000F9H   SFRSYM    DATA     BYTE      LINICR
      0000008EH   SFRSYM    DATA     BYTE      AUXR
      000000AFH   SFRSYM    DATA     BYTE      IE2
      00000088H   SFRSYM    DATA     BYTE      TCON
      00000089H   SFRSYM    DATA     BYTE      TMOD
      00000098H   SFRSYM    DATA     BYTE      SCON
      000000F1H   SFRSYM    DATA     BYTE      CANICR
      00000087H   SFRSYM    DATA     BYTE      PCON
L251 LINKER/LOCATER V4.66.93.0                                                        01/14/2026  23:11:45  PAGE 55


      000000BCH   SFRSYM    DATA     BYTE      ADC_CONTR
      000000E7H   SFRSYM    DATA     BYTE      CMPCR2
      000000E6H   SFRSYM    DATA     BYTE      CMPCR1
      000000DEH   SFRSYM    DATA     BYTE      ADCCFG
      000000B8H   SFRSYM    DATA     BYTE      IP
      0000008FH   SFRSYM    DATA     BYTE      INTCLKO
      000000EEH   SFRSYM    DATA     BYTE      IP3H
      000000B6H   SFRSYM    DATA     BYTE      IP2H
      000000A8H   SFRSYM    DATA     BYTE      IE
      000000BBH   SFRSYM    DATA     BYTE      P_SW3
      000000BAH   SFRSYM    DATA     BYTE      P_SW2
      000000A2H   SFRSYM    DATA     BYTE      P_SW1
      000000CEH   SFRSYM    DATA     BYTE      SPCTL
      000000F8H   SFRSYM    DATA     BYTE      P7
      000000E8H   SFRSYM    DATA     BYTE      P6
      000000C8H   SFRSYM    DATA     BYTE      P5
      000000C0H   SFRSYM    DATA     BYTE      P4
      000000B0H   SFRSYM    DATA     BYTE      P3
      000000A0H   SFRSYM    DATA     BYTE      P2
      00000090H   SFRSYM    DATA     BYTE      P1
      00000080H   SFRSYM    DATA     BYTE      P0

      ---         MODULE    ---      ---       zf_driver_gpio
      00FF6786H   PUBLIC    CODE     ---       gpio_init
      00FF626CH   PUBLIC    CODE     ---       gpio_get_level
      00FF4E9FH   PUBLIC    CODE     ---       gpio_set_level_speed
      00FF53FEH   PUBLIC    CODE     ---       gpio_set_level
      00FF645DH   PUBLIC    CODE     ---       gpio_set_impedance
      00000094H   SFRSYM    DATA     BYTE      P0M0
      000000D0H   SFRSYM    DATA     BYTE      PSW
      0000009DH   SFRSYM    DATA     BYTE      IRCBAND
      00000097H   SFRSYM    DATA     BYTE      AUXR2
      000000EFH   SFRSYM    DATA     BYTE      AUXINTIF
      000000FDH   SFRSYM    DATA     BYTE      S4CON
      000000ACH   SFRSYM    DATA     BYTE      S3CON
      0000009AH   SFRSYM    DATA     BYTE      S2CON
      000000B7H   SFRSYM    DATA     BYTE      IPH
      000000CDH   SFRSYM    DATA     BYTE      SPSTAT
      000000DDH   SFRSYM    DATA     BYTE      T4T3M
      000000C1H   SFRSYM    DATA     BYTE      WDT_CONTR
      000000DFH   SFRSYM    DATA     BYTE      IP3
      000000F4H   SFRSYM    DATA     BYTE      USBCON
      000000B5H   SFRSYM    DATA     BYTE      IP2
      000000FFH   SFRSYM    DATA     BYTE      RSTCFG
      000000C7H   SFRSYM    DATA     BYTE      IAP_CONTR
      000000F9H   SFRSYM    DATA     BYTE      LINICR
      0000008EH   SFRSYM    DATA     BYTE      AUXR
      000000AFH   SFRSYM    DATA     BYTE      IE2
      00000088H   SFRSYM    DATA     BYTE      TCON
      00000089H   SFRSYM    DATA     BYTE      TMOD
      00000098H   SFRSYM    DATA     BYTE      SCON
      000000F1H   SFRSYM    DATA     BYTE      CANICR
      00000087H   SFRSYM    DATA     BYTE      PCON
      000000BCH   SFRSYM    DATA     BYTE      ADC_CONTR
      000000E7H   SFRSYM    DATA     BYTE      CMPCR2
      000000E6H   SFRSYM    DATA     BYTE      CMPCR1
      000000DEH   SFRSYM    DATA     BYTE      ADCCFG
      000000B8H   SFRSYM    DATA     BYTE      IP
      0000008FH   SFRSYM    DATA     BYTE      INTCLKO
      000000EEH   SFRSYM    DATA     BYTE      IP3H
      000000B6H   SFRSYM    DATA     BYTE      IP2H
      000000A8H   SFRSYM    DATA     BYTE      IE
      000000BBH   SFRSYM    DATA     BYTE      P_SW3
      000000BAH   SFRSYM    DATA     BYTE      P_SW2
      000000A2H   SFRSYM    DATA     BYTE      P_SW1
L251 LINKER/LOCATER V4.66.93.0                                                        01/14/2026  23:11:45  PAGE 56


      000000CEH   SFRSYM    DATA     BYTE      SPCTL
      000000F8H   SFRSYM    DATA     BYTE      P7
      000000E1H   SFRSYM    DATA     BYTE      P7M1
      000000E8H   SFRSYM    DATA     BYTE      P6
      000000C8H   SFRSYM    DATA     BYTE      P5
      000000CBH   SFRSYM    DATA     BYTE      P6M1
      000000E2H   SFRSYM    DATA     BYTE      P7M0
      000000C0H   SFRSYM    DATA     BYTE      P4
      000000C9H   SFRSYM    DATA     BYTE      P5M1
      000000CCH   SFRSYM    DATA     BYTE      P6M0
      000000B0H   SFRSYM    DATA     BYTE      P3
      000000B3H   SFRSYM    DATA     BYTE      P4M1
      000000CAH   SFRSYM    DATA     BYTE      P5M0
      000000A0H   SFRSYM    DATA     BYTE      P2
      000000B1H   SFRSYM    DATA     BYTE      P3M1
      000000B4H   SFRSYM    DATA     BYTE      P4M0
      00000090H   SFRSYM    DATA     BYTE      P1
      00000095H   SFRSYM    DATA     BYTE      P2M1
      000000B2H   SFRSYM    DATA     BYTE      P3M0
      00000080H   SFRSYM    DATA     BYTE      P0
      00000091H   SFRSYM    DATA     BYTE      P1M1
      00000096H   SFRSYM    DATA     BYTE      P2M0
      00000092H   SFRSYM    DATA     BYTE      P1M0
      00000093H   SFRSYM    DATA     BYTE      P0M1
      00FF4A0EH   SYMBOL    CODE     ---       gpio_set_dir
      00FF558EH   SYMBOL    CODE     ---       gpio_set_mode

      00FF558EH   BLOCK     CODE     ---       LVL=0
      WR4         REGSYM    ---      INT       pin
      WR2         REGSYM    ---      INT       mode
      00FF558EH   LINE      CODE     ---       #42
      00FF5592H   LINE      CODE     ---       #47
      00FF559EH   LINE      CODE     ---       #49
      00FF55CAH   LINE      CODE     ---       #51
      00FF55CCH   LINE      CODE     ---       #56
      00FF55D8H   LINE      CODE     ---       #58
      00FF5605H   LINE      CODE     ---       #59
      00FF5606H   LINE      CODE     ---       #60
      00FF560FH   LINE      CODE     ---       #63
      00FF5651H   LINE      CODE     ---       #65
      00FF5651H   LINE      CODE     ---       #66
      00FF5664H   LINE      CODE     ---       #67
      00FF5666H   LINE      CODE     ---       #68
      00FF5667H   LINE      CODE     ---       #69
      00FF5667H   LINE      CODE     ---       #70
      00FF567AH   LINE      CODE     ---       #71
      00FF567CH   LINE      CODE     ---       #72
      00FF567DH   LINE      CODE     ---       #73
      00FF567DH   LINE      CODE     ---       #74
      00FF5690H   LINE      CODE     ---       #75
      00FF5692H   LINE      CODE     ---       #76
      00FF5693H   LINE      CODE     ---       #77
      00FF5693H   LINE      CODE     ---       #78
      00FF56A6H   LINE      CODE     ---       #79
      00FF56A8H   LINE      CODE     ---       #80
      00FF56A9H   LINE      CODE     ---       #81
      00FF56A9H   LINE      CODE     ---       #82
      00FF56BCH   LINE      CODE     ---       #83
      00FF56BEH   LINE      CODE     ---       #84
      00FF56BFH   LINE      CODE     ---       #85
      00FF56BFH   LINE      CODE     ---       #86
      00FF56D2H   LINE      CODE     ---       #87
      00FF56D4H   LINE      CODE     ---       #88
      00FF56D5H   LINE      CODE     ---       #89
      00FF56D5H   LINE      CODE     ---       #90
L251 LINKER/LOCATER V4.66.93.0                                                        01/14/2026  23:11:45  PAGE 57


      00FF56E8H   LINE      CODE     ---       #91
      00FF56EAH   LINE      CODE     ---       #92
      00FF56EBH   LINE      CODE     ---       #93
      00FF56EBH   LINE      CODE     ---       #94
      00FF56FEH   LINE      CODE     ---       #95
      00FF5700H   LINE      CODE     ---       #96
      00FF5700H   LINE      CODE     ---       #97
      00FF5700H   LINE      CODE     ---       #98
      00FF5700H   LINE      CODE     ---       #99
      00FF5700H   LINE      CODE     ---       #100
      00FF5700H   LINE      CODE     ---       #104
      00FF5700H   LINE      CODE     ---       #105
      ---         BLOCKEND  ---      ---       LVL=0

      00FF4E9FH   BLOCK     CODE     ---       LVL=0
      WR6         REGSYM    ---      INT       pin
      WR4         REGSYM    ---      INT       speed
      R10         REGSYM    ---      BYTE      pin_bit
      R11         REGSYM    ---      BYTE      port_flag
      00FF4E9FH   LINE      CODE     ---       #108
      00FF4E9FH   LINE      CODE     ---       #109
      00FF4E9FH   LINE      CODE     ---       #111
      00FF4EA4H   LINE      CODE     ---       #112
      00FF4EA8H   LINE      CODE     ---       #115
      00FF4EDDH   LINE      CODE     ---       #117
      00FF4EDDH   LINE      CODE     ---       #119
      00FF4F0CH   LINE      CODE     ---       #120
      00FF4F0FH   LINE      CODE     ---       #121
      00FF4F0FH   LINE      CODE     ---       #122
      00FF4F3EH   LINE      CODE     ---       #123
      00FF4F41H   LINE      CODE     ---       #124
      00FF4F41H   LINE      CODE     ---       #125
      00FF4F70H   LINE      CODE     ---       #126
      00FF4F73H   LINE      CODE     ---       #127
      00FF4F73H   LINE      CODE     ---       #128
      00FF4FA2H   LINE      CODE     ---       #129
      00FF4FA5H   LINE      CODE     ---       #130
      00FF4FA5H   LINE      CODE     ---       #131
      00FF4FD4H   LINE      CODE     ---       #132
      00FF4FD7H   LINE      CODE     ---       #133
      00FF4FD7H   LINE      CODE     ---       #134
      00FF5005H   LINE      CODE     ---       #135
      00FF5007H   LINE      CODE     ---       #136
      00FF5007H   LINE      CODE     ---       #137
      00FF5035H   LINE      CODE     ---       #138
      00FF5037H   LINE      CODE     ---       #139
      00FF5037H   LINE      CODE     ---       #140
      00FF507AH   LINE      CODE     ---       #141
      00FF507AH   LINE      CODE     ---       #142
      00FF507AH   LINE      CODE     ---       #144
      00FF507AH   LINE      CODE     ---       #145
      00FF507AH   LINE      CODE     ---       #146
      ---         BLOCKEND  ---      ---       LVL=0

      00FF4A0EH   BLOCK     CODE     ---       LVL=0
      WR4         REGSYM    ---      INT       pin
      WR2         REGSYM    ---      INT       dir
      00FF4A0EH   LINE      CODE     ---       #150
      00FF4A12H   LINE      CODE     ---       #152
      00FF4A5EH   LINE      CODE     ---       #154
      00FF4A5EH   LINE      CODE     ---       #156
      00FF4A68H   LINE      CODE     ---       #158
      00FF4A80H   LINE      CODE     ---       #159
      00FF4A82H   LINE      CODE     ---       #160
      00FF4A83H   LINE      CODE     ---       #166
L251 LINKER/LOCATER V4.66.93.0                                                        01/14/2026  23:11:45  PAGE 58


      00FF4A8CH   LINE      CODE     ---       #168
      00FF4AA1H   LINE      CODE     ---       #169
      00FF4AA5H   LINE      CODE     ---       #170
      00FF4AA5H   LINE      CODE     ---       #172
      00FF4AA6H   LINE      CODE     ---       #174
      00FF4AA6H   LINE      CODE     ---       #176
      00FF4AB0H   LINE      CODE     ---       #178
      00FF4AC8H   LINE      CODE     ---       #179
      00FF4ACAH   LINE      CODE     ---       #180
      00FF4ACBH   LINE      CODE     ---       #186
      00FF4AD4H   LINE      CODE     ---       #188
      00FF4AE9H   LINE      CODE     ---       #189
      00FF4AEDH   LINE      CODE     ---       #190
      00FF4AEDH   LINE      CODE     ---       #192
      00FF4AEEH   LINE      CODE     ---       #194
      00FF4AEEH   LINE      CODE     ---       #196
      00FF4AF8H   LINE      CODE     ---       #198
      00FF4B10H   LINE      CODE     ---       #199
      00FF4B12H   LINE      CODE     ---       #200
      00FF4B13H   LINE      CODE     ---       #206
      00FF4B1CH   LINE      CODE     ---       #208
      00FF4B31H   LINE      CODE     ---       #209
      00FF4B35H   LINE      CODE     ---       #210
      00FF4B35H   LINE      CODE     ---       #212
      00FF4B36H   LINE      CODE     ---       #214
      00FF4B36H   LINE      CODE     ---       #216
      00FF4B40H   LINE      CODE     ---       #218
      00FF4B58H   LINE      CODE     ---       #219
      00FF4B5AH   LINE      CODE     ---       #220
      00FF4B5BH   LINE      CODE     ---       #226
      00FF4B64H   LINE      CODE     ---       #228
      00FF4B79H   LINE      CODE     ---       #229
      00FF4B7DH   LINE      CODE     ---       #230
      00FF4B7DH   LINE      CODE     ---       #232
      00FF4B7EH   LINE      CODE     ---       #234
      00FF4B7EH   LINE      CODE     ---       #236
      00FF4B88H   LINE      CODE     ---       #238
      00FF4BA0H   LINE      CODE     ---       #239
      00FF4BA2H   LINE      CODE     ---       #240
      00FF4BA3H   LINE      CODE     ---       #246
      00FF4BACH   LINE      CODE     ---       #248
      00FF4BC1H   LINE      CODE     ---       #249
      00FF4BC5H   LINE      CODE     ---       #250
      00FF4BC5H   LINE      CODE     ---       #252
      00FF4BC6H   LINE      CODE     ---       #254
      00FF4BC6H   LINE      CODE     ---       #256
      00FF4BD0H   LINE      CODE     ---       #258
      00FF4BE8H   LINE      CODE     ---       #259
      00FF4BEAH   LINE      CODE     ---       #260
      00FF4BEBH   LINE      CODE     ---       #266
      00FF4BF4H   LINE      CODE     ---       #268
      00FF4C09H   LINE      CODE     ---       #269
      00FF4C0DH   LINE      CODE     ---       #270
      00FF4C0DH   LINE      CODE     ---       #272
      00FF4C0EH   LINE      CODE     ---       #274
      00FF4C0EH   LINE      CODE     ---       #276
      00FF4C18H   LINE      CODE     ---       #278
      00FF4C30H   LINE      CODE     ---       #279
      00FF4C32H   LINE      CODE     ---       #280
      00FF4C33H   LINE      CODE     ---       #286
      00FF4C39H   LINE      CODE     ---       #288
      00FF4C4EH   LINE      CODE     ---       #289
      00FF4C52H   LINE      CODE     ---       #290
      00FF4C52H   LINE      CODE     ---       #292
      00FF4C53H   LINE      CODE     ---       #294
L251 LINKER/LOCATER V4.66.93.0                                                        01/14/2026  23:11:45  PAGE 59


      00FF4C53H   LINE      CODE     ---       #296
      00FF4C5DH   LINE      CODE     ---       #298
      00FF4C75H   LINE      CODE     ---       #299
      00FF4C77H   LINE      CODE     ---       #300
      00FF4C78H   LINE      CODE     ---       #306
      00FF4C7EH   LINE      CODE     ---       #308
      00FF4C93H   LINE      CODE     ---       #309
      00FF4C97H   LINE      CODE     ---       #310
      00FF4C97H   LINE      CODE     ---       #313
      00FF4C98H   LINE      CODE     ---       #315
      00FF4C98H   LINE      CODE     ---       #317
      00FF4CA8H   LINE      CODE     ---       #319
      00FF4CA8H   LINE      CODE     ---       #320
      00FF4CA8H   LINE      CODE     ---       #321
      ---         BLOCKEND  ---      ---       LVL=0

      00FF626CH   BLOCK     CODE     ---       LVL=0
      WR6         REGSYM    ---      INT       pin
      R5          REGSYM    ---      BYTE      pin_bit
      R4          REGSYM    ---      BYTE      port_flag
      R10         REGSYM    ---      BYTE      status
      00FF626CH   LINE      CODE     ---       #329
      00FF626CH   LINE      CODE     ---       #330
      00FF626CH   LINE      CODE     ---       #331
      00FF6273H   LINE      CODE     ---       #332
      00FF6276H   LINE      CODE     ---       #333
      00FF6278H   LINE      CODE     ---       #336
      00FF62ACH   LINE      CODE     ---       #338
      00FF62C3H   LINE      CODE     ---       #339
      00FF62DAH   LINE      CODE     ---       #340
      00FF62F0H   LINE      CODE     ---       #341
      00FF6306H   LINE      CODE     ---       #342
      00FF631CH   LINE      CODE     ---       #343
      00FF6332H   LINE      CODE     ---       #344
      00FF6348H   LINE      CODE     ---       #345
      00FF635CH   LINE      CODE     ---       #346
      00FF635CH   LINE      CODE     ---       #347
      00FF635CH   LINE      CODE     ---       #349
      00FF6364H   LINE      CODE     ---       #350
      ---         BLOCKEND  ---      ---       LVL=0

      00FF53FEH   BLOCK     CODE     ---       LVL=0
      WR6         REGSYM    ---      INT       pin
      R5          REGSYM    ---      BYTE      dat
      00FF5400H   BLOCK     CODE     NEAR LAB  LVL=1
      R4          REGSYM    ---      BYTE      pin_bit
      R11         REGSYM    ---      BYTE      port_flag
      ---         BLOCKEND  ---      ---       LVL=1
      00FF53FEH   LINE      CODE     ---       #359
      00FF5400H   LINE      CODE     ---       #360
      00FF5400H   LINE      CODE     ---       #361
      00FF5405H   LINE      CODE     ---       #362
      00FF5409H   LINE      CODE     ---       #365
      00FF543EH   LINE      CODE     ---       #367
      00FF5468H   LINE      CODE     ---       #368
      00FF5492H   LINE      CODE     ---       #369
      00FF54BCH   LINE      CODE     ---       #370
      00FF54E6H   LINE      CODE     ---       #371
      00FF5510H   LINE      CODE     ---       #372
      00FF553AH   LINE      CODE     ---       #373
      00FF5564H   LINE      CODE     ---       #374
      00FF558DH   LINE      CODE     ---       #375
      00FF558DH   LINE      CODE     ---       #376
      00FF558DH   LINE      CODE     ---       #377
      ---         BLOCKEND  ---      ---       LVL=0
L251 LINKER/LOCATER V4.66.93.0                                                        01/14/2026  23:11:45  PAGE 60


      WR14        REGSYM    ---      INT       pin

      00FF645DH   BLOCK     CODE     ---       LVL=0
      WR6         REGSYM    ---      INT       pin
      R10         REGSYM    ---      BYTE      pin_bit
      R11         REGSYM    ---      BYTE      port_flag
      00FF645DH   LINE      CODE     ---       #397
      00FF645DH   LINE      CODE     ---       #398
      00FF645DH   LINE      CODE     ---       #399
      00FF6462H   LINE      CODE     ---       #400
      00FF6466H   LINE      CODE     ---       #403
      00FF6492H   LINE      CODE     ---       #405
      00FF64A8H   LINE      CODE     ---       #406
      00FF64BEH   LINE      CODE     ---       #407
      00FF64D4H   LINE      CODE     ---       #408
      00FF64EAH   LINE      CODE     ---       #409
      00FF6500H   LINE      CODE     ---       #410
      00FF6516H   LINE      CODE     ---       #411
      00FF652CH   LINE      CODE     ---       #412
      00FF6541H   LINE      CODE     ---       #413
      00FF6541H   LINE      CODE     ---       #414
      00FF6541H   LINE      CODE     ---       #415
      ---         BLOCKEND  ---      ---       LVL=0

      00FF6786H   BLOCK     CODE     ---       LVL=0
      WR14        REGSYM    ---      INT       pin
      000105D7H   SYMBOL    XDATA    INT       dir
      000105D9H   SYMBOL    XDATA    BYTE      dat
      WR12        REGSYM    ---      INT       mode
      00FF6786H   LINE      CODE     ---       #426
      00FF6796H   LINE      CODE     ---       #428
      00FF67BEH   LINE      CODE     ---       #430
      00FF67CAH   LINE      CODE     ---       #432
      00FF67D0H   LINE      CODE     ---       #433
      00FF67D0H   LINE      CODE     ---       #434
      00FF67D2H   LINE      CODE     ---       #435
      00FF67DCH   LINE      CODE     ---       #437
      00FF67E0H   LINE      CODE     ---       #439
      00FF67E5H   LINE      CODE     ---       #440
      00FF67E7H   LINE      CODE     ---       #443
      00FF67EEH   LINE      CODE     ---       #444
      00FF67F2H   LINE      CODE     ---       #445
      00FF67F2H   LINE      CODE     ---       #446
      00FF67F4H   LINE      CODE     ---       #447
      00FF6800H   LINE      CODE     ---       #449
      00FF6806H   LINE      CODE     ---       #451
      00FF680FH   LINE      CODE     ---       #452
      00FF6815H   LINE      CODE     ---       #453
      00FF6817H   LINE      CODE     ---       #454
      00FF681DH   LINE      CODE     ---       #456
      00FF6826H   LINE      CODE     ---       #457
      00FF6826H   LINE      CODE     ---       #459
      00FF682FH   LINE      CODE     ---       #460
      ---         BLOCKEND  ---      ---       LVL=0

      ---         MODULE    ---      ---       zf_driver_pit
      00FF5701H   PUBLIC    CODE     ---       pit_init
      000000D0H   SFRSYM    DATA     BYTE      PSW
      0000009DH   SFRSYM    DATA     BYTE      IRCBAND
      00000097H   SFRSYM    DATA     BYTE      AUXR2
      000000EFH   SFRSYM    DATA     BYTE      AUXINTIF
      000000FDH   SFRSYM    DATA     BYTE      S4CON
      000000ACH   SFRSYM    DATA     BYTE      S3CON
      0000009AH   SFRSYM    DATA     BYTE      S2CON
      000000B7H   SFRSYM    DATA     BYTE      IPH
L251 LINKER/LOCATER V4.66.93.0                                                        01/14/2026  23:11:45  PAGE 61


      000000CDH   SFRSYM    DATA     BYTE      SPSTAT
      000000DDH   SFRSYM    DATA     BYTE      T4T3M
      000000C1H   SFRSYM    DATA     BYTE      WDT_CONTR
      00000088H.6 SFRSYM    DATA     BIT       TR1
      00000088H.4 SFRSYM    DATA     BIT       TR0
      000000D3H   SFRSYM    DATA     BYTE      T4L
      000000D5H   SFRSYM    DATA     BYTE      T3L
      000000D7H   SFRSYM    DATA     BYTE      T2L
      0000008BH   SFRSYM    DATA     BYTE      TL1
      0000008AH   SFRSYM    DATA     BYTE      TL0
      000000D2H   SFRSYM    DATA     BYTE      T4H
      000000D4H   SFRSYM    DATA     BYTE      T3H
      000000D6H   SFRSYM    DATA     BYTE      T2H
      0000008DH   SFRSYM    DATA     BYTE      TH1
      0000008CH   SFRSYM    DATA     BYTE      TH0
      000000DFH   SFRSYM    DATA     BYTE      IP3
      000000F4H   SFRSYM    DATA     BYTE      USBCON
      000000B5H   SFRSYM    DATA     BYTE      IP2
      000000FFH   SFRSYM    DATA     BYTE      RSTCFG
      000000A8H.3 SFRSYM    DATA     BIT       ET1
      000000A8H.1 SFRSYM    DATA     BIT       ET0
      000000C7H   SFRSYM    DATA     BYTE      IAP_CONTR
      000000F9H   SFRSYM    DATA     BYTE      LINICR
      0000008EH   SFRSYM    DATA     BYTE      AUXR
      000000AFH   SFRSYM    DATA     BYTE      IE2
      00000088H   SFRSYM    DATA     BYTE      TCON
      00000089H   SFRSYM    DATA     BYTE      TMOD
      00000098H   SFRSYM    DATA     BYTE      SCON
      000000F1H   SFRSYM    DATA     BYTE      CANICR
      00000087H   SFRSYM    DATA     BYTE      PCON
      000000BCH   SFRSYM    DATA     BYTE      ADC_CONTR
      000000E7H   SFRSYM    DATA     BYTE      CMPCR2
      000000E6H   SFRSYM    DATA     BYTE      CMPCR1
      000000DEH   SFRSYM    DATA     BYTE      ADCCFG
      000000B8H   SFRSYM    DATA     BYTE      IP
      0000008FH   SFRSYM    DATA     BYTE      INTCLKO
      000000EEH   SFRSYM    DATA     BYTE      IP3H
      000000B6H   SFRSYM    DATA     BYTE      IP2H
      000000A8H   SFRSYM    DATA     BYTE      IE
      000000BBH   SFRSYM    DATA     BYTE      P_SW3
      000000BAH   SFRSYM    DATA     BYTE      P_SW2
      000000A2H   SFRSYM    DATA     BYTE      P_SW1
      000000CEH   SFRSYM    DATA     BYTE      SPCTL
      000000F8H   SFRSYM    DATA     BYTE      P7
      000000E8H   SFRSYM    DATA     BYTE      P6
      000000C8H   SFRSYM    DATA     BYTE      P5
      000000C0H   SFRSYM    DATA     BYTE      P4
      000000B0H   SFRSYM    DATA     BYTE      P3
      000000A0H   SFRSYM    DATA     BYTE      P2
      00000090H   SFRSYM    DATA     BYTE      P1
      00000080H   SFRSYM    DATA     BYTE      P0

      00FF5701H   BLOCK     CODE     ---       LVL=0
      WR30        REGSYM    ---      INT       pit_n
      DR24        REGSYM    ---      DWORD     period
      00FF5707H   BLOCK     CODE     NEAR LAB  LVL=1
      R15         REGSYM    ---      BYTE      freq_div
      WR28        REGSYM    ---      WORD      period_temp
      WR28        REGSYM    ---      WORD      temp
      ---         BLOCKEND  ---      ---       LVL=1
      00FF5701H   LINE      CODE     ---       #50
      00FF5707H   LINE      CODE     ---       #51
      00FF5707H   LINE      CODE     ---       #52
      00FF5707H   LINE      CODE     ---       #53
      00FF5707H   LINE      CODE     ---       #54
L251 LINKER/LOCATER V4.66.93.0                                                        01/14/2026  23:11:45  PAGE 62


      00FF5707H   LINE      CODE     ---       #57
      00FF5713H   LINE      CODE     ---       #60
      00FF571EH   LINE      CODE     ---       #62
      00FF5722H   LINE      CODE     ---       #64
      00FF5725H   LINE      CODE     ---       #65
      00FF5727H   LINE      CODE     ---       #66
      00FF572DH   LINE      CODE     ---       #68
      00FF5730H   LINE      CODE     ---       #69
      00FF5732H   LINE      CODE     ---       #70
      00FF5738H   LINE      CODE     ---       #72
      00FF573BH   LINE      CODE     ---       #73
      00FF573DH   LINE      CODE     ---       #74
      00FF5743H   LINE      CODE     ---       #76
      00FF5746H   LINE      CODE     ---       #77
      00FF5748H   LINE      CODE     ---       #78
      00FF574EH   LINE      CODE     ---       #80
      00FF5751H   LINE      CODE     ---       #81
      00FF5753H   LINE      CODE     ---       #88
      00FF5757H   LINE      CODE     ---       #90
      00FF575AH   LINE      CODE     ---       #91
      00FF575CH   LINE      CODE     ---       #92
      00FF5762H   LINE      CODE     ---       #94
      00FF5765H   LINE      CODE     ---       #95
      00FF5767H   LINE      CODE     ---       #96
      00FF576DH   LINE      CODE     ---       #98
      00FF5770H   LINE      CODE     ---       #99
      00FF5772H   LINE      CODE     ---       #100
      00FF5778H   LINE      CODE     ---       #102
      00FF577BH   LINE      CODE     ---       #103
      00FF577DH   LINE      CODE     ---       #104
      00FF5783H   LINE      CODE     ---       #106
      00FF5786H   LINE      CODE     ---       #107
      00FF5786H   LINE      CODE     ---       #112
      00FF5796H   LINE      CODE     ---       #113
      00FF57A3H   LINE      CODE     ---       #115
      00FF57A9H   LINE      CODE     ---       #117
      00FF57ADH   LINE      CODE     ---       #119
      00FF57B8H   LINE      CODE     ---       #120
      00FF57BCH   LINE      CODE     ---       #121
      00FF57C2H   LINE      CODE     ---       #122
      00FF57C6H   LINE      CODE     ---       #123
      00FF57C8H   LINE      CODE     ---       #124
      00FF57CAH   LINE      CODE     ---       #125
      00FF57CDH   LINE      CODE     ---       #126
      00FF57D3H   LINE      CODE     ---       #128
      00FF57DEH   LINE      CODE     ---       #129
      00FF57E2H   LINE      CODE     ---       #130
      00FF57E8H   LINE      CODE     ---       #131
      00FF57ECH   LINE      CODE     ---       #132
      00FF57EEH   LINE      CODE     ---       #133
      00FF57F0H   LINE      CODE     ---       #134
      00FF57F2H   LINE      CODE     ---       #135
      00FF57F8H   LINE      CODE     ---       #137
      00FF5803H   LINE      CODE     ---       #138
      00FF5809H   LINE      CODE     ---       #139
      00FF580DH   LINE      CODE     ---       #140
      00FF5810H   LINE      CODE     ---       #141
      00FF5813H   LINE      CODE     ---       #142
      00FF5815H   LINE      CODE     ---       #143
      00FF581BH   LINE      CODE     ---       #145
      00FF5826H   LINE      CODE     ---       #146
      00FF582CH   LINE      CODE     ---       #147
      00FF5830H   LINE      CODE     ---       #148
      00FF5833H   LINE      CODE     ---       #149
      00FF5836H   LINE      CODE     ---       #150
L251 LINKER/LOCATER V4.66.93.0                                                        01/14/2026  23:11:45  PAGE 63


      00FF5838H   LINE      CODE     ---       #151
      00FF583EH   LINE      CODE     ---       #153
      00FF5849H   LINE      CODE     ---       #154
      00FF584FH   LINE      CODE     ---       #155
      00FF5853H   LINE      CODE     ---       #156
      00FF5856H   LINE      CODE     ---       #157
      00FF5859H   LINE      CODE     ---       #158
      ---         BLOCKEND  ---      ---       LVL=0

      ---         MODULE    ---      ---       zf_driver_pwm
      00FF8484H   PUBLIC    HCONST   ---       PWM_PSCR_ADDR
      00FF848CH   PUBLIC    HCONST   ---       PWM_CCR_ADDR
      00FF84ACH   PUBLIC    HCONST   ---       PWM_ARR_ADDR
      00FF84B4H   PUBLIC    HCONST   ---       PWM_CCER_ADDR
      00FF84C4H   PUBLIC    HCONST   ---       PWM_CCMR_ADDR
      00FF5E3BH   PUBLIC    CODE     ---       pwm_set_duty
      00FF3C09H   PUBLIC    CODE     ---       pwm_init
      000105C5H   PUBLIC    XDATA    BYTE      ?pwm_init?BYTE
      000000D0H   SFRSYM    DATA     BYTE      PSW
      0000009DH   SFRSYM    DATA     BYTE      IRCBAND
      00000097H   SFRSYM    DATA     BYTE      AUXR2
      000000EFH   SFRSYM    DATA     BYTE      AUXINTIF
      000000FDH   SFRSYM    DATA     BYTE      S4CON
      000000ACH   SFRSYM    DATA     BYTE      S3CON
      0000009AH   SFRSYM    DATA     BYTE      S2CON
      000000B7H   SFRSYM    DATA     BYTE      IPH
      000000CDH   SFRSYM    DATA     BYTE      SPSTAT
      000000DDH   SFRSYM    DATA     BYTE      T4T3M
      000000C1H   SFRSYM    DATA     BYTE      WDT_CONTR
      000000DFH   SFRSYM    DATA     BYTE      IP3
      000000F4H   SFRSYM    DATA     BYTE      USBCON
      000000B5H   SFRSYM    DATA     BYTE      IP2
      000000FFH   SFRSYM    DATA     BYTE      RSTCFG
      000000C7H   SFRSYM    DATA     BYTE      IAP_CONTR
      000000F9H   SFRSYM    DATA     BYTE      LINICR
      0000008EH   SFRSYM    DATA     BYTE      AUXR
      000000AFH   SFRSYM    DATA     BYTE      IE2
      00000088H   SFRSYM    DATA     BYTE      TCON
      00000089H   SFRSYM    DATA     BYTE      TMOD
      00000098H   SFRSYM    DATA     BYTE      SCON
      000000F1H   SFRSYM    DATA     BYTE      CANICR
      00000087H   SFRSYM    DATA     BYTE      PCON
      000000BCH   SFRSYM    DATA     BYTE      ADC_CONTR
      000000E7H   SFRSYM    DATA     BYTE      CMPCR2
      000000E6H   SFRSYM    DATA     BYTE      CMPCR1
      000000DEH   SFRSYM    DATA     BYTE      ADCCFG
      000000B8H   SFRSYM    DATA     BYTE      IP
      0000008FH   SFRSYM    DATA     BYTE      INTCLKO
      000000EEH   SFRSYM    DATA     BYTE      IP3H
      000000B6H   SFRSYM    DATA     BYTE      IP2H
      000000A8H   SFRSYM    DATA     BYTE      IE
      000000BBH   SFRSYM    DATA     BYTE      P_SW3
      000000BAH   SFRSYM    DATA     BYTE      P_SW2
      000000A2H   SFRSYM    DATA     BYTE      P_SW1
      000000CEH   SFRSYM    DATA     BYTE      SPCTL
      000000F8H   SFRSYM    DATA     BYTE      P7
      000000E8H   SFRSYM    DATA     BYTE      P6
      000000C8H   SFRSYM    DATA     BYTE      P5
      000000C0H   SFRSYM    DATA     BYTE      P4
      000000B0H   SFRSYM    DATA     BYTE      P3
      000000A0H   SFRSYM    DATA     BYTE      P2
      00000090H   SFRSYM    DATA     BYTE      P1
      00000080H   SFRSYM    DATA     BYTE      P0
      WR14        REGSYM    ---      INT       pin
      WR12        REGSYM    ---      WORD      freq_div
L251 LINKER/LOCATER V4.66.93.0                                                        01/14/2026  23:11:45  PAGE 64



      00FF5E3BH   BLOCK     CODE     ---       LVL=0
      WR14        REGSYM    ---      INT       pin
      000105D1H   SYMBOL    XDATA    DWORD     duty
      00FF5E4BH   BLOCK     CODE     NEAR LAB  LVL=1
      000105D5H   SYMBOL    XDATA    DWORD     match_temp
      000105D9H   SYMBOL    XDATA    DWORD     arr
      ---         BLOCKEND  ---      ---       LVL=1
      00FF5E3BH   LINE      CODE     ---       #133
      00FF5E4BH   LINE      CODE     ---       #134
      00FF5E4BH   LINE      CODE     ---       #136
      00FF5E8DH   LINE      CODE     ---       #139
      00FF5EB1H   LINE      CODE     ---       #141
      00FF5EC1H   LINE      CODE     ---       #143
      00FF5EE6H   LINE      CODE     ---       #144
      00FF5EE8H   LINE      CODE     ---       #147
      00FF5EFEH   LINE      CODE     ---       #148
      00FF5EFEH   LINE      CODE     ---       #151
      00FF5F43H   LINE      CODE     ---       #152
      00FF5F4FH   LINE      CODE     ---       #154
      ---         BLOCKEND  ---      ---       LVL=0

      00FF3C09H   BLOCK     CODE     ---       LVL=0
      WR14        REGSYM    ---      INT       pin
      000105C7H   SYMBOL    XDATA    DWORD     freq
      000105CBH   SYMBOL    XDATA    DWORD     duty
      00FF3C17H   BLOCK     CODE     NEAR LAB  LVL=1
      000105CFH   SYMBOL    XDATA    WORD      match_temp
      000105D1H   SYMBOL    XDATA    DWORD     period_temp
      WR12        REGSYM    ---      WORD      freq_div
      ---         BLOCKEND  ---      ---       LVL=1
      00FF3C09H   LINE      CODE     ---       #165
      00FF3C17H   LINE      CODE     ---       #166
      00FF3C17H   LINE      CODE     ---       #168
      00FF3C1FH   LINE      CODE     ---       #169
      00FF3C2BH   LINE      CODE     ---       #170
      00FF3C2BH   LINE      CODE     ---       #173
      00FF3C4FH   LINE      CODE     ---       #175
      00FF3C60H   LINE      CODE     ---       #179
      00FF3C7DH   LINE      CODE     ---       #180
      00FF3C87H   LINE      CODE     ---       #181
      00FF3C98H   LINE      CODE     ---       #183
      00FF3CA8H   LINE      CODE     ---       #185
      00FF3CCDH   LINE      CODE     ---       #186
      00FF3CCFH   LINE      CODE     ---       #189
      00FF3CDEH   LINE      CODE     ---       #190
      00FF3CDEH   LINE      CODE     ---       #192
      00FF3D02H   LINE      CODE     ---       #193
      00FF3D0EH   LINE      CODE     ---       #195
      00FF3D39H   LINE      CODE     ---       #196
      00FF3D45H   LINE      CODE     ---       #198
      00FF3D89H   LINE      CODE     ---       #199
      00FF3D95H   LINE      CODE     ---       #201
      00FF3DA2H   LINE      CODE     ---       #203
      00FF3DE1H   LINE      CODE     ---       #204
      00FF3E12H   LINE      CODE     ---       #205
      00FF3E78H   LINE      CODE     ---       #207
      00FF3E85H   LINE      CODE     ---       #208
      00FF3E8BH   LINE      CODE     ---       #209
      00FF3E8EH   LINE      CODE     ---       #210
      00FF3E9FH   LINE      CODE     ---       #212
      00FF3EDCH   LINE      CODE     ---       #213
      00FF3F0DH   LINE      CODE     ---       #214
      00FF3F6BH   LINE      CODE     ---       #216
      00FF3F78H   LINE      CODE     ---       #217
L251 LINKER/LOCATER V4.66.93.0                                                        01/14/2026  23:11:45  PAGE 65


      00FF3F85H   LINE      CODE     ---       #218
      00FF3F85H   LINE      CODE     ---       #220
      00FF3FC8H   LINE      CODE     ---       #221
      00FF3FD7H   LINE      CODE     ---       #222
      ---         BLOCKEND  ---      ---       LVL=0

      ---         MODULE    ---      ---       zf_driver_soft_iic
      00FF6A00H   PUBLIC    CODE     ---       soft_iic_wait_ack
      00FF6FC5H   PUBLIC    CODE     ---       soft_iic_stop
      00FF7671H   PUBLIC    CODE     ---       soft_iic_delay
      00FF66D2H   PUBLIC    CODE     ---       soft_iic_read_data
      00FF6974H   PUBLIC    CODE     ---       soft_iic_send_data
      00FF719CH   PUBLIC    CODE     ---       soft_iic_start
      00FF6D47H   PUBLIC    CODE     ---       soft_iic_send_ack
      000000D0H   SFRSYM    DATA     BYTE      PSW
      0000009DH   SFRSYM    DATA     BYTE      IRCBAND
      00000097H   SFRSYM    DATA     BYTE      AUXR2
      000000EFH   SFRSYM    DATA     BYTE      AUXINTIF
      000000FDH   SFRSYM    DATA     BYTE      S4CON
      000000ACH   SFRSYM    DATA     BYTE      S3CON
      0000009AH   SFRSYM    DATA     BYTE      S2CON
      000000B7H   SFRSYM    DATA     BYTE      IPH
      000000CDH   SFRSYM    DATA     BYTE      SPSTAT
      000000DDH   SFRSYM    DATA     BYTE      T4T3M
      000000C1H   SFRSYM    DATA     BYTE      WDT_CONTR
      000000DFH   SFRSYM    DATA     BYTE      IP3
      000000F4H   SFRSYM    DATA     BYTE      USBCON
      000000B5H   SFRSYM    DATA     BYTE      IP2
      000000FFH   SFRSYM    DATA     BYTE      RSTCFG
      000000C7H   SFRSYM    DATA     BYTE      IAP_CONTR
      000000F9H   SFRSYM    DATA     BYTE      LINICR
      0000008EH   SFRSYM    DATA     BYTE      AUXR
      000000AFH   SFRSYM    DATA     BYTE      IE2
      00000088H   SFRSYM    DATA     BYTE      TCON
      00000089H   SFRSYM    DATA     BYTE      TMOD
      00000098H   SFRSYM    DATA     BYTE      SCON
      000000F1H   SFRSYM    DATA     BYTE      CANICR
      00000087H   SFRSYM    DATA     BYTE      PCON
      000000BCH   SFRSYM    DATA     BYTE      ADC_CONTR
      000000E7H   SFRSYM    DATA     BYTE      CMPCR2
      000000E6H   SFRSYM    DATA     BYTE      CMPCR1
      000000DEH   SFRSYM    DATA     BYTE      ADCCFG
      000000B8H   SFRSYM    DATA     BYTE      IP
      0000008FH   SFRSYM    DATA     BYTE      INTCLKO
      000000EEH   SFRSYM    DATA     BYTE      IP3H
      000000B6H   SFRSYM    DATA     BYTE      IP2H
      000000A8H   SFRSYM    DATA     BYTE      IE
      000000BBH   SFRSYM    DATA     BYTE      P_SW3
      000000BAH   SFRSYM    DATA     BYTE      P_SW2
      000000A2H   SFRSYM    DATA     BYTE      P_SW1
      000000CEH   SFRSYM    DATA     BYTE      SPCTL
      000000F8H   SFRSYM    DATA     BYTE      P7
      000000E8H   SFRSYM    DATA     BYTE      P6
      000000C8H   SFRSYM    DATA     BYTE      P5
      000000C0H   SFRSYM    DATA     BYTE      P4
      000000B0H   SFRSYM    DATA     BYTE      P3
      000000A0H   SFRSYM    DATA     BYTE      P2
      00000090H   SFRSYM    DATA     BYTE      P1
      00000080H   SFRSYM    DATA     BYTE      P0

      00FF7671H   BLOCK     CODE     ---       LVL=0
      00010923H   SYMBOL    XDATA    DWORD     delay
      00FF767BH   BLOCK     CODE     NEAR LAB  LVL=1
      00010927H   SYMBOL    XDATA    DWORD     count
      ---         BLOCKEND  ---      ---       LVL=1
L251 LINKER/LOCATER V4.66.93.0                                                        01/14/2026  23:11:45  PAGE 66


      00FF7671H   LINE      CODE     ---       #53
      00FF767BH   LINE      CODE     ---       #54
      00FF767BH   LINE      CODE     ---       #55
      00FF768FH   LINE      CODE     ---       #56
      00FF76A8H   LINE      CODE     ---       #57
      ---         BLOCKEND  ---      ---       LVL=0

      00FF719CH   BLOCK     CODE     ---       LVL=0
      REG=3       REGSYM    ---      ---       soft_iic_obj
      00FF719CH   LINE      CODE     ---       #67
      00FF71A0H   LINE      CODE     ---       #69
      00FF71BAH   LINE      CODE     ---       #70
      00FF71C2H   LINE      CODE     ---       #71
      00FF71CBH   LINE      CODE     ---       #73
      00FF71D6H   LINE      CODE     ---       #74
      00FF71DEH   LINE      CODE     ---       #75
      00FF71E9H   LINE      CODE     ---       #76
      00FF71F0H   LINE      CODE     ---       #77
      ---         BLOCKEND  ---      ---       LVL=0

      00FF6FC5H   BLOCK     CODE     ---       LVL=0
      REG=3       REGSYM    ---      ---       soft_iic_obj
      00FF6FC5H   LINE      CODE     ---       #86
      00FF6FC9H   LINE      CODE     ---       #88
      00FF6FE3H   LINE      CODE     ---       #89
      00FF6FEBH   LINE      CODE     ---       #90
      00FF6FF2H   LINE      CODE     ---       #92
      00FF6FFDH   LINE      CODE     ---       #93
      00FF7005H   LINE      CODE     ---       #94
      00FF7010H   LINE      CODE     ---       #95
      00FF7019H   LINE      CODE     ---       #96
      00FF7024H   LINE      CODE     ---       #97
      ---         BLOCKEND  ---      ---       LVL=0

      00FF6D47H   BLOCK     CODE     ---       LVL=0
      REG=3       REGSYM    ---      ---       soft_iic_obj
      00010965H   SYMBOL    XDATA    BYTE      ack
      00FF6D47H   LINE      CODE     ---       #107
      00FF6D4FH   LINE      CODE     ---       #109
      00FF6D69H   LINE      CODE     ---       #110
      00FF6D70H   LINE      CODE     ---       #112
      00FF6D76H   LINE      CODE     ---       #114
      00FF6D7CH   LINE      CODE     ---       #115
      00FF6D7EH   LINE      CODE     ---       #118
      00FF6D86H   LINE      CODE     ---       #119
      00FF6D86H   LINE      CODE     ---       #121
      00FF6D91H   LINE      CODE     ---       #122
      00FF6D99H   LINE      CODE     ---       #123
      00FF6DA4H   LINE      CODE     ---       #124
      00FF6DABH   LINE      CODE     ---       #125
      00FF6DB4H   LINE      CODE     ---       #126
      ---         BLOCKEND  ---      ---       LVL=0

      00FF6A00H   BLOCK     CODE     ---       LVL=0
      REG=3       REGSYM    ---      ---       soft_iic_obj
      00FF6A04H   BLOCK     CODE     NEAR LAB  LVL=1
      00010966H   SYMBOL    XDATA    BYTE      temp
      ---         BLOCKEND  ---      ---       LVL=1
      00FF6A00H   LINE      CODE     ---       #135
      00FF6A04H   LINE      CODE     ---       #136
      00FF6A04H   LINE      CODE     ---       #137
      00FF6A09H   LINE      CODE     ---       #138
      00FF6A23H   LINE      CODE     ---       #140
      00FF6A2AH   LINE      CODE     ---       #141
      00FF6A33H   LINE      CODE     ---       #145
L251 LINKER/LOCATER V4.66.93.0                                                        01/14/2026  23:11:45  PAGE 67


      00FF6A3EH   LINE      CODE     ---       #147
      00FF6A46H   LINE      CODE     ---       #148
      00FF6A51H   LINE      CODE     ---       #150
      00FF6A5AH   LINE      CODE     ---       #152
      00FF6A60H   LINE      CODE     ---       #153
      00FF6A60H   LINE      CODE     ---       #154
      00FF6A67H   LINE      CODE     ---       #158
      00FF6A72H   LINE      CODE     ---       #160
      00FF6A76H   LINE      CODE     ---       #161
      ---         BLOCKEND  ---      ---       LVL=0

      00FF6974H   BLOCK     CODE     ---       LVL=0
      REG=3       REGSYM    ---      ---       soft_iic_obj
      00010960H   SYMBOL    XDATA    BYTE      dat
      00FF697CH   BLOCK     CODE     NEAR LAB  LVL=1
      00010961H   SYMBOL    XDATA    BYTE      temp
      ---         BLOCKEND  ---      ---       LVL=1
      00FF6974H   LINE      CODE     ---       #170
      00FF697CH   LINE      CODE     ---       #171
      00FF697CH   LINE      CODE     ---       #172
      00FF6982H   LINE      CODE     ---       #174
      00FF699CH   LINE      CODE     ---       #176
      00FF699CH   LINE      CODE     ---       #179
      00FF69BEH   LINE      CODE     ---       #180
      00FF69C5H   LINE      CODE     ---       #182
      00FF69D0H   LINE      CODE     ---       #183
      00FF69D8H   LINE      CODE     ---       #184
      00FF69E3H   LINE      CODE     ---       #185
      00FF69EAH   LINE      CODE     ---       #186
      00FF69F0H   LINE      CODE     ---       #187
      00FF69FDH   LINE      CODE     ---       #188
      ---         BLOCKEND  ---      ---       LVL=0

      00FF66D2H   BLOCK     CODE     ---       LVL=0
      REG=3       REGSYM    ---      ---       soft_iic_obj
      0001095DH   SYMBOL    XDATA    BYTE      ack
      00FF66DAH   BLOCK     CODE     NEAR LAB  LVL=1
      0001095EH   SYMBOL    XDATA    BYTE      dat
      0001095FH   SYMBOL    XDATA    BYTE      temp
      ---         BLOCKEND  ---      ---       LVL=1
      00FF66D2H   LINE      CODE     ---       #197
      00FF66DAH   LINE      CODE     ---       #198
      00FF66DAH   LINE      CODE     ---       #199
      00FF66DFH   LINE      CODE     ---       #200
      00FF66E5H   LINE      CODE     ---       #201
      00FF66FFH   LINE      CODE     ---       #202
      00FF6706H   LINE      CODE     ---       #203
      00FF6711H   LINE      CODE     ---       #204
      00FF671AH   LINE      CODE     ---       #209
      00FF671CH   LINE      CODE     ---       #211
      00FF6723H   LINE      CODE     ---       #212
      00FF672EH   LINE      CODE     ---       #213
      00FF6736H   LINE      CODE     ---       #214
      00FF6741H   LINE      CODE     ---       #215
      00FF6756H   LINE      CODE     ---       #216
      00FF6764H   LINE      CODE     ---       #217
      00FF676BH   LINE      CODE     ---       #221
      00FF6776H   LINE      CODE     ---       #222
      00FF677FH   LINE      CODE     ---       #223
      00FF6783H   LINE      CODE     ---       #224
      ---         BLOCKEND  ---      ---       LVL=0
      REG=3       REGSYM    ---      ---       soft_iic_obj
      REG=3       REGSYM    ---      ---       soft_iic_obj
      REG=3       REGSYM    ---      ---       soft_iic_obj
      REG=3       REGSYM    ---      ---       soft_iic_obj
L251 LINKER/LOCATER V4.66.93.0                                                        01/14/2026  23:11:45  PAGE 68


      REG=3       REGSYM    ---      ---       soft_iic_obj
      REG=3       REGSYM    ---      ---       soft_iic_obj
      REG=3       REGSYM    ---      ---       soft_iic_obj
      REG=3       REGSYM    ---      ---       soft_iic_obj
      REG=3       REGSYM    ---      ---       soft_iic_obj
      REG=3       REGSYM    ---      ---       soft_iic_obj
      REG=3       REGSYM    ---      ---       soft_iic_obj
      REG=3       REGSYM    ---      ---       soft_iic_obj
      REG=3       REGSYM    ---      ---       soft_iic_obj
      REG=3       REGSYM    ---      ---       soft_iic_obj
      REG=3       REGSYM    ---      ---       soft_iic_obj
      REG=3       REGSYM    ---      ---       soft_iic_obj
      REG=3       REGSYM    ---      ---       soft_iic_obj
      REG=3       REGSYM    ---      ---       soft_iic_obj
      REG=3       REGSYM    ---      ---       soft_iic_obj
      REG=3       REGSYM    ---      ---       soft_iic_obj
      REG=3       REGSYM    ---      ---       soft_iic_obj

      ---         MODULE    ---      ---       zf_driver_soft_spi
      000000D0H   SFRSYM    DATA     BYTE      PSW
      0000009DH   SFRSYM    DATA     BYTE      IRCBAND
      00000097H   SFRSYM    DATA     BYTE      AUXR2
      000000EFH   SFRSYM    DATA     BYTE      AUXINTIF
      000000FDH   SFRSYM    DATA     BYTE      S4CON
      000000ACH   SFRSYM    DATA     BYTE      S3CON
      0000009AH   SFRSYM    DATA     BYTE      S2CON
      000000B7H   SFRSYM    DATA     BYTE      IPH
      000000CDH   SFRSYM    DATA     BYTE      SPSTAT
      000000DDH   SFRSYM    DATA     BYTE      T4T3M
      000000C1H   SFRSYM    DATA     BYTE      WDT_CONTR
      000000DFH   SFRSYM    DATA     BYTE      IP3
      000000F4H   SFRSYM    DATA     BYTE      USBCON
      000000B5H   SFRSYM    DATA     BYTE      IP2
      000000FFH   SFRSYM    DATA     BYTE      RSTCFG
      000000C7H   SFRSYM    DATA     BYTE      IAP_CONTR
      000000F9H   SFRSYM    DATA     BYTE      LINICR
      0000008EH   SFRSYM    DATA     BYTE      AUXR
      000000AFH   SFRSYM    DATA     BYTE      IE2
      00000088H   SFRSYM    DATA     BYTE      TCON
      00000089H   SFRSYM    DATA     BYTE      TMOD
      00000098H   SFRSYM    DATA     BYTE      SCON
      000000F1H   SFRSYM    DATA     BYTE      CANICR
      00000087H   SFRSYM    DATA     BYTE      PCON
      000000BCH   SFRSYM    DATA     BYTE      ADC_CONTR
      000000E7H   SFRSYM    DATA     BYTE      CMPCR2
      000000E6H   SFRSYM    DATA     BYTE      CMPCR1
      000000DEH   SFRSYM    DATA     BYTE      ADCCFG
      000000B8H   SFRSYM    DATA     BYTE      IP
      0000008FH   SFRSYM    DATA     BYTE      INTCLKO
      000000EEH   SFRSYM    DATA     BYTE      IP3H
      000000B6H   SFRSYM    DATA     BYTE      IP2H
      000000A8H   SFRSYM    DATA     BYTE      IE
      000000BBH   SFRSYM    DATA     BYTE      P_SW3
      000000BAH   SFRSYM    DATA     BYTE      P_SW2
      000000A2H   SFRSYM    DATA     BYTE      P_SW1
      000000CEH   SFRSYM    DATA     BYTE      SPCTL
      000000F8H   SFRSYM    DATA     BYTE      P7
      000000E8H   SFRSYM    DATA     BYTE      P6
      000000C8H   SFRSYM    DATA     BYTE      P5
      000000C0H   SFRSYM    DATA     BYTE      P4
      000000B0H   SFRSYM    DATA     BYTE      P3
      000000A0H   SFRSYM    DATA     BYTE      P2
      00000090H   SFRSYM    DATA     BYTE      P1
      00000080H   SFRSYM    DATA     BYTE      P0
      DR4         REGSYM    ---      DWORD     x
L251 LINKER/LOCATER V4.66.93.0                                                        01/14/2026  23:11:45  PAGE 69


      REG=3       REGSYM    ---      ---       soft_spi_obj
      R10         REGSYM    ---      BYTE      dat
      REG=3       REGSYM    ---      ---       soft_spi_obj
      WR6         REGSYM    ---      WORD      dat
      REG=3       REGSYM    ---      ---       soft_spi_obj
      REG=3       REGSYM    ---      ---       soft_spi_obj
      REG=3       REGSYM    ---      ---       soft_spi_obj
      REG=3       REGSYM    ---      ---       soft_spi_obj
      REG=3       REGSYM    ---      ---       soft_spi_obj
      REG=3       REGSYM    ---      ---       soft_spi_obj
      REG=3       REGSYM    ---      ---       soft_spi_obj
      REG=3       REGSYM    ---      ---       soft_spi_obj
      REG=3       REGSYM    ---      ---       soft_spi_obj
      REG=3       REGSYM    ---      ---       soft_spi_obj
      REG=3       REGSYM    ---      ---       soft_spi_obj
      REG=3       REGSYM    ---      ---       soft_spi_obj
      REG=3       REGSYM    ---      ---       soft_spi_obj
      REG=3       REGSYM    ---      ---       soft_spi_obj
      REG=3       REGSYM    ---      ---       soft_spi_obj
      REG=3       REGSYM    ---      ---       soft_spi_obj
      REG=3       REGSYM    ---      ---       soft_spi_obj
      REG=3       REGSYM    ---      ---       soft_spi_obj
      REG=3       REGSYM    ---      ---       soft_spi_obj

      ---         MODULE    ---      ---       zf_driver_spi
      00FF008EH   PUBLIC    CODE     ---       spi_write_8bit
      00FF3FDAH   PUBLIC    CODE     ---       spi_init
      00FF7905H   PUBLIC    CODE     ---       spi_write_16bit
      00FF744BH   PUBLIC    CODE     ---       spi_write_dat
      000105C3H   PUBLIC    XDATA    BYTE      ?spi_init?BYTE
      000000CFH   SFRSYM    DATA     BYTE      SPDAT
      000000D0H   SFRSYM    DATA     BYTE      PSW
      0000009DH   SFRSYM    DATA     BYTE      IRCBAND
      00000097H   SFRSYM    DATA     BYTE      AUXR2
      000000EFH   SFRSYM    DATA     BYTE      AUXINTIF
      000000FDH   SFRSYM    DATA     BYTE      S4CON
      000000ACH   SFRSYM    DATA     BYTE      S3CON
      0000009AH   SFRSYM    DATA     BYTE      S2CON
      0000009BH   SFRSYM    DATA     BYTE      S2BUF
      000000B7H   SFRSYM    DATA     BYTE      IPH
      000000CDH   SFRSYM    DATA     BYTE      SPSTAT
      000000DDH   SFRSYM    DATA     BYTE      T4T3M
      000000C1H   SFRSYM    DATA     BYTE      WDT_CONTR
      000000DFH   SFRSYM    DATA     BYTE      IP3
      000000F4H   SFRSYM    DATA     BYTE      USBCON
      000000B5H   SFRSYM    DATA     BYTE      IP2
      000000FFH   SFRSYM    DATA     BYTE      RSTCFG
      000000C7H   SFRSYM    DATA     BYTE      IAP_CONTR
      000000F9H   SFRSYM    DATA     BYTE      LINICR
      0000008EH   SFRSYM    DATA     BYTE      AUXR
      000000AFH   SFRSYM    DATA     BYTE      IE2
      00000088H   SFRSYM    DATA     BYTE      TCON
      00000089H   SFRSYM    DATA     BYTE      TMOD
      00000098H   SFRSYM    DATA     BYTE      SCON
      000000F1H   SFRSYM    DATA     BYTE      CANICR
      00000087H   SFRSYM    DATA     BYTE      PCON
      00000099H   SFRSYM    DATA     BYTE      SBUF
      000000BCH   SFRSYM    DATA     BYTE      ADC_CONTR
      000000E7H   SFRSYM    DATA     BYTE      CMPCR2
      000000E6H   SFRSYM    DATA     BYTE      CMPCR1
      0000009AH.1 SFRSYM    DATA     BIT       S2TI
      00000098H.1 SFRSYM    DATA     BIT       TI
      000000DEH   SFRSYM    DATA     BYTE      ADCCFG
      000000B8H   SFRSYM    DATA     BYTE      IP
      0000008FH   SFRSYM    DATA     BYTE      INTCLKO
L251 LINKER/LOCATER V4.66.93.0                                                        01/14/2026  23:11:45  PAGE 70


      000000EEH   SFRSYM    DATA     BYTE      IP3H
      000000B6H   SFRSYM    DATA     BYTE      IP2H
      000000A8H   SFRSYM    DATA     BYTE      IE
      000000BBH   SFRSYM    DATA     BYTE      P_SW3
      000000BAH   SFRSYM    DATA     BYTE      P_SW2
      000000A2H   SFRSYM    DATA     BYTE      P_SW1
      000000CEH   SFRSYM    DATA     BYTE      SPCTL
      000000F8H   SFRSYM    DATA     BYTE      P7
      000000E8H   SFRSYM    DATA     BYTE      P6
      000000C8H   SFRSYM    DATA     BYTE      P5
      000000C0H   SFRSYM    DATA     BYTE      P4
      000000B0H   SFRSYM    DATA     BYTE      P3
      000000A0H   SFRSYM    DATA     BYTE      P2
      00000090H   SFRSYM    DATA     BYTE      P1
      00000080H   SFRSYM    DATA     BYTE      P0

      00FF744BH   BLOCK     CODE     ---       LVL=0
      WR6         REGSYM    ---      INT       spi_n
      R10         REGSYM    ---      BYTE      dat
      00FF744BH   LINE      CODE     ---       #81
      00FF744DH   LINE      CODE     ---       #83
      00FF7459H   LINE      CODE     ---       #85
      00FF7459H   LINE      CODE     ---       #86
      00FF745CH   LINE      CODE     ---       #87
      00FF745FH   LINE      CODE     ---       #88
      00FF7464H   LINE      CODE     ---       #89
      00FF7465H   LINE      CODE     ---       #90
      00FF7465H   LINE      CODE     ---       #91
      00FF7467H   LINE      CODE     ---       #92
      00FF746AH   LINE      CODE     ---       #93
      00FF746DH   LINE      CODE     ---       #94
      00FF746EH   LINE      CODE     ---       #95
      00FF746EH   LINE      CODE     ---       #96
      00FF7471H   LINE      CODE     ---       #97
      00FF7474H   LINE      CODE     ---       #98
      00FF7478H   LINE      CODE     ---       #99
      00FF7479H   LINE      CODE     ---       #100
      00FF7479H   LINE      CODE     ---       #101
      00FF7489H   LINE      CODE     ---       #102
      00FF7489H   LINE      CODE     ---       #103
      00FF7489H   LINE      CODE     ---       #104
      ---         BLOCKEND  ---      ---       LVL=0
      WR8         REGSYM    ---      INT       spi_n
      R10         REGSYM    ---      BYTE      dat
      R15         REGSYM    ---      BYTE      ret

      00FF008EH   BLOCK     CODE     ---       LVL=0
      WR6         REGSYM    ---      INT       spi_n
      R5          REGSYM    ---      BYTE      dat
      00FF008EH   LINE      CODE     ---       #147
      00FF008EH   LINE      CODE     ---       #149
      ---         BLOCKEND  ---      ---       LVL=0
      REG=3       REGSYM    ---      ---       dat

      00FF7905H   BLOCK     CODE     ---       LVL=0
      WR12        REGSYM    ---      INT       spi_n
      WR14        REGSYM    ---      WORD      dat
      00FF7905H   LINE      CODE     ---       #175
      00FF790BH   LINE      CODE     ---       #177
      00FF7910H   LINE      CODE     ---       #178
      00FF7917H   LINE      CODE     ---       #179
      ---         BLOCKEND  ---      ---       LVL=0
      REG=3       REGSYM    ---      ---       dat
      WR14        REGSYM    ---      INT       spi_n
      R5          REGSYM    ---      BYTE      register_name
L251 LINKER/LOCATER V4.66.93.0                                                        01/14/2026  23:11:45  PAGE 71


      R13         REGSYM    ---      BYTE      dat
      R11         REGSYM    ---      BYTE      register_name
      REG=3       REGSYM    ---      ---       dat
      WR14        REGSYM    ---      INT       spi_n
      WR12        REGSYM    ---      WORD      dat
      WR14        REGSYM    ---      INT       spi_n
      WR12        REGSYM    ---      WORD      register_name
      WR6         REGSYM    ---      INT       spi_n
      REG=3       REGSYM    ---      ---       dat
      WR14        REGSYM    ---      INT       spi_n
      WR12        REGSYM    ---      WORD      dat
      REG=3       REGSYM    ---      ---       dat
      WR14        REGSYM    ---      INT       spi_n
      R5          REGSYM    ---      BYTE      register_name
      R5          REGSYM    ---      BYTE      register_name
      REG=3       REGSYM    ---      ---       dat
      WR14        REGSYM    ---      INT       spi_n
      WR12        REGSYM    ---      WORD      register_name
      WR12        REGSYM    ---      WORD      dat
      REG=3       REGSYM    ---      ---       dat
      REG=3       REGSYM    ---      ---       write_buffer
      REG=3       REGSYM    ---      ---       write_buffer

      00FF3FDAH   BLOCK     CODE     ---       LVL=0
      000105C7H   SYMBOL    XDATA    INT       spi_n
      000105C9H   SYMBOL    XDATA    INT       mode
      DR12        REGSYM    ---      DWORD     baud
      000105CBH   SYMBOL    XDATA    INT       sck_pin
      000105CDH   SYMBOL    XDATA    INT       mosi_pin
      000105CFH   SYMBOL    XDATA    INT       miso_pin
      000105D1H   SYMBOL    XDATA    INT       cs_pin
      00FF3FEAH   BLOCK     CODE     NEAR LAB  LVL=1
      000105D3H   SYMBOL    XDATA    DWORD     spi_psc
      ---         BLOCKEND  ---      ---       LVL=1
      00FF3FDAH   LINE      CODE     ---       #465
      00FF3FEAH   LINE      CODE     ---       #466
      00FF3FEAH   LINE      CODE     ---       #468
      00FF3FF6H   LINE      CODE     ---       #470
      00FF400AH   LINE      CODE     ---       #472
      00FF401AH   LINE      CODE     ---       #474
      00FF401AH   LINE      CODE     ---       #476
      00FF402FH   LINE      CODE     ---       #477
      00FF4044H   LINE      CODE     ---       #479
      00FF4050H   LINE      CODE     ---       #481
      00FF405BH   LINE      CODE     ---       #482
      00FF405BH   LINE      CODE     ---       #484
      00FF4067H   LINE      CODE     ---       #486
      00FF4075H   LINE      CODE     ---       #487
      00FF4075H   LINE      CODE     ---       #490
      00FF407BH   LINE      CODE     ---       #492
      00FF4088H   LINE      CODE     ---       #493
      00FF4095H   LINE      CODE     ---       #494
      00FF40A1H   LINE      CODE     ---       #496
      00FF40A8H   LINE      CODE     ---       #497
      00FF40A8H   LINE      CODE     ---       #498
      00FF40B4H   LINE      CODE     ---       #500
      00FF40BBH   LINE      CODE     ---       #501
      00FF40BBH   LINE      CODE     ---       #504
      00FF40C8H   LINE      CODE     ---       #506
      00FF40CBH   LINE      CODE     ---       #508
      00FF40EDH   LINE      CODE     ---       #510
      00FF40EDH   LINE      CODE     ---       #511
      00FF40F1H   LINE      CODE     ---       #512
      00FF40F3H   LINE      CODE     ---       #514
      00FF40F3H   LINE      CODE     ---       #515
L251 LINKER/LOCATER V4.66.93.0                                                        01/14/2026  23:11:45  PAGE 72


      00FF40F6H   LINE      CODE     ---       #516
      00FF40F8H   LINE      CODE     ---       #518
      00FF40F8H   LINE      CODE     ---       #519
      00FF40FBH   LINE      CODE     ---       #520
      00FF40FDH   LINE      CODE     ---       #522
      00FF40FDH   LINE      CODE     ---       #523
      00FF4100H   LINE      CODE     ---       #524
      00FF4100H   LINE      CODE     ---       #525
      00FF4100H   LINE      CODE     ---       #527
      00FF4103H   LINE      CODE     ---       #528
      00FF4106H   LINE      CODE     ---       #529
      00FF4109H   LINE      CODE     ---       #532
      00FF4122H   LINE      CODE     ---       #534
      00FF4125H   LINE      CODE     ---       #536
      00FF412BH   LINE      CODE     ---       #538
      00FF412EH   LINE      CODE     ---       #539
      00FF4130H   LINE      CODE     ---       #540
      00FF4140H   LINE      CODE     ---       #542
      00FF4143H   LINE      CODE     ---       #543
      00FF4145H   LINE      CODE     ---       #544
      00FF4155H   LINE      CODE     ---       #546
      00FF4159H   LINE      CODE     ---       #547
      00FF415BH   LINE      CODE     ---       #550
      00FF415EH   LINE      CODE     ---       #551
      00FF415EH   LINE      CODE     ---       #554
      00FF4170H   LINE      CODE     ---       #556
      00FF4170H   LINE      CODE     ---       #557
      00FF4170H   LINE      CODE     ---       #559
      00FF4170H   LINE      CODE     ---       #560
      00FF4173H   LINE      CODE     ---       #561
      00FF4175H   LINE      CODE     ---       #563
      00FF4175H   LINE      CODE     ---       #564
      00FF4178H   LINE      CODE     ---       #565
      00FF417AH   LINE      CODE     ---       #567
      00FF417AH   LINE      CODE     ---       #568
      00FF417DH   LINE      CODE     ---       #569
      00FF417DH   LINE      CODE     ---       #570
      00FF417DH   LINE      CODE     ---       #572
      00FF4180H   LINE      CODE     ---       #573
      00FF4183H   LINE      CODE     ---       #574
      00FF418CH   LINE      CODE     ---       #583
      00FF41A4H   LINE      CODE     ---       #586
      00FF41A7H   LINE      CODE     ---       #588
      00FF41C5H   LINE      CODE     ---       #590
      00FF41C5H   LINE      CODE     ---       #591
      00FF41C9H   LINE      CODE     ---       #592
      00FF41CBH   LINE      CODE     ---       #594
      00FF41CBH   LINE      CODE     ---       #595
      00FF41CEH   LINE      CODE     ---       #596
      00FF41D0H   LINE      CODE     ---       #598
      00FF41D0H   LINE      CODE     ---       #599
      00FF41D3H   LINE      CODE     ---       #600
      00FF41D5H   LINE      CODE     ---       #602
      00FF41D5H   LINE      CODE     ---       #603
      00FF41D8H   LINE      CODE     ---       #604
      00FF41D8H   LINE      CODE     ---       #605
      00FF41D8H   LINE      CODE     ---       #607
      00FF41DBH   LINE      CODE     ---       #608
      00FF41E8H   LINE      CODE     ---       #612
      00FF4201H   LINE      CODE     ---       #616
      00FF4207H   LINE      CODE     ---       #618
      00FF4214H   LINE      CODE     ---       #619
      00FF4216H   LINE      CODE     ---       #620
      00FF4226H   LINE      CODE     ---       #622
      00FF4236H   LINE      CODE     ---       #623
L251 LINKER/LOCATER V4.66.93.0                                                        01/14/2026  23:11:45  PAGE 73


      00FF4238H   LINE      CODE     ---       #626
      00FF4246H   LINE      CODE     ---       #627
      00FF4246H   LINE      CODE     ---       #635
      00FF4261H   LINE      CODE     ---       #637
      00FF4261H   LINE      CODE     ---       #638
      00FF4267H   LINE      CODE     ---       #639
      00FF426AH   LINE      CODE     ---       #641
      00FF426AH   LINE      CODE     ---       #642
      00FF426FH   LINE      CODE     ---       #643
      00FF4271H   LINE      CODE     ---       #645
      00FF4271H   LINE      CODE     ---       #646
      00FF4276H   LINE      CODE     ---       #647
      00FF4278H   LINE      CODE     ---       #649
      00FF4278H   LINE      CODE     ---       #650
      00FF4280H   LINE      CODE     ---       #651
      00FF4280H   LINE      CODE     ---       #652
      00FF4280H   LINE      CODE     ---       #654
      00FF4280H   LINE      CODE     ---       #655
      00FF4283H   LINE      CODE     ---       #656
      00FF4292H   LINE      CODE     ---       #665
      00FF42ACH   LINE      CODE     ---       #667
      00FF42AFH   LINE      CODE     ---       #669
      00FF42CDH   LINE      CODE     ---       #671
      00FF42CDH   LINE      CODE     ---       #672
      00FF42D1H   LINE      CODE     ---       #673
      00FF42D3H   LINE      CODE     ---       #675
      00FF42D3H   LINE      CODE     ---       #676
      00FF42D6H   LINE      CODE     ---       #677
      00FF42D8H   LINE      CODE     ---       #679
      00FF42D8H   LINE      CODE     ---       #680
      00FF42DBH   LINE      CODE     ---       #681
      00FF42DDH   LINE      CODE     ---       #683
      00FF42DDH   LINE      CODE     ---       #684
      00FF42E0H   LINE      CODE     ---       #685
      00FF42E0H   LINE      CODE     ---       #686
      00FF42E0H   LINE      CODE     ---       #688
      00FF42E3H   LINE      CODE     ---       #689
      00FF42F0H   LINE      CODE     ---       #693
      00FF4309H   LINE      CODE     ---       #695
      00FF430FH   LINE      CODE     ---       #697
      00FF431CH   LINE      CODE     ---       #698
      00FF431EH   LINE      CODE     ---       #699
      00FF432EH   LINE      CODE     ---       #701
      00FF433EH   LINE      CODE     ---       #702
      00FF4340H   LINE      CODE     ---       #705
      00FF434EH   LINE      CODE     ---       #706
      00FF434EH   LINE      CODE     ---       #714
      00FF4366H   LINE      CODE     ---       #716
      00FF4366H   LINE      CODE     ---       #717
      00FF436CH   LINE      CODE     ---       #718
      00FF436EH   LINE      CODE     ---       #720
      00FF436EH   LINE      CODE     ---       #721
      00FF4373H   LINE      CODE     ---       #722
      00FF4375H   LINE      CODE     ---       #724
      00FF4375H   LINE      CODE     ---       #725
      00FF437AH   LINE      CODE     ---       #726
      00FF437CH   LINE      CODE     ---       #728
      00FF437CH   LINE      CODE     ---       #729
      00FF4384H   LINE      CODE     ---       #730
      00FF4384H   LINE      CODE     ---       #731
      00FF4384H   LINE      CODE     ---       #733
      00FF438CH   LINE      CODE     ---       #734
      ---         BLOCKEND  ---      ---       LVL=0

      ---         MODULE    ---      ---       zf_driver_timer
L251 LINKER/LOCATER V4.66.93.0                                                        01/14/2026  23:11:45  PAGE 74


      00FF76A9H   PUBLIC    CODE     ---       timer_funciton_check
      000000D0H   SFRSYM    DATA     BYTE      PSW
      0000009DH   SFRSYM    DATA     BYTE      IRCBAND
      00000097H   SFRSYM    DATA     BYTE      AUXR2
      000000EFH   SFRSYM    DATA     BYTE      AUXINTIF
      000000FDH   SFRSYM    DATA     BYTE      S4CON
      000000ACH   SFRSYM    DATA     BYTE      S3CON
      0000009AH   SFRSYM    DATA     BYTE      S2CON
      000000B7H   SFRSYM    DATA     BYTE      IPH
      000000CDH   SFRSYM    DATA     BYTE      SPSTAT
      000000DDH   SFRSYM    DATA     BYTE      T4T3M
      000000C1H   SFRSYM    DATA     BYTE      WDT_CONTR
      000000DFH   SFRSYM    DATA     BYTE      IP3
      000000F4H   SFRSYM    DATA     BYTE      USBCON
      000000B5H   SFRSYM    DATA     BYTE      IP2
      000000FFH   SFRSYM    DATA     BYTE      RSTCFG
      000000C7H   SFRSYM    DATA     BYTE      IAP_CONTR
      000000F9H   SFRSYM    DATA     BYTE      LINICR
      0000008EH   SFRSYM    DATA     BYTE      AUXR
      000000AFH   SFRSYM    DATA     BYTE      IE2
      00000088H   SFRSYM    DATA     BYTE      TCON
      00000089H   SFRSYM    DATA     BYTE      TMOD
      00000098H   SFRSYM    DATA     BYTE      SCON
      000000F1H   SFRSYM    DATA     BYTE      CANICR
      00000087H   SFRSYM    DATA     BYTE      PCON
      000000BCH   SFRSYM    DATA     BYTE      ADC_CONTR
      000000E7H   SFRSYM    DATA     BYTE      CMPCR2
      000000E6H   SFRSYM    DATA     BYTE      CMPCR1
      000000DEH   SFRSYM    DATA     BYTE      ADCCFG
      000000B8H   SFRSYM    DATA     BYTE      IP
      0000008FH   SFRSYM    DATA     BYTE      INTCLKO
      000000EEH   SFRSYM    DATA     BYTE      IP3H
      000000B6H   SFRSYM    DATA     BYTE      IP2H
      000000A8H   SFRSYM    DATA     BYTE      IE
      000000BBH   SFRSYM    DATA     BYTE      P_SW3
      000000BAH   SFRSYM    DATA     BYTE      P_SW2
      000000A2H   SFRSYM    DATA     BYTE      P_SW1
      000000CEH   SFRSYM    DATA     BYTE      SPCTL
      000000F8H   SFRSYM    DATA     BYTE      P7
      000000E8H   SFRSYM    DATA     BYTE      P6
      000000C8H   SFRSYM    DATA     BYTE      P5
      000000C0H   SFRSYM    DATA     BYTE      P4
      000000B0H   SFRSYM    DATA     BYTE      P3
      000000A0H   SFRSYM    DATA     BYTE      P2
      00000090H   SFRSYM    DATA     BYTE      P1
      00000080H   SFRSYM    DATA     BYTE      P0
      000108E2H   SYMBOL    XDATA    ---       timer_function_state

      00FF76A9H   BLOCK     CODE     ---       LVL=0
      WR2         REGSYM    ---      INT       index
      WR0         REGSYM    ---      INT       mode
      00FF76ABH   BLOCK     CODE     NEAR LAB  LVL=1
      R10         REGSYM    ---      BYTE      return_state
      ---         BLOCKEND  ---      ---       LVL=1
      00FF76A9H   LINE      CODE     ---       #58
      00FF76ABH   LINE      CODE     ---       #59
      00FF76ABH   LINE      CODE     ---       #60
      00FF76AEH   LINE      CODE     ---       #61
      00FF76C1H   LINE      CODE     ---       #63
      00FF76CAH   LINE      CODE     ---       #64
      00FF76CCH   LINE      CODE     ---       #65
      00FF76D0H   LINE      CODE     ---       #67
      00FF76D3H   LINE      CODE     ---       #68
      00FF76D5H   LINE      CODE     ---       #71
      00FF76D7H   LINE      CODE     ---       #72
L251 LINKER/LOCATER V4.66.93.0                                                        01/14/2026  23:11:45  PAGE 75


      00FF76D7H   LINE      CODE     ---       #73
      00FF76D9H   LINE      CODE     ---       #74
      ---         BLOCKEND  ---      ---       LVL=0

      ---         MODULE    ---      ---       zf_driver_uart
      00FF7088H   PUBLIC    CODE     ---       uart_rx_start_buff
      00FF5D1FH   PUBLIC    CODE     ---       uart_write_buffer
      00FF4CA9H   PUBLIC    CODE     ---       uart_init
      00FF75FCH   PUBLIC    CODE     ---       uart_rx_interrupt
      00FF792EH   PUBLIC    CODE     ---       uart_write_byte
      00FF661BH   PUBLIC    CODE     ---       uart_dma_init
      00FF76DAH   PUBLIC    CODE     ---       uart_funciton_check
      00FF7339H   PUBLIC    CODE     ---       uart_query_byte
      000108F6H   PUBLIC    XDATA    ---       uart_rx_buff
      000105C3H   PUBLIC    XDATA    BYTE      ?uart_init?BYTE
      000000D0H   SFRSYM    DATA     BYTE      PSW
      0000009DH   SFRSYM    DATA     BYTE      IRCBAND
      00000097H   SFRSYM    DATA     BYTE      AUXR2
      000000EFH   SFRSYM    DATA     BYTE      AUXINTIF
      000000FDH   SFRSYM    DATA     BYTE      S4CON
      000000ACH   SFRSYM    DATA     BYTE      S3CON
      0000009AH   SFRSYM    DATA     BYTE      S2CON
      000000B7H   SFRSYM    DATA     BYTE      IPH
      000000CDH   SFRSYM    DATA     BYTE      SPSTAT
      000000DDH   SFRSYM    DATA     BYTE      T4T3M
      000000C1H   SFRSYM    DATA     BYTE      WDT_CONTR
      00000088H.6 SFRSYM    DATA     BIT       TR1
      000000D7H   SFRSYM    DATA     BYTE      T2L
      000000D6H   SFRSYM    DATA     BYTE      T2H
      000000DFH   SFRSYM    DATA     BYTE      IP3
      000000F4H   SFRSYM    DATA     BYTE      USBCON
      000000B5H   SFRSYM    DATA     BYTE      IP2
      000000FFH   SFRSYM    DATA     BYTE      RSTCFG
      000000C7H   SFRSYM    DATA     BYTE      IAP_CONTR
      000000F9H   SFRSYM    DATA     BYTE      LINICR
      0000008EH   SFRSYM    DATA     BYTE      AUXR
      000000AFH   SFRSYM    DATA     BYTE      IE2
      00000088H   SFRSYM    DATA     BYTE      TCON
      00000089H   SFRSYM    DATA     BYTE      TMOD
      00000098H   SFRSYM    DATA     BYTE      SCON
      000000F1H   SFRSYM    DATA     BYTE      CANICR
      00000087H   SFRSYM    DATA     BYTE      PCON
      000000BCH   SFRSYM    DATA     BYTE      ADC_CONTR
      000000E7H   SFRSYM    DATA     BYTE      CMPCR2
      000000E6H   SFRSYM    DATA     BYTE      CMPCR1
      000000DEH   SFRSYM    DATA     BYTE      ADCCFG
      000000B8H   SFRSYM    DATA     BYTE      IP
      0000008FH   SFRSYM    DATA     BYTE      INTCLKO
      000000EEH   SFRSYM    DATA     BYTE      IP3H
      000000B6H   SFRSYM    DATA     BYTE      IP2H
      000000A8H   SFRSYM    DATA     BYTE      IE
      000000BBH   SFRSYM    DATA     BYTE      P_SW3
      000000BAH   SFRSYM    DATA     BYTE      P_SW2
      000000A2H   SFRSYM    DATA     BYTE      P_SW1
      000000CEH   SFRSYM    DATA     BYTE      SPCTL
      000000F8H   SFRSYM    DATA     BYTE      P7
      000000E8H   SFRSYM    DATA     BYTE      P6
      000000C8H   SFRSYM    DATA     BYTE      P5
      000000C0H   SFRSYM    DATA     BYTE      P4
      000000B0H   SFRSYM    DATA     BYTE      P3
      000000A0H   SFRSYM    DATA     BYTE      P2
      00000090H   SFRSYM    DATA     BYTE      P1
      00000080H   SFRSYM    DATA     BYTE      P0
      00FF8597H   SYMBOL    HCONST   ---       ?tpl?0001
      000108EEH   SYMBOL    XDATA    ---       uart_function_state
L251 LINKER/LOCATER V4.66.93.0                                                        01/14/2026  23:11:45  PAGE 76



      00FF76DAH   BLOCK     CODE     ---       LVL=0
      WR2         REGSYM    ---      INT       index
      WR0         REGSYM    ---      INT       mode
      00FF76DCH   BLOCK     CODE     NEAR LAB  LVL=1
      R10         REGSYM    ---      BYTE      return_state
      ---         BLOCKEND  ---      ---       LVL=1
      00FF76DAH   LINE      CODE     ---       #86
      00FF76DCH   LINE      CODE     ---       #87
      00FF76DCH   LINE      CODE     ---       #88
      00FF76DFH   LINE      CODE     ---       #89
      00FF76F2H   LINE      CODE     ---       #91
      00FF76FBH   LINE      CODE     ---       #92
      00FF76FDH   LINE      CODE     ---       #93
      00FF7701H   LINE      CODE     ---       #95
      00FF7704H   LINE      CODE     ---       #96
      00FF7706H   LINE      CODE     ---       #99
      00FF7708H   LINE      CODE     ---       #100
      00FF7708H   LINE      CODE     ---       #101
      00FF770AH   LINE      CODE     ---       #102
      ---         BLOCKEND  ---      ---       LVL=0

      00FF5D1FH   BLOCK     CODE     ---       LVL=0
      00010616H   SYMBOL    XDATA    INT       uart_n
      REG=3       REGSYM    ---      ---       buff
      00010618H   SYMBOL    XDATA    WORD      len
      00FF5D2FH   BLOCK     CODE     NEAR LAB  LVL=1
      0001061AH   SYMBOL    XDATA    ---       tmp_buff
      0001065AH   SYMBOL    XDATA    WORD      tmp_len
      ---         BLOCKEND  ---      ---       LVL=1
      00FF5D1FH   LINE      CODE     ---       #111
      00FF5D2FH   LINE      CODE     ---       #112
      00FF5D2FH   LINE      CODE     ---       #116
      00FF5D44H   LINE      CODE     ---       #117
      00FF5D44H   LINE      CODE     ---       #118
      00FF5D47H   LINE      CODE     ---       #120
      00FF5D65H   LINE      CODE     ---       #121
      00FF5D76H   LINE      CODE     ---       #122
      00FF5D87H   LINE      CODE     ---       #123
      00FF5D89H   LINE      CODE     ---       #126
      00FF5DA9H   LINE      CODE     ---       #128
      00FF5DB8H   LINE      CODE     ---       #129
      00FF5DD3H   LINE      CODE     ---       #130
      00FF5DE4H   LINE      CODE     ---       #131
      00FF5DF1H   LINE      CODE     ---       #132
      00FF5DFEH   LINE      CODE     ---       #134
      00FF5E1FH   LINE      CODE     ---       #136
      00FF5E2BH   LINE      CODE     ---       #137
      00FF5E38H   LINE      CODE     ---       #138
      ---         BLOCKEND  ---      ---       LVL=0
      REG=3       REGSYM    ---      ---       str
      WR4         REGSYM    ---      WORD      len

      00FF792EH   BLOCK     CODE     ---       LVL=0
      WR6         REGSYM    ---      INT       uart_n
      00010615H   SYMBOL    XDATA    BYTE      dat
      00FF792EH   LINE      CODE     ---       #159
      00FF7932H   LINE      CODE     ---       #161
      ---         BLOCKEND  ---      ---       LVL=0

      00FF7088H   BLOCK     CODE     ---       LVL=0
      WR8         REGSYM    ---      INT       uart_n
      00FF7088H   LINE      CODE     ---       #170
      00FF708AH   LINE      CODE     ---       #172
      00FF70A8H   LINE      CODE     ---       #173
L251 LINKER/LOCATER V4.66.93.0                                                        01/14/2026  23:11:45  PAGE 77


      00FF70B8H   LINE      CODE     ---       #174
      00FF70CBH   LINE      CODE     ---       #175
      00FF70DAH   LINE      CODE     ---       #176
      00FF70E7H   LINE      CODE     ---       #177
      ---         BLOCKEND  ---      ---       LVL=0

      00FF75FCH   BLOCK     CODE     ---       LVL=0
      WR6         REGSYM    ---      INT       uart_n
      R5          REGSYM    ---      BYTE      status
      00FF75FCH   LINE      CODE     ---       #186
      00FF75FEH   LINE      CODE     ---       #188
      00FF7602H   LINE      CODE     ---       #190
      00FF761AH   LINE      CODE     ---       #191
      00FF761CH   LINE      CODE     ---       #194
      00FF7637H   LINE      CODE     ---       #195
      00FF7637H   LINE      CODE     ---       #196
      ---         BLOCKEND  ---      ---       LVL=0
      WR8         REGSYM    ---      INT       uart_n
      R15         REGSYM    ---      BYTE      dat

      00FF7339H   BLOCK     CODE     ---       LVL=0
      WR2         REGSYM    ---      INT       uart_n
      REG=7       REGSYM    ---      ---       dat
      00FF733FH   BLOCK     CODE     NEAR LAB  LVL=1
      R15         REGSYM    ---      BYTE      ret
      ---         BLOCKEND  ---      ---       LVL=1
      00FF7339H   LINE      CODE     ---       #230
      00FF733FH   LINE      CODE     ---       #231
      00FF733FH   LINE      CODE     ---       #232
      00FF733FH   LINE      CODE     ---       #235
      00FF734FH   LINE      CODE     ---       #237
      00FF7369H   LINE      CODE     ---       #239
      00FF736CH   LINE      CODE     ---       #241
      00FF7374H   LINE      CODE     ---       #242
      00FF7376H   LINE      CODE     ---       #245
      00FF7378H   LINE      CODE     ---       #246
      00FF7378H   LINE      CODE     ---       #249
      00FF737DH   LINE      CODE     ---       #251
      00FF737FH   LINE      CODE     ---       #252
      ---         BLOCKEND  ---      ---       LVL=0

      00FF661BH   BLOCK     CODE     ---       LVL=0
      WR8         REGSYM    ---      INT       uart_n
      00FF661BH   LINE      CODE     ---       #260
      00FF661FH   LINE      CODE     ---       #262
      00FF663BH   LINE      CODE     ---       #263
      00FF6649H   LINE      CODE     ---       #264
      00FF6656H   LINE      CODE     ---       #266
      00FF6663H   LINE      CODE     ---       #267
      00FF6670H   LINE      CODE     ---       #268
      00FF667DH   LINE      CODE     ---       #270
      00FF668AH   LINE      CODE     ---       #271
      00FF66A3H   LINE      CODE     ---       #272
      00FF66B6H   LINE      CODE     ---       #273
      00FF66C5H   LINE      CODE     ---       #274
      00FF66CAH   LINE      CODE     ---       #275
      00FF66CFH   LINE      CODE     ---       #277
      ---         BLOCKEND  ---      ---       LVL=0

      00FF4CA9H   BLOCK     CODE     ---       LVL=0
      WR12        REGSYM    ---      INT       uart_n
      000105C7H   SYMBOL    XDATA    DWORD     baud
      WR14        REGSYM    ---      INT       tx_pin
      000105CBH   SYMBOL    XDATA    INT       rx_pin
      00FF4CB9H   BLOCK     CODE     NEAR LAB  LVL=1
L251 LINKER/LOCATER V4.66.93.0                                                        01/14/2026  23:11:45  PAGE 78


      WR6         REGSYM    ---      WORD      brt
      ---         BLOCKEND  ---      ---       LVL=1
      00FF4CA9H   LINE      CODE     ---       #289
      00FF4CB9H   LINE      CODE     ---       #290
      00FF4CB9H   LINE      CODE     ---       #299
      00FF4CCFH   LINE      CODE     ---       #306
      00FF4CE9H   LINE      CODE     ---       #311
      00FF4D13H   LINE      CODE     ---       #314
      00FF4D24H   LINE      CODE     ---       #315
      00FF4D37H   LINE      CODE     ---       #317
      00FF4D68H   LINE      CODE     ---       #319
      00FF4D88H   LINE      CODE     ---       #321
      00FF4D88H   LINE      CODE     ---       #335
      00FF4D8BH   LINE      CODE     ---       #336
      00FF4D8FH   LINE      CODE     ---       #337
      00FF4D93H   LINE      CODE     ---       #338
      00FF4D96H   LINE      CODE     ---       #339
      00FF4D98H   LINE      CODE     ---       #342
      00FF4D9BH   LINE      CODE     ---       #344
      00FF4DADH   LINE      CODE     ---       #346
      00FF4DB1H   LINE      CODE     ---       #347
      00FF4DB4H   LINE      CODE     ---       #348
      00FF4DC0H   LINE      CODE     ---       #350
      00FF4DC3H   LINE      CODE     ---       #351
      00FF4DC6H   LINE      CODE     ---       #352
      00FF4DD2H   LINE      CODE     ---       #354
      00FF4DD5H   LINE      CODE     ---       #355
      00FF4DD8H   LINE      CODE     ---       #356
      00FF4DEAH   LINE      CODE     ---       #358
      00FF4DEDH   LINE      CODE     ---       #359
      00FF4DEDH   LINE      CODE     ---       #362
      00FF4DF0H   LINE      CODE     ---       #365
      00FF4DF0H   LINE      CODE     ---       #369
      00FF4DF3H   LINE      CODE     ---       #370
      00FF4DF7H   LINE      CODE     ---       #371
      00FF4DFBH   LINE      CODE     ---       #372
      00FF4DFEH   LINE      CODE     ---       #375
      00FF4E01H   LINE      CODE     ---       #377
      00FF4E13H   LINE      CODE     ---       #379
      00FF4E13H   LINE      CODE     ---       #380
      00FF4E15H   LINE      CODE     ---       #381
      00FF4E24H   LINE      CODE     ---       #383
      00FF4E27H   LINE      CODE     ---       #384
      00FF4E27H   LINE      CODE     ---       #388
      00FF4E29H   LINE      CODE     ---       #391
      00FF4E29H   LINE      CODE     ---       #395
      00FF4E2CH   LINE      CODE     ---       #396
      00FF4E30H   LINE      CODE     ---       #397
      00FF4E34H   LINE      CODE     ---       #398
      00FF4E37H   LINE      CODE     ---       #408
      00FF4E3AH   LINE      CODE     ---       #410
      00FF4E4CH   LINE      CODE     ---       #412
      00FF4E4CH   LINE      CODE     ---       #413
      00FF4E4EH   LINE      CODE     ---       #414
      00FF4E5AH   LINE      CODE     ---       #416
      00FF4E5DH   LINE      CODE     ---       #417
      00FF4E5DH   LINE      CODE     ---       #421
      00FF4E5FH   LINE      CODE     ---       #424
      00FF4E5FH   LINE      CODE     ---       #428
      00FF4E62H   LINE      CODE     ---       #429
      00FF4E66H   LINE      CODE     ---       #430
      00FF4E6AH   LINE      CODE     ---       #431
      00FF4E6DH   LINE      CODE     ---       #441
      00FF4E70H   LINE      CODE     ---       #443
      00FF4E82H   LINE      CODE     ---       #445
L251 LINKER/LOCATER V4.66.93.0                                                        01/14/2026  23:11:45  PAGE 79


      00FF4E86H   LINE      CODE     ---       #446
      00FF4E88H   LINE      CODE     ---       #447
      00FF4E94H   LINE      CODE     ---       #451
      00FF4E97H   LINE      CODE     ---       #452
      00FF4E97H   LINE      CODE     ---       #456
      00FF4E97H   LINE      CODE     ---       #459
      00FF4E97H   LINE      CODE     ---       #462
      00FF4E9CH   LINE      CODE     ---       #464
      ---         BLOCKEND  ---      ---       LVL=0

      ---         MODULE    ---      ---       zf_device_ble6a20
      000000D0H   SFRSYM    DATA     BYTE      PSW
      0000009DH   SFRSYM    DATA     BYTE      IRCBAND
      00000097H   SFRSYM    DATA     BYTE      AUXR2
      000000EFH   SFRSYM    DATA     BYTE      AUXINTIF
      000000FDH   SFRSYM    DATA     BYTE      S4CON
      000000ACH   SFRSYM    DATA     BYTE      S3CON
      0000009AH   SFRSYM    DATA     BYTE      S2CON
      000000B7H   SFRSYM    DATA     BYTE      IPH
      000000CDH   SFRSYM    DATA     BYTE      SPSTAT
      000000DDH   SFRSYM    DATA     BYTE      T4T3M
      000000C1H   SFRSYM    DATA     BYTE      WDT_CONTR
      000000DFH   SFRSYM    DATA     BYTE      IP3
      000000F4H   SFRSYM    DATA     BYTE      USBCON
      000000B5H   SFRSYM    DATA     BYTE      IP2
      000000FFH   SFRSYM    DATA     BYTE      RSTCFG
      000000C7H   SFRSYM    DATA     BYTE      IAP_CONTR
      000000F9H   SFRSYM    DATA     BYTE      LINICR
      0000008EH   SFRSYM    DATA     BYTE      AUXR
      000000AFH   SFRSYM    DATA     BYTE      IE2
      00000088H   SFRSYM    DATA     BYTE      TCON
      00000089H   SFRSYM    DATA     BYTE      TMOD
      00000098H   SFRSYM    DATA     BYTE      SCON
      000000F1H   SFRSYM    DATA     BYTE      CANICR
      00000087H   SFRSYM    DATA     BYTE      PCON
      000000BCH   SFRSYM    DATA     BYTE      ADC_CONTR
      000000E7H   SFRSYM    DATA     BYTE      CMPCR2
      000000E6H   SFRSYM    DATA     BYTE      CMPCR1
      000000DEH   SFRSYM    DATA     BYTE      ADCCFG
      000000B8H   SFRSYM    DATA     BYTE      IP
      0000008FH   SFRSYM    DATA     BYTE      INTCLKO
      000000EEH   SFRSYM    DATA     BYTE      IP3H
      000000B6H   SFRSYM    DATA     BYTE      IP2H
      000000A8H   SFRSYM    DATA     BYTE      IE
      000000BBH   SFRSYM    DATA     BYTE      P_SW3
      000000BAH   SFRSYM    DATA     BYTE      P_SW2
      000000A2H   SFRSYM    DATA     BYTE      P_SW1
      000000CEH   SFRSYM    DATA     BYTE      SPCTL
      000000F8H   SFRSYM    DATA     BYTE      P7
      000000E8H   SFRSYM    DATA     BYTE      P6
      000000C8H   SFRSYM    DATA     BYTE      P5
      000000C0H   SFRSYM    DATA     BYTE      P4
      000000B0H   SFRSYM    DATA     BYTE      P3
      000000A0H   SFRSYM    DATA     BYTE      P2
      00000090H   SFRSYM    DATA     BYTE      P1
      00000080H   SFRSYM    DATA     BYTE      P0
      000106B5H   SYMBOL    XDATA    ---       ble6a20_buffer
      000106F5H   SYMBOL    XDATA    ---       ble6a20_fifo
      R15         REGSYM    ---      BYTE      dat
      WR12        REGSYM    ---      WORD      time_cnt
      DR12        REGSYM    ---      DWORD     len
      REG=3       REGSYM    ---      ---       str
      REG=3       REGSYM    ---      ---       buff
      DR4         REGSYM    ---      DWORD     len

L251 LINKER/LOCATER V4.66.93.0                                                        01/14/2026  23:11:45  PAGE 80


      ---         MODULE    ---      ---       zf_device_config
      00FF01CEH   PUBLIC    CODE     ---       imu660ra_config_file

      ---         MODULE    ---      ---       zf_device_dl1a
      000108D1H   PUBLIC    XDATA    WORD      dl1a_distance_mm
      000108D3H   PUBLIC    XDATA    BYTE      dl1a_finsh_flag
      000000D0H   SFRSYM    DATA     BYTE      PSW
      0000009DH   SFRSYM    DATA     BYTE      IRCBAND
      00000097H   SFRSYM    DATA     BYTE      AUXR2
      000000EFH   SFRSYM    DATA     BYTE      AUXINTIF
      000000FDH   SFRSYM    DATA     BYTE      S4CON
      000000ACH   SFRSYM    DATA     BYTE      S3CON
      0000009AH   SFRSYM    DATA     BYTE      S2CON
      000000B7H   SFRSYM    DATA     BYTE      IPH
      000000CDH   SFRSYM    DATA     BYTE      SPSTAT
      000000DDH   SFRSYM    DATA     BYTE      T4T3M
      000000C1H   SFRSYM    DATA     BYTE      WDT_CONTR
      000000DFH   SFRSYM    DATA     BYTE      IP3
      000000F4H   SFRSYM    DATA     BYTE      USBCON
      000000B5H   SFRSYM    DATA     BYTE      IP2
      000000FFH   SFRSYM    DATA     BYTE      RSTCFG
      000000C7H   SFRSYM    DATA     BYTE      IAP_CONTR
      000000F9H   SFRSYM    DATA     BYTE      LINICR
      0000008EH   SFRSYM    DATA     BYTE      AUXR
      000000AFH   SFRSYM    DATA     BYTE      IE2
      00000088H   SFRSYM    DATA     BYTE      TCON
      00000089H   SFRSYM    DATA     BYTE      TMOD
      00000098H   SFRSYM    DATA     BYTE      SCON
      000000F1H   SFRSYM    DATA     BYTE      CANICR
      00000087H   SFRSYM    DATA     BYTE      PCON
      000000BCH   SFRSYM    DATA     BYTE      ADC_CONTR
      000000E7H   SFRSYM    DATA     BYTE      CMPCR2
      000000E6H   SFRSYM    DATA     BYTE      CMPCR1
      000000DEH   SFRSYM    DATA     BYTE      ADCCFG
      000000B8H   SFRSYM    DATA     BYTE      IP
      0000008FH   SFRSYM    DATA     BYTE      INTCLKO
      000000EEH   SFRSYM    DATA     BYTE      IP3H
      000000B6H   SFRSYM    DATA     BYTE      IP2H
      000000A8H   SFRSYM    DATA     BYTE      IE
      000000BBH   SFRSYM    DATA     BYTE      P_SW3
      000000BAH   SFRSYM    DATA     BYTE      P_SW2
      000000A2H   SFRSYM    DATA     BYTE      P_SW1
      000000CEH   SFRSYM    DATA     BYTE      SPCTL
      000000F8H   SFRSYM    DATA     BYTE      P7
      000000E8H   SFRSYM    DATA     BYTE      P6
      000000C8H   SFRSYM    DATA     BYTE      P5
      000000C0H   SFRSYM    DATA     BYTE      P4
      000000B0H   SFRSYM    DATA     BYTE      P3
      000000A0H   SFRSYM    DATA     BYTE      P2
      00000090H   SFRSYM    DATA     BYTE      P1
      00000080H   SFRSYM    DATA     BYTE      P0
      00FF80E5H   SYMBOL    HCONST   ---       ?tpl?0001
      00FF80EDH   SYMBOL    HCONST   ---       ?tpl?0002
      00FF80F3H   SYMBOL    HCONST   ---       ?tpl?0003
      00FF80FDH   SYMBOL    HCONST   ---       ?tpl?0004
      000108C8H   SYMBOL    XDATA    ---       dl1a_iic_struct
      000108D4H   SYMBOL    XDATA    BYTE      dl1a_init_flag
      REG=3       REGSYM    ---      ---       type_is_aperture
      WR30        REGSYM    ---      WORD      timeout_period_mclks
      R5          REGSYM    ---      BYTE      vcsel_period_pclks
      DR24        REGSYM    ---      DWORD     macro_period_ns
      DR28        REGSYM    ---      DWORD     timeout_period_us
      R3          REGSYM    ---      BYTE      vcsel_period_pclks
      DR8         REGSYM    ---      DWORD     macro_period_ns
      WR4         REGSYM    ---      WORD      reg_val
L251 LINKER/LOCATER V4.66.93.0                                                        01/14/2026  23:11:45  PAGE 81


      WR2         REGSYM    ---      WORD      timeout_mclks
      DR8         REGSYM    ---      DWORD     ls_byte
      WR4         REGSYM    ---      WORD      ms_byte
      WR6         REGSYM    ---      WORD      return_data
      REG=3       REGSYM    ---      ---       enables
      WR6         REGSYM    ---      INT       type
      REG=3       REGSYM    ---      ---       timeouts
      R10         REGSYM    ---      BYTE      vhv_init_byte
      R15         REGSYM    ---      BYTE      return_state
      DR12        REGSYM    ---      DWORD     budget_us
      WR6         REGSYM    ---      WORD      dat
      DR4         REGSYM    ---      DWORD     final_range_timeout_us
      DR12        REGSYM    ---      DWORD     budget_us
      DR28        REGSYM    ---      FLOAT     limit_mcps
      WR14        REGSYM    ---      WORD      limit_mcps_16bit
      R15         REGSYM    ---      BYTE      return_state
      R14         REGSYM    ---      BYTE      reg_data_buffer
      WR12        REGSYM    ---      WORD      i

      ---         MODULE    ---      ---       zf_device_dl1b
      000108DEH   PUBLIC    XDATA    WORD      dl1b_distance_mm
      000108E0H   PUBLIC    XDATA    BYTE      dl1b_finsh_flag
      000000D0H   SFRSYM    DATA     BYTE      PSW
      0000009DH   SFRSYM    DATA     BYTE      IRCBAND
      00000097H   SFRSYM    DATA     BYTE      AUXR2
      000000EFH   SFRSYM    DATA     BYTE      AUXINTIF
      000000FDH   SFRSYM    DATA     BYTE      S4CON
      000000ACH   SFRSYM    DATA     BYTE      S3CON
      0000009AH   SFRSYM    DATA     BYTE      S2CON
      000000B7H   SFRSYM    DATA     BYTE      IPH
      000000CDH   SFRSYM    DATA     BYTE      SPSTAT
      000000DDH   SFRSYM    DATA     BYTE      T4T3M
      000000C1H   SFRSYM    DATA     BYTE      WDT_CONTR
      000000DFH   SFRSYM    DATA     BYTE      IP3
      000000F4H   SFRSYM    DATA     BYTE      USBCON
      000000B5H   SFRSYM    DATA     BYTE      IP2
      000000FFH   SFRSYM    DATA     BYTE      RSTCFG
      000000C7H   SFRSYM    DATA     BYTE      IAP_CONTR
      000000F9H   SFRSYM    DATA     BYTE      LINICR
      0000008EH   SFRSYM    DATA     BYTE      AUXR
      000000AFH   SFRSYM    DATA     BYTE      IE2
      00000088H   SFRSYM    DATA     BYTE      TCON
      00000089H   SFRSYM    DATA     BYTE      TMOD
      00000098H   SFRSYM    DATA     BYTE      SCON
      000000F1H   SFRSYM    DATA     BYTE      CANICR
      00000087H   SFRSYM    DATA     BYTE      PCON
      000000BCH   SFRSYM    DATA     BYTE      ADC_CONTR
      000000E7H   SFRSYM    DATA     BYTE      CMPCR2
      000000E6H   SFRSYM    DATA     BYTE      CMPCR1
      000000DEH   SFRSYM    DATA     BYTE      ADCCFG
      000000B8H   SFRSYM    DATA     BYTE      IP
      0000008FH   SFRSYM    DATA     BYTE      INTCLKO
      000000EEH   SFRSYM    DATA     BYTE      IP3H
      000000B6H   SFRSYM    DATA     BYTE      IP2H
      000000A8H   SFRSYM    DATA     BYTE      IE
      000000BBH   SFRSYM    DATA     BYTE      P_SW3
      000000BAH   SFRSYM    DATA     BYTE      P_SW2
      000000A2H   SFRSYM    DATA     BYTE      P_SW1
      000000CEH   SFRSYM    DATA     BYTE      SPCTL
      000000F8H   SFRSYM    DATA     BYTE      P7
      000000E8H   SFRSYM    DATA     BYTE      P6
      000000C8H   SFRSYM    DATA     BYTE      P5
      000000C0H   SFRSYM    DATA     BYTE      P4
      000000B0H   SFRSYM    DATA     BYTE      P3
      000000A0H   SFRSYM    DATA     BYTE      P2
L251 LINKER/LOCATER V4.66.93.0                                                        01/14/2026  23:11:45  PAGE 82


      00000090H   SFRSYM    DATA     BYTE      P1
      00000080H   SFRSYM    DATA     BYTE      P0
      000108D5H   SYMBOL    XDATA    ---       dl1b_iic_struct
      000108E1H   SYMBOL    XDATA    BYTE      dl1b_init_flag
      WR14        REGSYM    ---      INT       dl1b_distance_temp

      ---         MODULE    ---      ---       zf_device_gps_tau1201
      00010219H   PUBLIC    XDATA    BYTE      gps_tau1201_flag
      0001029AH   PUBLIC    XDATA    ---       gps_tau1201
      000103C6H   PUBLIC    XDATA    INT       gps_gga_state
      000103C8H   PUBLIC    XDATA    INT       gps_rmc_state
      000000D0H   SFRSYM    DATA     BYTE      PSW
      0000009DH   SFRSYM    DATA     BYTE      IRCBAND
      00000097H   SFRSYM    DATA     BYTE      AUXR2
      000000EFH   SFRSYM    DATA     BYTE      AUXINTIF
      000000FDH   SFRSYM    DATA     BYTE      S4CON
      000000ACH   SFRSYM    DATA     BYTE      S3CON
      0000009AH   SFRSYM    DATA     BYTE      S2CON
      000000B7H   SFRSYM    DATA     BYTE      IPH
      000000CDH   SFRSYM    DATA     BYTE      SPSTAT
      000000DDH   SFRSYM    DATA     BYTE      T4T3M
      000000C1H   SFRSYM    DATA     BYTE      WDT_CONTR
      000000DFH   SFRSYM    DATA     BYTE      IP3
      000000F4H   SFRSYM    DATA     BYTE      USBCON
      000000B5H   SFRSYM    DATA     BYTE      IP2
      000000FFH   SFRSYM    DATA     BYTE      RSTCFG
      000000C7H   SFRSYM    DATA     BYTE      IAP_CONTR
      000000F9H   SFRSYM    DATA     BYTE      LINICR
      0000008EH   SFRSYM    DATA     BYTE      AUXR
      000000AFH   SFRSYM    DATA     BYTE      IE2
      00000088H   SFRSYM    DATA     BYTE      TCON
      00000089H   SFRSYM    DATA     BYTE      TMOD
      00000098H   SFRSYM    DATA     BYTE      SCON
      000000F1H   SFRSYM    DATA     BYTE      CANICR
      00000087H   SFRSYM    DATA     BYTE      PCON
      000000BCH   SFRSYM    DATA     BYTE      ADC_CONTR
      000000E7H   SFRSYM    DATA     BYTE      CMPCR2
      000000E6H   SFRSYM    DATA     BYTE      CMPCR1
      000000DEH   SFRSYM    DATA     BYTE      ADCCFG
      000000B8H   SFRSYM    DATA     BYTE      IP
      0000008FH   SFRSYM    DATA     BYTE      INTCLKO
      000000EEH   SFRSYM    DATA     BYTE      IP3H
      000000B6H   SFRSYM    DATA     BYTE      IP2H
      000000A8H   SFRSYM    DATA     BYTE      IE
      000000BBH   SFRSYM    DATA     BYTE      P_SW3
      000000BAH   SFRSYM    DATA     BYTE      P_SW2
      000000A2H   SFRSYM    DATA     BYTE      P_SW1
      000000CEH   SFRSYM    DATA     BYTE      SPCTL
      000000F8H   SFRSYM    DATA     BYTE      P7
      000000E8H   SFRSYM    DATA     BYTE      P6
      000000C8H   SFRSYM    DATA     BYTE      P5
      000000C0H   SFRSYM    DATA     BYTE      P4
      000000B0H   SFRSYM    DATA     BYTE      P3
      000000A0H   SFRSYM    DATA     BYTE      P2
      00000090H   SFRSYM    DATA     BYTE      P1
      00000080H   SFRSYM    DATA     BYTE      P0
      00FF83C0H   SYMBOL    HCONST   ---       ?tpl?0001
      00FF83C5H   SYMBOL    HCONST   ---       ?tpl?0002
      00FF83E1H   SYMBOL    HCONST   ---       ?tpl?0003
      00FF83ECH   SYMBOL    HCONST   ---       ?tpl?0004
      00FF83F7H   SYMBOL    HCONST   ---       ?tpl?0005
      00FF8402H   SYMBOL    HCONST   ---       ?tpl?0006
      00FF840DH   SYMBOL    HCONST   ---       ?tpl?0007
      00FF8418H   SYMBOL    HCONST   ---       ?tpl?0008
      00FF8423H   SYMBOL    HCONST   ---       ?tpl?0009
L251 LINKER/LOCATER V4.66.93.0                                                        01/14/2026  23:11:45  PAGE 83


      00FF842EH   SYMBOL    HCONST   ---       ?tpl?000A
      00FF8439H   SYMBOL    HCONST   ---       ?tpl?000B
      00FF8444H   SYMBOL    HCONST   ---       ?tpl?000C
      00FF844FH   SYMBOL    HCONST   ---       ?tpl?000D
      00010202H   SYMBOL    XDATA    ---       gps_tau1201_receiver_fifo
      0001021AH   SYMBOL    XDATA    ---       gps_gga_buffer
      000102C5H   SYMBOL    XDATA    BYTE      gps_tau1201_state
      000102C6H   SYMBOL    XDATA    ---       gps_rmc_buffer
      00010346H   SYMBOL    XDATA    ---       gps_tau1201_receiver_buffer
      REG=3       REGSYM    ---      ---       str
      REG=7       REGSYM    ---      ---       temp
      R7          REGSYM    ---      BYTE      len
      R10         REGSYM    ---      BYTE      len1
      REG=3       REGSYM    ---      ---       s
      WR6         REGSYM    ---      INT       return_value
      REG=3       REGSYM    ---      ---       s
      DR4         REGSYM    ---      FLOAT     return_value
      REG=3       REGSYM    ---      ---       s
      DR4         REGSYM    ---      FLOAT     return_value
      REG=7       REGSYM    ---      ---       time
      R6          REGSYM    ---      BYTE      day_num
      REG=0       REGSYM    ---      ---       line
      REG=3       REGSYM    ---      ---       gps
      R10         REGSYM    ---      BYTE      state
      R7          REGSYM    ---      BYTE      temp
      DR24        REGSYM    ---      FLOAT     longitude
      DR20        REGSYM    ---      FLOAT     lati_cent_tmp
      DR4         REGSYM    ---      FLOAT     lati_second_tmp
      DR24        REGSYM    ---      FLOAT     long_cent_tmp
      DR4         REGSYM    ---      FLOAT     long_second_tmp
      DR4         REGSYM    ---      FLOAT     speed_tmp
      REG=0       REGSYM    ---      ---       line
      R11         REGSYM    ---      BYTE      state
      DR24        REGSYM    ---      FLOAT     latitude1
      DR28        REGSYM    ---      FLOAT     longitude1
      DR24        REGSYM    ---      FLOAT     rad_longitude1
      DR28        REGSYM    ---      FLOAT     rad_longitude2
      DR28        REGSYM    ---      FLOAT     distance
      DR4         REGSYM    ---      FLOAT     b
      DR12        REGSYM    ---      DWORD     data_len

      ---         MODULE    ---      ---       zf_device_icm20602
      000108A0H   PUBLIC    XDATA    INT       icm20602_acc_x
      000108A2H   PUBLIC    XDATA    INT       icm20602_acc_y
      000108A4H   PUBLIC    XDATA    INT       icm20602_acc_z
      000108A6H   PUBLIC    XDATA    INT       icm20602_gyro_x
      000108A8H   PUBLIC    XDATA    INT       icm20602_gyro_y
      000108AAH   PUBLIC    XDATA    INT       icm20602_gyro_z
      000108ACH   PUBLIC    XDATA    ---       icm20602_transition_factor
      000000D0H   SFRSYM    DATA     BYTE      PSW
      0000009DH   SFRSYM    DATA     BYTE      IRCBAND
      00000097H   SFRSYM    DATA     BYTE      AUXR2
      000000EFH   SFRSYM    DATA     BYTE      AUXINTIF
      000000FDH   SFRSYM    DATA     BYTE      S4CON
      000000ACH   SFRSYM    DATA     BYTE      S3CON
      0000009AH   SFRSYM    DATA     BYTE      S2CON
      000000B7H   SFRSYM    DATA     BYTE      IPH
      000000CDH   SFRSYM    DATA     BYTE      SPSTAT
      000000DDH   SFRSYM    DATA     BYTE      T4T3M
      000000C1H   SFRSYM    DATA     BYTE      WDT_CONTR
      000000DFH   SFRSYM    DATA     BYTE      IP3
      000000F4H   SFRSYM    DATA     BYTE      USBCON
      000000B5H   SFRSYM    DATA     BYTE      IP2
      000000FFH   SFRSYM    DATA     BYTE      RSTCFG
      000000C7H   SFRSYM    DATA     BYTE      IAP_CONTR
L251 LINKER/LOCATER V4.66.93.0                                                        01/14/2026  23:11:45  PAGE 84


      000000F9H   SFRSYM    DATA     BYTE      LINICR
      0000008EH   SFRSYM    DATA     BYTE      AUXR
      000000AFH   SFRSYM    DATA     BYTE      IE2
      000000C0H.3 SFRSYM    DATA     BIT       P43
      000000C0H.2 SFRSYM    DATA     BIT       P42
      00000088H   SFRSYM    DATA     BYTE      TCON
      00000089H   SFRSYM    DATA     BYTE      TMOD
      000000C0H.1 SFRSYM    DATA     BIT       P41
      00000098H   SFRSYM    DATA     BYTE      SCON
      000000C0H.0 SFRSYM    DATA     BIT       P40
      000000F1H   SFRSYM    DATA     BYTE      CANICR
      00000087H   SFRSYM    DATA     BYTE      PCON
      000000BCH   SFRSYM    DATA     BYTE      ADC_CONTR
      000000E7H   SFRSYM    DATA     BYTE      CMPCR2
      000000E6H   SFRSYM    DATA     BYTE      CMPCR1
      000000DEH   SFRSYM    DATA     BYTE      ADCCFG
      000000B8H   SFRSYM    DATA     BYTE      IP
      0000008FH   SFRSYM    DATA     BYTE      INTCLKO
      000000EEH   SFRSYM    DATA     BYTE      IP3H
      000000B6H   SFRSYM    DATA     BYTE      IP2H
      000000A8H   SFRSYM    DATA     BYTE      IE
      000000BBH   SFRSYM    DATA     BYTE      P_SW3
      000000BAH   SFRSYM    DATA     BYTE      P_SW2
      000000A2H   SFRSYM    DATA     BYTE      P_SW1
      000000CEH   SFRSYM    DATA     BYTE      SPCTL
      000000F8H   SFRSYM    DATA     BYTE      P7
      000000E8H   SFRSYM    DATA     BYTE      P6
      000000C8H   SFRSYM    DATA     BYTE      P5
      000000C0H   SFRSYM    DATA     BYTE      P4
      000000B0H   SFRSYM    DATA     BYTE      P3
      000000A0H   SFRSYM    DATA     BYTE      P2
      00000090H   SFRSYM    DATA     BYTE      P1
      00000080H   SFRSYM    DATA     BYTE      P0
      R7          REGSYM    ---      BYTE      byte
      R6          REGSYM    ---      BYTE      i
      R7          REGSYM    ---      BYTE      cmd
      R15         REGSYM    ---      BYTE      val
      R7          REGSYM    ---      BYTE      cmd
      REG=3       REGSYM    ---      ---       val
      R7          REGSYM    ---      BYTE      cmd
      REG=3       REGSYM    ---      ---       val
      R11         REGSYM    ---      BYTE      reg
      R7          REGSYM    ---      BYTE      dat
      R7          REGSYM    ---      BYTE      reg
      R3          REGSYM    ---      BYTE      reg
      REG=1       REGSYM    ---      ---       dat
      DR28        REGSYM    ---      DWORD     len
      R14         REGSYM    ---      BYTE      dat
      R15         REGSYM    ---      BYTE      return_state
      WR12        REGSYM    ---      WORD      timeout_count
      R14         REGSYM    ---      BYTE      val
      R15         REGSYM    ---      BYTE      return_state
      WR12        REGSYM    ---      WORD      timeout_count

      ---         MODULE    ---      ---       zf_device_imu660ra
      000108B4H   PUBLIC    XDATA    INT       imu660ra_acc_x
      000108B6H   PUBLIC    XDATA    INT       imu660ra_acc_y
      000108B8H   PUBLIC    XDATA    INT       imu660ra_acc_z
      000108BAH   PUBLIC    XDATA    INT       imu660ra_gyro_x
      000108BCH   PUBLIC    XDATA    INT       imu660ra_gyro_y
      000108BEH   PUBLIC    XDATA    INT       imu660ra_gyro_z
      000108C0H   PUBLIC    XDATA    ---       imu660ra_transition_factor
      000000D0H   SFRSYM    DATA     BYTE      PSW
      0000009DH   SFRSYM    DATA     BYTE      IRCBAND
      00000097H   SFRSYM    DATA     BYTE      AUXR2
L251 LINKER/LOCATER V4.66.93.0                                                        01/14/2026  23:11:45  PAGE 85


      000000EFH   SFRSYM    DATA     BYTE      AUXINTIF
      000000FDH   SFRSYM    DATA     BYTE      S4CON
      000000ACH   SFRSYM    DATA     BYTE      S3CON
      0000009AH   SFRSYM    DATA     BYTE      S2CON
      000000B7H   SFRSYM    DATA     BYTE      IPH
      000000CDH   SFRSYM    DATA     BYTE      SPSTAT
      000000DDH   SFRSYM    DATA     BYTE      T4T3M
      000000C1H   SFRSYM    DATA     BYTE      WDT_CONTR
      000000DFH   SFRSYM    DATA     BYTE      IP3
      000000F4H   SFRSYM    DATA     BYTE      USBCON
      000000B5H   SFRSYM    DATA     BYTE      IP2
      000000FFH   SFRSYM    DATA     BYTE      RSTCFG
      000000C7H   SFRSYM    DATA     BYTE      IAP_CONTR
      000000F9H   SFRSYM    DATA     BYTE      LINICR
      0000008EH   SFRSYM    DATA     BYTE      AUXR
      000000AFH   SFRSYM    DATA     BYTE      IE2
      000000C0H.3 SFRSYM    DATA     BIT       P43
      000000C0H.2 SFRSYM    DATA     BIT       P42
      00000088H   SFRSYM    DATA     BYTE      TCON
      00000089H   SFRSYM    DATA     BYTE      TMOD
      000000C0H.1 SFRSYM    DATA     BIT       P41
      00000098H   SFRSYM    DATA     BYTE      SCON
      000000C0H.0 SFRSYM    DATA     BIT       P40
      000000F1H   SFRSYM    DATA     BYTE      CANICR
      00000087H   SFRSYM    DATA     BYTE      PCON
      000000BCH   SFRSYM    DATA     BYTE      ADC_CONTR
      000000E7H   SFRSYM    DATA     BYTE      CMPCR2
      000000E6H   SFRSYM    DATA     BYTE      CMPCR1
      000000DEH   SFRSYM    DATA     BYTE      ADCCFG
      000000B8H   SFRSYM    DATA     BYTE      IP
      0000008FH   SFRSYM    DATA     BYTE      INTCLKO
      000000EEH   SFRSYM    DATA     BYTE      IP3H
      000000B6H   SFRSYM    DATA     BYTE      IP2H
      000000A8H   SFRSYM    DATA     BYTE      IE
      000000BBH   SFRSYM    DATA     BYTE      P_SW3
      000000BAH   SFRSYM    DATA     BYTE      P_SW2
      000000A2H   SFRSYM    DATA     BYTE      P_SW1
      000000CEH   SFRSYM    DATA     BYTE      SPCTL
      000000F8H   SFRSYM    DATA     BYTE      P7
      000000E8H   SFRSYM    DATA     BYTE      P6
      000000C8H   SFRSYM    DATA     BYTE      P5
      000000C0H   SFRSYM    DATA     BYTE      P4
      000000B0H   SFRSYM    DATA     BYTE      P3
      000000A0H   SFRSYM    DATA     BYTE      P2
      00000090H   SFRSYM    DATA     BYTE      P1
      00000080H   SFRSYM    DATA     BYTE      P0
      R7          REGSYM    ---      BYTE      byte
      R6          REGSYM    ---      BYTE      i
      R7          REGSYM    ---      BYTE      cmd
      R15         REGSYM    ---      BYTE      val
      R11         REGSYM    ---      BYTE      cmd
      DR12        REGSYM    ---      DWORD     len
      R7          REGSYM    ---      BYTE      cmd
      REG=3       REGSYM    ---      ---       val
      R11         REGSYM    ---      BYTE      reg
      R7          REGSYM    ---      BYTE      dat
      R3          REGSYM    ---      BYTE      reg
      REG=1       REGSYM    ---      ---       dat
      DR28        REGSYM    ---      DWORD     len
      R7          REGSYM    ---      BYTE      reg
      R5          REGSYM    ---      BYTE      reg
      REG=3       REGSYM    ---      ---       dat
      R14         REGSYM    ---      BYTE      dat
      R15         REGSYM    ---      BYTE      return_state
      WR12        REGSYM    ---      WORD      timeout_count
L251 LINKER/LOCATER V4.66.93.0                                                        01/14/2026  23:11:45  PAGE 86


      R15         REGSYM    ---      BYTE      return_state

      ---         MODULE    ---      ---       zf_device_imu660rb
      00FF7299H   PUBLIC    CODE     ---       imu660rb_get_gyro
      00FF7941H   PUBLIC    CODE     ---       imu660rb_gyro_transition
      00FF6E8EH   PUBLIC    CODE     ---       imu660rb_init
      00FF72E9H   PUBLIC    CODE     ---       imu660rb_get_acc
      00FF7953H   PUBLIC    CODE     ---       imu660rb_acc_transition
      000108FAH   PUBLIC    XDATA    INT       imu660rb_acc_x
      000108FCH   PUBLIC    XDATA    INT       imu660rb_acc_y
      000108FEH   PUBLIC    XDATA    INT       imu660rb_acc_z
      00010900H   PUBLIC    XDATA    INT       imu660rb_gyro_x
      00010902H   PUBLIC    XDATA    INT       imu660rb_gyro_y
      00010904H   PUBLIC    XDATA    INT       imu660rb_gyro_z
      000000D0H   SFRSYM    DATA     BYTE      PSW
      0000009DH   SFRSYM    DATA     BYTE      IRCBAND
      00000097H   SFRSYM    DATA     BYTE      AUXR2
      000000EFH   SFRSYM    DATA     BYTE      AUXINTIF
      000000FDH   SFRSYM    DATA     BYTE      S4CON
      000000ACH   SFRSYM    DATA     BYTE      S3CON
      0000009AH   SFRSYM    DATA     BYTE      S2CON
      000000B7H   SFRSYM    DATA     BYTE      IPH
      000000CDH   SFRSYM    DATA     BYTE      SPSTAT
      000000DDH   SFRSYM    DATA     BYTE      T4T3M
      000000C1H   SFRSYM    DATA     BYTE      WDT_CONTR
      000000DFH   SFRSYM    DATA     BYTE      IP3
      000000F4H   SFRSYM    DATA     BYTE      USBCON
      000000B5H   SFRSYM    DATA     BYTE      IP2
      000000FFH   SFRSYM    DATA     BYTE      RSTCFG
      000000C7H   SFRSYM    DATA     BYTE      IAP_CONTR
      000000F9H   SFRSYM    DATA     BYTE      LINICR
      0000008EH   SFRSYM    DATA     BYTE      AUXR
      000000AFH   SFRSYM    DATA     BYTE      IE2
      000000C0H.3 SFRSYM    DATA     BIT       P43
      000000C0H.2 SFRSYM    DATA     BIT       P42
      00000088H   SFRSYM    DATA     BYTE      TCON
      00000089H   SFRSYM    DATA     BYTE      TMOD
      000000C0H.1 SFRSYM    DATA     BIT       P41
      00000098H   SFRSYM    DATA     BYTE      SCON
      000000C0H.0 SFRSYM    DATA     BIT       P40
      000000F1H   SFRSYM    DATA     BYTE      CANICR
      00000087H   SFRSYM    DATA     BYTE      PCON
      000000BCH   SFRSYM    DATA     BYTE      ADC_CONTR
      000000E7H   SFRSYM    DATA     BYTE      CMPCR2
      000000E6H   SFRSYM    DATA     BYTE      CMPCR1
      000000DEH   SFRSYM    DATA     BYTE      ADCCFG
      000000B8H   SFRSYM    DATA     BYTE      IP
      0000008FH   SFRSYM    DATA     BYTE      INTCLKO
      000000EEH   SFRSYM    DATA     BYTE      IP3H
      000000B6H   SFRSYM    DATA     BYTE      IP2H
      000000A8H   SFRSYM    DATA     BYTE      IE
      000000BBH   SFRSYM    DATA     BYTE      P_SW3
      000000BAH   SFRSYM    DATA     BYTE      P_SW2
      000000A2H   SFRSYM    DATA     BYTE      P_SW1
      000000CEH   SFRSYM    DATA     BYTE      SPCTL
      000000F8H   SFRSYM    DATA     BYTE      P7
      000000E8H   SFRSYM    DATA     BYTE      P6
      000000C8H   SFRSYM    DATA     BYTE      P5
      000000C0H   SFRSYM    DATA     BYTE      P4
      000000B0H   SFRSYM    DATA     BYTE      P3
      000000A0H   SFRSYM    DATA     BYTE      P2
      00000090H   SFRSYM    DATA     BYTE      P1
      00000080H   SFRSYM    DATA     BYTE      P0
      00FF78EFH   SYMBOL    CODE     ---       imu660rb_read_register
      00FF0003H   SYMBOL    CODE     ---       imu660rb_write_register
L251 LINKER/LOCATER V4.66.93.0                                                        01/14/2026  23:11:45  PAGE 87


      00FF789AH   SYMBOL    CODE     ---       imu660rb_simspi_wr_byte
      00FF770BH   SYMBOL    CODE     ---       imu660rb_self_check
      00FF740CH   SYMBOL    CODE     ---       imu660rb_simspi_r_reg_bytes
      00FF0046H   SYMBOL    CODE     ---       imu660rb_simspi_r_reg_byte
      00FF7996H   SYMBOL    CODE     ---       imu660rb_simspi_w_reg_byte
      00FF7976H   SYMBOL    CODE     ---       imu660rb_read_registers

      00FF789AH   BLOCK     CODE     ---       LVL=0
      R7          REGSYM    ---      BYTE      byte
      00FF789CH   BLOCK     CODE     NEAR LAB  LVL=1
      R6          REGSYM    ---      BYTE      i
      ---         BLOCKEND  ---      ---       LVL=1
      00FF789AH   LINE      CODE     ---       #152
      00FF789CH   LINE      CODE     ---       #153
      00FF789CH   LINE      CODE     ---       #155
      00FF789EH   LINE      CODE     ---       #157
      00FF78A0H   LINE      CODE     ---       #158
      00FF78A5H   LINE      CODE     ---       #159
      00FF78A7H   LINE      CODE     ---       #160
      00FF78A9H   LINE      CODE     ---       #161
      00FF78AFH   LINE      CODE     ---       #162
      00FF78B6H   LINE      CODE     ---       #163
      00FF78B8H   LINE      CODE     ---       #164
      00FF78BAH   LINE      CODE     ---       #165
      ---         BLOCKEND  ---      ---       LVL=0

      00FF7996H   BLOCK     CODE     ---       LVL=0
      R7          REGSYM    ---      BYTE      cmd
      R15         REGSYM    ---      BYTE      val
      00FF7996H   LINE      CODE     ---       #174
      00FF799AH   LINE      CODE     ---       #176
      00FF799AH   LINE      CODE     ---       #177
      00FF799DH   LINE      CODE     ---       #178
      00FF79A2H   LINE      CODE     ---       #179
      ---         BLOCKEND  ---      ---       LVL=0

      00FF0046H   BLOCK     CODE     ---       LVL=0
      R7          REGSYM    ---      BYTE      cmd
      REG=3       REGSYM    ---      ---       val
      00FF0046H   LINE      CODE     ---       #188
      00FF004CH   LINE      CODE     ---       #190
      00FF004EH   LINE      CODE     ---       #191
      00FF0051H   LINE      CODE     ---       #192
      00FF0056H   LINE      CODE     ---       #193
      00FF005DH   LINE      CODE     ---       #194
      00FF005FH   LINE      CODE     ---       #195
      ---         BLOCKEND  ---      ---       LVL=0

      00FF740CH   BLOCK     CODE     ---       LVL=0
      R7          REGSYM    ---      BYTE      cmd
      REG=3       REGSYM    ---      ---       val
      000105CDH   SYMBOL    XDATA    DWORD     num
      00FF740CH   LINE      CODE     ---       #223
      00FF741CH   LINE      CODE     ---       #225
      00FF741FH   LINE      CODE     ---       #226
      00FF7424H   LINE      CODE     ---       #227
      00FF7426H   LINE      CODE     ---       #229
      00FF742FH   LINE      CODE     ---       #230
      00FF7448H   LINE      CODE     ---       #231
      ---         BLOCKEND  ---      ---       LVL=0

      00FF0003H   BLOCK     CODE     ---       LVL=0
      R11         REGSYM    ---      BYTE      reg
      R7          REGSYM    ---      BYTE      dat
      00FF0003H   LINE      CODE     ---       #241
L251 LINKER/LOCATER V4.66.93.0                                                        01/14/2026  23:11:45  PAGE 88


      00FF0003H   LINE      CODE     ---       #243
      00FF0005H   LINE      CODE     ---       #244
      00FF0008H   LINE      CODE     ---       #245
      00FF000AH   LINE      CODE     ---       #246
      ---         BLOCKEND  ---      ---       LVL=0

      00FF78EFH   BLOCK     CODE     ---       LVL=0
      R7          REGSYM    ---      BYTE      reg
      000105C7H   SYMBOL    XDATA    BYTE      dat
      00FF78EFH   LINE      CODE     ---       #255
      00FF78EFH   LINE      CODE     ---       #256
      00FF78EFH   LINE      CODE     ---       #258
      00FF78F1H   LINE      CODE     ---       #259
      00FF78FEH   LINE      CODE     ---       #260
      00FF7900H   LINE      CODE     ---       #261
      00FF7904H   LINE      CODE     ---       #262
      ---         BLOCKEND  ---      ---       LVL=0

      00FF7976H   BLOCK     CODE     ---       LVL=0
      R3          REGSYM    ---      BYTE      reg
      REG=1       REGSYM    ---      ---       dat
      DR28        REGSYM    ---      DWORD     len
      00FF7976H   LINE      CODE     ---       #273
      00FF797AH   LINE      CODE     ---       #275
      00FF797CH   LINE      CODE     ---       #276
      00FF7983H   LINE      CODE     ---       #277
      00FF7985H   LINE      CODE     ---       #278
      ---         BLOCKEND  ---      ---       LVL=0

      00FF770BH   BLOCK     CODE     ---       LVL=0
      00FF770DH   BLOCK     CODE     NEAR LAB  LVL=1
      R14         REGSYM    ---      BYTE      dat
      R15         REGSYM    ---      BYTE      return_state
      WR12        REGSYM    ---      WORD      timeout_count
      ---         BLOCKEND  ---      ---       LVL=1
      00FF770BH   LINE      CODE     ---       #300
      00FF770DH   LINE      CODE     ---       #301
      00FF770DH   LINE      CODE     ---       #302
      00FF770FH   LINE      CODE     ---       #303
      00FF7711H   LINE      CODE     ---       #304
      00FF7711H   LINE      CODE     ---       #306
      00FF771BH   LINE      CODE     ---       #308
      00FF771EH   LINE      CODE     ---       #309
      00FF7720H   LINE      CODE     ---       #310
      00FF7720H   LINE      CODE     ---       #311
      00FF7727H   LINE      CODE     ---       #312
      00FF772EH   LINE      CODE     ---       #313
      00FF7733H   LINE      CODE     ---       #314
      00FF7735H   LINE      CODE     ---       #315
      ---         BLOCKEND  ---      ---       LVL=0

      00FF72E9H   BLOCK     CODE     ---       LVL=0
      000105C7H   SYMBOL    XDATA    ---       dat
      00FF72E9H   LINE      CODE     ---       #325
      00FF72E9H   LINE      CODE     ---       #326
      00FF72E9H   LINE      CODE     ---       #329
      00FF72FAH   LINE      CODE     ---       #330
      00FF7310H   LINE      CODE     ---       #331
      00FF7324H   LINE      CODE     ---       #332
      00FF7338H   LINE      CODE     ---       #333
      ---         BLOCKEND  ---      ---       LVL=0

      00FF7299H   BLOCK     CODE     ---       LVL=0
      000105C7H   SYMBOL    XDATA    ---       dat
      00FF7299H   LINE      CODE     ---       #342
L251 LINKER/LOCATER V4.66.93.0                                                        01/14/2026  23:11:45  PAGE 89


      00FF7299H   LINE      CODE     ---       #343
      00FF7299H   LINE      CODE     ---       #346
      00FF72AAH   LINE      CODE     ---       #347
      00FF72C0H   LINE      CODE     ---       #348
      00FF72D4H   LINE      CODE     ---       #349
      00FF72E8H   LINE      CODE     ---       #350
      ---         BLOCKEND  ---      ---       LVL=0

      00FF7953H   BLOCK     CODE     ---       LVL=0
      WR8         REGSYM    ---      INT       acc_value
      DR4         REGSYM    ---      FLOAT     acc_data
      00FF7953H   LINE      CODE     ---       #359
      00FF7953H   LINE      CODE     ---       #360
      00FF7953H   LINE      CODE     ---       #361
      00FF7953H   LINE      CODE     ---       #362
      00FF7953H   LINE      CODE     ---       #364
      00FF7953H   LINE      CODE     ---       #365
      00FF7953H   LINE      CODE     ---       #366
      00FF7965H   LINE      CODE     ---       #367
      00FF7965H   LINE      CODE     ---       #368
      00FF7965H   LINE      CODE     ---       #369
      00FF7965H   LINE      CODE     ---       #370
      00FF7965H   LINE      CODE     ---       #371
      ---         BLOCKEND  ---      ---       LVL=0

      00FF7941H   BLOCK     CODE     ---       LVL=0
      WR8         REGSYM    ---      INT       gyro_value
      DR4         REGSYM    ---      FLOAT     gyro_data
      00FF7941H   LINE      CODE     ---       #380
      00FF7941H   LINE      CODE     ---       #381
      00FF7941H   LINE      CODE     ---       #382
      00FF7941H   LINE      CODE     ---       #383
      00FF7941H   LINE      CODE     ---       #385
      00FF7941H   LINE      CODE     ---       #386
      00FF7941H   LINE      CODE     ---       #387
      00FF7941H   LINE      CODE     ---       #388
      00FF7941H   LINE      CODE     ---       #389
      00FF7953H   LINE      CODE     ---       #390
      00FF7953H   LINE      CODE     ---       #391
      00FF7953H   LINE      CODE     ---       #392
      00FF7953H   LINE      CODE     ---       #393
      00FF7953H   LINE      CODE     ---       #394
      ---         BLOCKEND  ---      ---       LVL=0

      00FF6E8EH   BLOCK     CODE     ---       LVL=0
      00FF6E90H   BLOCK     CODE     NEAR LAB  LVL=1
      R15         REGSYM    ---      BYTE      return_state
      ---         BLOCKEND  ---      ---       LVL=1
      00FF6E8EH   LINE      CODE     ---       #403
      00FF6E90H   LINE      CODE     ---       #404
      00FF6E90H   LINE      CODE     ---       #405
      00FF6E92H   LINE      CODE     ---       #406
      00FF6E99H   LINE      CODE     ---       #426
      00FF6E99H   LINE      CODE     ---       #427
      00FF6E9EH   LINE      CODE     ---       #432
      00FF6EA9H   LINE      CODE     ---       #433
      00FF6EACH   LINE      CODE     ---       #434
      00FF6EAEH   LINE      CODE     ---       #435
      00FF6EAEH   LINE      CODE     ---       #437
      00FF6EB6H   LINE      CODE     ---       #438
      00FF6EBEH   LINE      CODE     ---       #445
      00FF6EC6H   LINE      CODE     ---       #454
      00FF6ECEH   LINE      CODE     ---       #455
      00FF6ED6H   LINE      CODE     ---       #456
      00FF6EDDH   LINE      CODE     ---       #457
L251 LINKER/LOCATER V4.66.93.0                                                        01/14/2026  23:11:45  PAGE 90


      00FF6EE4H   LINE      CODE     ---       #458
      00FF6EEBH   LINE      CODE     ---       #459
      00FF6EF3H   LINE      CODE     ---       #461
      00FF6EF3H   LINE      CODE     ---       #462
      00FF6EF5H   LINE      CODE     ---       #463
      ---         BLOCKEND  ---      ---       LVL=0

      ---         MODULE    ---      ---       zf_device_imu963ra
      0001086AH   PUBLIC    XDATA    INT       imu963ra_acc_x
      0001086CH   PUBLIC    XDATA    INT       imu963ra_acc_y
      0001086EH   PUBLIC    XDATA    INT       imu963ra_acc_z
      00010870H   PUBLIC    XDATA    INT       imu963ra_mag_x
      00010872H   PUBLIC    XDATA    INT       imu963ra_mag_y
      00010874H   PUBLIC    XDATA    INT       imu963ra_mag_z
      00010876H   PUBLIC    XDATA    INT       imu963ra_gyro_x
      00010878H   PUBLIC    XDATA    INT       imu963ra_gyro_y
      0001087AH   PUBLIC    XDATA    INT       imu963ra_gyro_z
      0001087CH   PUBLIC    XDATA    ---       imu963ra_transition_factor
      000000D0H   SFRSYM    DATA     BYTE      PSW
      0000009DH   SFRSYM    DATA     BYTE      IRCBAND
      00000097H   SFRSYM    DATA     BYTE      AUXR2
      000000EFH   SFRSYM    DATA     BYTE      AUXINTIF
      000000FDH   SFRSYM    DATA     BYTE      S4CON
      000000ACH   SFRSYM    DATA     BYTE      S3CON
      0000009AH   SFRSYM    DATA     BYTE      S2CON
      000000B7H   SFRSYM    DATA     BYTE      IPH
      000000CDH   SFRSYM    DATA     BYTE      SPSTAT
      000000DDH   SFRSYM    DATA     BYTE      T4T3M
      000000C1H   SFRSYM    DATA     BYTE      WDT_CONTR
      000000DFH   SFRSYM    DATA     BYTE      IP3
      000000F4H   SFRSYM    DATA     BYTE      USBCON
      000000B5H   SFRSYM    DATA     BYTE      IP2
      000000FFH   SFRSYM    DATA     BYTE      RSTCFG
      000000C7H   SFRSYM    DATA     BYTE      IAP_CONTR
      000000F9H   SFRSYM    DATA     BYTE      LINICR
      0000008EH   SFRSYM    DATA     BYTE      AUXR
      000000AFH   SFRSYM    DATA     BYTE      IE2
      000000C0H.3 SFRSYM    DATA     BIT       P43
      000000C0H.2 SFRSYM    DATA     BIT       P42
      00000088H   SFRSYM    DATA     BYTE      TCON
      00000089H   SFRSYM    DATA     BYTE      TMOD
      000000C0H.1 SFRSYM    DATA     BIT       P41
      00000098H   SFRSYM    DATA     BYTE      SCON
      000000C0H.0 SFRSYM    DATA     BIT       P40
      000000F1H   SFRSYM    DATA     BYTE      CANICR
      00000087H   SFRSYM    DATA     BYTE      PCON
      000000BCH   SFRSYM    DATA     BYTE      ADC_CONTR
      000000E7H   SFRSYM    DATA     BYTE      CMPCR2
      000000E6H   SFRSYM    DATA     BYTE      CMPCR1
      000000DEH   SFRSYM    DATA     BYTE      ADCCFG
      000000B8H   SFRSYM    DATA     BYTE      IP
      0000008FH   SFRSYM    DATA     BYTE      INTCLKO
      000000EEH   SFRSYM    DATA     BYTE      IP3H
      000000B6H   SFRSYM    DATA     BYTE      IP2H
      000000A8H   SFRSYM    DATA     BYTE      IE
      000000BBH   SFRSYM    DATA     BYTE      P_SW3
      000000BAH   SFRSYM    DATA     BYTE      P_SW2
      000000A2H   SFRSYM    DATA     BYTE      P_SW1
      000000CEH   SFRSYM    DATA     BYTE      SPCTL
      000000F8H   SFRSYM    DATA     BYTE      P7
      000000E8H   SFRSYM    DATA     BYTE      P6
      000000C8H   SFRSYM    DATA     BYTE      P5
      000000C0H   SFRSYM    DATA     BYTE      P4
      000000B0H   SFRSYM    DATA     BYTE      P3
      000000A0H   SFRSYM    DATA     BYTE      P2
L251 LINKER/LOCATER V4.66.93.0                                                        01/14/2026  23:11:45  PAGE 91


      00000090H   SFRSYM    DATA     BYTE      P1
      00000080H   SFRSYM    DATA     BYTE      P0
      R7          REGSYM    ---      BYTE      byte
      R6          REGSYM    ---      BYTE      i
      R7          REGSYM    ---      BYTE      cmd
      R15         REGSYM    ---      BYTE      val
      R7          REGSYM    ---      BYTE      cmd
      REG=3       REGSYM    ---      ---       val
      R7          REGSYM    ---      BYTE      cmd
      REG=3       REGSYM    ---      ---       val
      R11         REGSYM    ---      BYTE      reg
      R7          REGSYM    ---      BYTE      dat
      R10         REGSYM    ---      BYTE      reg
      R3          REGSYM    ---      BYTE      reg
      REG=1       REGSYM    ---      ---       dat
      DR28        REGSYM    ---      DWORD     len
      R15         REGSYM    ---      BYTE      addr
      R13         REGSYM    ---      BYTE      reg
      R14         REGSYM    ---      BYTE      dat
      R12         REGSYM    ---      BYTE      return_state
      R10         REGSYM    ---      BYTE      addr
      R15         REGSYM    ---      BYTE      reg
      WR12        REGSYM    ---      WORD      timeout_count
      R10         REGSYM    ---      BYTE      addr
      R15         REGSYM    ---      BYTE      reg
      R15         REGSYM    ---      BYTE      return_state
      R14         REGSYM    ---      BYTE      dat
      WR12        REGSYM    ---      WORD      timeout_count
      R15         REGSYM    ---      BYTE      return_state
      R14         REGSYM    ---      BYTE      dat
      WR12        REGSYM    ---      WORD      timeout_count
      R11         REGSYM    ---      BYTE      temp_status
      R15         REGSYM    ---      BYTE      return_state

      ---         MODULE    ---      ---       zf_device_ips114
      0001092BH   PUBLIC    XDATA    WORD      ips114_pencolor
      0001092DH   PUBLIC    XDATA    WORD      ips114_bgcolor
      0001092FH   PUBLIC    XDATA    INT       ips114_display_dir
      00010931H   PUBLIC    XDATA    BYTE      ips114_x_max
      00010932H   PUBLIC    XDATA    BYTE      ips114_y_max
      000000D0H   SFRSYM    DATA     BYTE      PSW
      0000009DH   SFRSYM    DATA     BYTE      IRCBAND
      00000097H   SFRSYM    DATA     BYTE      AUXR2
      000000EFH   SFRSYM    DATA     BYTE      AUXINTIF
      000000FDH   SFRSYM    DATA     BYTE      S4CON
      000000ACH   SFRSYM    DATA     BYTE      S3CON
      0000009AH   SFRSYM    DATA     BYTE      S2CON
      000000B7H   SFRSYM    DATA     BYTE      IPH
      000000CDH   SFRSYM    DATA     BYTE      SPSTAT
      000000DDH   SFRSYM    DATA     BYTE      T4T3M
      000000C1H   SFRSYM    DATA     BYTE      WDT_CONTR
      000000DFH   SFRSYM    DATA     BYTE      IP3
      000000F4H   SFRSYM    DATA     BYTE      USBCON
      000000B5H   SFRSYM    DATA     BYTE      IP2
      000000FFH   SFRSYM    DATA     BYTE      RSTCFG
      000000C7H   SFRSYM    DATA     BYTE      IAP_CONTR
      000000F9H   SFRSYM    DATA     BYTE      LINICR
      0000008EH   SFRSYM    DATA     BYTE      AUXR
      000000AFH   SFRSYM    DATA     BYTE      IE2
      00000088H   SFRSYM    DATA     BYTE      TCON
      00000089H   SFRSYM    DATA     BYTE      TMOD
      00000098H   SFRSYM    DATA     BYTE      SCON
      000000A0H.2 SFRSYM    DATA     BIT       P22
      000000A0H.1 SFRSYM    DATA     BIT       P21
      000000A0H.0 SFRSYM    DATA     BIT       P20
L251 LINKER/LOCATER V4.66.93.0                                                        01/14/2026  23:11:45  PAGE 92


      000000F1H   SFRSYM    DATA     BYTE      CANICR
      00000087H   SFRSYM    DATA     BYTE      PCON
      000000BCH   SFRSYM    DATA     BYTE      ADC_CONTR
      000000E7H   SFRSYM    DATA     BYTE      CMPCR2
      000000E6H   SFRSYM    DATA     BYTE      CMPCR1
      000000DEH   SFRSYM    DATA     BYTE      ADCCFG
      000000B8H   SFRSYM    DATA     BYTE      IP
      0000008FH   SFRSYM    DATA     BYTE      INTCLKO
      000000EEH   SFRSYM    DATA     BYTE      IP3H
      000000B6H   SFRSYM    DATA     BYTE      IP2H
      000000A8H   SFRSYM    DATA     BYTE      IE
      000000BBH   SFRSYM    DATA     BYTE      P_SW3
      000000BAH   SFRSYM    DATA     BYTE      P_SW2
      000000A2H   SFRSYM    DATA     BYTE      P_SW1
      000000CEH   SFRSYM    DATA     BYTE      SPCTL
      000000F8H   SFRSYM    DATA     BYTE      P7
      000000E8H   SFRSYM    DATA     BYTE      P6
      000000C8H   SFRSYM    DATA     BYTE      P5
      000000C0H   SFRSYM    DATA     BYTE      P4
      000000B0H   SFRSYM    DATA     BYTE      P3
      000000A0H   SFRSYM    DATA     BYTE      P2
      00000090H   SFRSYM    DATA     BYTE      P1
      00000080H   SFRSYM    DATA     BYTE      P0
      R5          REGSYM    ---      BYTE      dat
      WR12        REGSYM    ---      WORD      x2
      WR14        REGSYM    ---      WORD      y2
      WR14        REGSYM    ---      WORD      color
      WR12        REGSYM    ---      WORD      i
      WR6         REGSYM    ---      INT       dir
      WR6         REGSYM    ---      WORD      pen
      WR4         REGSYM    ---      WORD      bgcolor
      WR12        REGSYM    ---      WORD      x
      WR14        REGSYM    ---      WORD      y
      WR12        REGSYM    ---      WORD      x
      WR14        REGSYM    ---      WORD      y
      REG=3       REGSYM    ---      ---       dat
      WR12        REGSYM    ---      WORD      x
      WR14        REGSYM    ---      WORD      y
      WR12        REGSYM    ---      WORD      x
      WR14        REGSYM    ---      WORD      y
      WR12        REGSYM    ---      WORD      x
      WR14        REGSYM    ---      WORD      y
      WR12        REGSYM    ---      WORD      x
      WR14        REGSYM    ---      WORD      y
      WR12        REGSYM    ---      WORD      y
      R15         REGSYM    ---      BYTE      num
      R14         REGSYM    ---      BYTE      length
      DR12        REGSYM    ---      FLOAT     dat
      R10         REGSYM    ---      CHAR      point
      REG=3       REGSYM    ---      ---       p
      REG=3       REGSYM    ---      ---       p

      ---         MODULE    ---      ---       zf_device_ips200
      00010906H   PUBLIC    XDATA    WORD      ips200_pencolor
      00010908H   PUBLIC    XDATA    WORD      ips200_bgcolor
      0001090AH   PUBLIC    XDATA    INT       ips200_display_dir
      0001090CH   PUBLIC    XDATA    WORD      ips200_x_max
      0001090EH   PUBLIC    XDATA    WORD      ips200_y_max
      000000D0H   SFRSYM    DATA     BYTE      PSW
      0000009DH   SFRSYM    DATA     BYTE      IRCBAND
      00000097H   SFRSYM    DATA     BYTE      AUXR2
      000000EFH   SFRSYM    DATA     BYTE      AUXINTIF
      000000FDH   SFRSYM    DATA     BYTE      S4CON
      000000ACH   SFRSYM    DATA     BYTE      S3CON
      0000009AH   SFRSYM    DATA     BYTE      S2CON
L251 LINKER/LOCATER V4.66.93.0                                                        01/14/2026  23:11:45  PAGE 93


      000000B7H   SFRSYM    DATA     BYTE      IPH
      000000CDH   SFRSYM    DATA     BYTE      SPSTAT
      000000DDH   SFRSYM    DATA     BYTE      T4T3M
      000000C1H   SFRSYM    DATA     BYTE      WDT_CONTR
      000000DFH   SFRSYM    DATA     BYTE      IP3
      000000F4H   SFRSYM    DATA     BYTE      USBCON
      000000B5H   SFRSYM    DATA     BYTE      IP2
      000000FFH   SFRSYM    DATA     BYTE      RSTCFG
      000000C7H   SFRSYM    DATA     BYTE      IAP_CONTR
      000000F9H   SFRSYM    DATA     BYTE      LINICR
      0000008EH   SFRSYM    DATA     BYTE      AUXR
      000000AFH   SFRSYM    DATA     BYTE      IE2
      00000088H   SFRSYM    DATA     BYTE      TCON
      00000089H   SFRSYM    DATA     BYTE      TMOD
      00000098H   SFRSYM    DATA     BYTE      SCON
      000000A0H.2 SFRSYM    DATA     BIT       P22
      000000A0H.1 SFRSYM    DATA     BIT       P21
      000000A0H.0 SFRSYM    DATA     BIT       P20
      000000F1H   SFRSYM    DATA     BYTE      CANICR
      00000087H   SFRSYM    DATA     BYTE      PCON
      000000BCH   SFRSYM    DATA     BYTE      ADC_CONTR
      000000E7H   SFRSYM    DATA     BYTE      CMPCR2
      000000E6H   SFRSYM    DATA     BYTE      CMPCR1
      000000DEH   SFRSYM    DATA     BYTE      ADCCFG
      000000B8H   SFRSYM    DATA     BYTE      IP
      0000008FH   SFRSYM    DATA     BYTE      INTCLKO
      000000EEH   SFRSYM    DATA     BYTE      IP3H
      000000B6H   SFRSYM    DATA     BYTE      IP2H
      000000A8H   SFRSYM    DATA     BYTE      IE
      000000BBH   SFRSYM    DATA     BYTE      P_SW3
      000000BAH   SFRSYM    DATA     BYTE      P_SW2
      000000A2H   SFRSYM    DATA     BYTE      P_SW1
      000000CEH   SFRSYM    DATA     BYTE      SPCTL
      000000F8H   SFRSYM    DATA     BYTE      P7
      000000E8H   SFRSYM    DATA     BYTE      P6
      000000C8H   SFRSYM    DATA     BYTE      P5
      000000C0H   SFRSYM    DATA     BYTE      P4
      000000B0H   SFRSYM    DATA     BYTE      P3
      000000A0H   SFRSYM    DATA     BYTE      P2
      00000090H   SFRSYM    DATA     BYTE      P1
      00000080H   SFRSYM    DATA     BYTE      P0
      R5          REGSYM    ---      BYTE      dat
      WR12        REGSYM    ---      WORD      x2
      WR14        REGSYM    ---      WORD      y2
      WR14        REGSYM    ---      WORD      color
      WR12        REGSYM    ---      WORD      i
      WR6         REGSYM    ---      INT       dir
      WR6         REGSYM    ---      WORD      pen
      WR4         REGSYM    ---      WORD      bgcolor
      WR12        REGSYM    ---      WORD      x
      WR14        REGSYM    ---      WORD      y
      WR12        REGSYM    ---      WORD      x
      WR14        REGSYM    ---      WORD      y
      REG=3       REGSYM    ---      ---       dat
      WR12        REGSYM    ---      WORD      x
      WR14        REGSYM    ---      WORD      y
      WR12        REGSYM    ---      WORD      x
      WR14        REGSYM    ---      WORD      y
      WR12        REGSYM    ---      WORD      x
      WR14        REGSYM    ---      WORD      y
      WR12        REGSYM    ---      WORD      x
      WR14        REGSYM    ---      WORD      y
      WR12        REGSYM    ---      WORD      y
      R15         REGSYM    ---      BYTE      num
      R14         REGSYM    ---      BYTE      length
L251 LINKER/LOCATER V4.66.93.0                                                        01/14/2026  23:11:45  PAGE 94


      DR12        REGSYM    ---      FLOAT     dat
      R10         REGSYM    ---      CHAR      point
      REG=3       REGSYM    ---      ---       p
      REG=3       REGSYM    ---      ---       p

      ---         MODULE    ---      ---       zf_device_ips200pro
      00010796H   PUBLIC    XDATA    ---       ips200pro_information
      0001079FH   PUBLIC    XDATA    ---       ips200pro_time
      000000D0H   SFRSYM    DATA     BYTE      PSW
      0000009DH   SFRSYM    DATA     BYTE      IRCBAND
      00000097H   SFRSYM    DATA     BYTE      AUXR2
      000000EFH   SFRSYM    DATA     BYTE      AUXINTIF
      000000FDH   SFRSYM    DATA     BYTE      S4CON
      000000ACH   SFRSYM    DATA     BYTE      S3CON
      0000009AH   SFRSYM    DATA     BYTE      S2CON
      000000B7H   SFRSYM    DATA     BYTE      IPH
      000000CDH   SFRSYM    DATA     BYTE      SPSTAT
      000000DDH   SFRSYM    DATA     BYTE      T4T3M
      000000C1H   SFRSYM    DATA     BYTE      WDT_CONTR
      000000DFH   SFRSYM    DATA     BYTE      IP3
      000000F4H   SFRSYM    DATA     BYTE      USBCON
      000000B5H   SFRSYM    DATA     BYTE      IP2
      000000FFH   SFRSYM    DATA     BYTE      RSTCFG
      000000C7H   SFRSYM    DATA     BYTE      IAP_CONTR
      000000F9H   SFRSYM    DATA     BYTE      LINICR
      0000008EH   SFRSYM    DATA     BYTE      AUXR
      000000AFH   SFRSYM    DATA     BYTE      IE2
      00000088H   SFRSYM    DATA     BYTE      TCON
      00000089H   SFRSYM    DATA     BYTE      TMOD
      00000098H   SFRSYM    DATA     BYTE      SCON
      000000F1H   SFRSYM    DATA     BYTE      CANICR
      00000087H   SFRSYM    DATA     BYTE      PCON
      000000BCH   SFRSYM    DATA     BYTE      ADC_CONTR
      000000E7H   SFRSYM    DATA     BYTE      CMPCR2
      000000E6H   SFRSYM    DATA     BYTE      CMPCR1
      000000DEH   SFRSYM    DATA     BYTE      ADCCFG
      000000B8H   SFRSYM    DATA     BYTE      IP
      0000008FH   SFRSYM    DATA     BYTE      INTCLKO
      000000EEH   SFRSYM    DATA     BYTE      IP3H
      000000B6H   SFRSYM    DATA     BYTE      IP2H
      000000A8H   SFRSYM    DATA     BYTE      IE
      000000BBH   SFRSYM    DATA     BYTE      P_SW3
      000000BAH   SFRSYM    DATA     BYTE      P_SW2
      000000A2H   SFRSYM    DATA     BYTE      P_SW1
      000000CEH   SFRSYM    DATA     BYTE      SPCTL
      000000F8H   SFRSYM    DATA     BYTE      P7
      000000E8H   SFRSYM    DATA     BYTE      P6
      000000C8H   SFRSYM    DATA     BYTE      P5
      000000C0H   SFRSYM    DATA     BYTE      P4
      000000B0H   SFRSYM    DATA     BYTE      P3
      000000A0H   SFRSYM    DATA     BYTE      P2
      00000090H   SFRSYM    DATA     BYTE      P1
      00000080H   SFRSYM    DATA     BYTE      P0
      00010763H   SYMBOL    XDATA    ---       ips200pro_printf_buffer
      000107A7H   SYMBOL    XDATA    BYTE      ips200pro_page_num
      DR12        REGSYM    ---      DWORD     wait_time
      DR12        REGSYM    ---      DWORD     length
      REG=3       REGSYM    ---      ---       buffer
      WR2         REGSYM    ---      INT       command1
      WR0         REGSYM    ---      INT       command2
      R10         REGSYM    ---      BYTE      widgets_id
      REG=7       REGSYM    ---      ---       temp
      REG=6       REGSYM    ---      ---       p
      R3          REGSYM    ---      BYTE      tmp
      WR8         REGSYM    ---      WORD      i
L251 LINKER/LOCATER V4.66.93.0                                                        01/14/2026  23:11:45  PAGE 95


      WR6         REGSYM    ---      INT       command2
      REG=3       REGSYM    ---      ---       temp
      R11         REGSYM    ---      BYTE      return_state
      WR6         REGSYM    ---      WORD      year
      R11         REGSYM    ---      BYTE      month
      R10         REGSYM    ---      BYTE      day
      R11         REGSYM    ---      BYTE      return_state
      R6          REGSYM    ---      BYTE      hour
      R7          REGSYM    ---      BYTE      minute
      R10         REGSYM    ---      BYTE      second
      R11         REGSYM    ---      BYTE      return_state
      WR6         REGSYM    ---      WORD      child_id
      WR4         REGSYM    ---      WORD      parent_id
      R11         REGSYM    ---      BYTE      return_state
      WR6         REGSYM    ---      INT       format
      R11         REGSYM    ---      BYTE      return_state
      R7          REGSYM    ---      BYTE      backlight
      R11         REGSYM    ---      BYTE      return_state
      WR6         REGSYM    ---      INT       dir
      R11         REGSYM    ---      BYTE      return_state
      R7          REGSYM    ---      BYTE      crc_state
      R11         REGSYM    ---      BYTE      return_state
      WR6         REGSYM    ---      INT       font
      R11         REGSYM    ---      BYTE      return_state
      R7          REGSYM    ---      BYTE      state
      R11         REGSYM    ---      BYTE      return_state
      REG=3       REGSYM    ---      ---       time
      REG=3       REGSYM    ---      ---       time
      REG=3       REGSYM    ---      ---       information
      REG=3       REGSYM    ---      ---       stack_size
      R11         REGSYM    ---      BYTE      return_state
      WR2         REGSYM    ---      WORD      widgets_id
      WR4         REGSYM    ---      INT       x
      WR8         REGSYM    ---      INT       y
      WR0         REGSYM    ---      WORD      width
      R15         REGSYM    ---      BYTE      return_state
      WR2         REGSYM    ---      WORD      widgets_id
      R11         REGSYM    ---      BYTE      return_state
      WR2         REGSYM    ---      WORD      widgets_id
      WR4         REGSYM    ---      INT       font_size
      R11         REGSYM    ---      BYTE      return_state
      WR2         REGSYM    ---      WORD      widgets_id
      WR4         REGSYM    ---      INT       color_type
      WR0         REGSYM    ---      WORD      color
      R11         REGSYM    ---      BYTE      return_state
      WR2         REGSYM    ---      WORD      widgets_id
      WR4         REGSYM    ---      INT       x
      WR0         REGSYM    ---      INT       y
      R11         REGSYM    ---      BYTE      return_state
      WR2         REGSYM    ---      WORD      widgets_id
      R5          REGSYM    ---      BYTE      state
      R11         REGSYM    ---      BYTE      return_state
      REG=3       REGSYM    ---      ---       str
      WR2         REGSYM    ---      WORD      page_id
      WR4         REGSYM    ---      INT       anim_en
      R11         REGSYM    ---      BYTE      return_state
      WR4         REGSYM    ---      WORD      page_id
      R3          REGSYM    ---      BYTE      state
      R11         REGSYM    ---      BYTE      return_state
      REG=3       REGSYM    ---      ---       str
      R11         REGSYM    ---      BYTE      return_state
      WR6         REGSYM    ---      INT       title_position
      R5          REGSYM    ---      BYTE      title_width
      R11         REGSYM    ---      BYTE      return_state
      WR4         REGSYM    ---      INT       x
L251 LINKER/LOCATER V4.66.93.0                                                        01/14/2026  23:11:45  PAGE 96


      WR2         REGSYM    ---      INT       y
      WR8         REGSYM    ---      WORD      width
      WR0         REGSYM    ---      WORD      height
      R15         REGSYM    ---      BYTE      return_state
      000107A8H   SYMBOL    XDATA    BYTE      lebel_num
      WR14        REGSYM    ---      WORD      label_id
      DR4         REGSYM    ---      LONG      str_length
      R13         REGSYM    ---      BYTE      return_state
      REG=1       REGSYM    ---      ---       arg
      REG=3       REGSYM    ---      ---       str
      R11         REGSYM    ---      BYTE      return_state
      WR2         REGSYM    ---      WORD      label_id
      WR4         REGSYM    ---      INT       mode
      R11         REGSYM    ---      BYTE      return_state
      WR4         REGSYM    ---      INT       x
      WR2         REGSYM    ---      INT       y
      WR8         REGSYM    ---      WORD      row_num
      WR0         REGSYM    ---      WORD      col_num
      R15         REGSYM    ---      BYTE      return_state
      000107A9H   SYMBOL    XDATA    BYTE      table_num
      WR12        REGSYM    ---      WORD      table_id
      R14         REGSYM    ---      BYTE      row
      R15         REGSYM    ---      BYTE      col
      REG=1       REGSYM    ---      ---       arg
      WR0         REGSYM    ---      WORD      table_id
      R3          REGSYM    ---      BYTE      col
      WR4         REGSYM    ---      WORD      width
      R11         REGSYM    ---      BYTE      return_state
      WR8         REGSYM    ---      WORD      table_id
      R11         REGSYM    ---      BYTE      row
      R10         REGSYM    ---      BYTE      col
      R11         REGSYM    ---      BYTE      return_state
      WR4         REGSYM    ---      INT       x
      WR2         REGSYM    ---      INT       y
      WR8         REGSYM    ---      WORD      siz
      WR0         REGSYM    ---      INT       style
      R15         REGSYM    ---      BYTE      return_state
      000107AAH   SYMBOL    XDATA    BYTE      meter_num
      WR2         REGSYM    ---      WORD      meter_id
      WR4         REGSYM    ---      INT       value
      R11         REGSYM    ---      BYTE      return_state
      WR4         REGSYM    ---      INT       x
      WR2         REGSYM    ---      INT       y
      WR8         REGSYM    ---      WORD      clock_size
      WR0         REGSYM    ---      INT       clock_type
      R15         REGSYM    ---      BYTE      return_state
      000107ABH   SYMBOL    XDATA    BYTE      clock_num
      WR4         REGSYM    ---      INT       x
      WR2         REGSYM    ---      INT       y
      WR8         REGSYM    ---      WORD      width
      WR0         REGSYM    ---      WORD      height
      R15         REGSYM    ---      BYTE      return_state
      000107ACH   SYMBOL    XDATA    BYTE      progress_bar_num
      WR8         REGSYM    ---      WORD      progress_bar_id
      R11         REGSYM    ---      BYTE      start_value
      R10         REGSYM    ---      BYTE      end_value
      R11         REGSYM    ---      BYTE      return_state
      WR4         REGSYM    ---      INT       x
      WR2         REGSYM    ---      INT       y
      WR10        REGSYM    ---      WORD      width
      WR0         REGSYM    ---      WORD      height
      R11         REGSYM    ---      BYTE      return_state
      WR6         REGSYM    ---      WORD      year
      R3          REGSYM    ---      BYTE      month
      WR4         REGSYM    ---      INT       mode
L251 LINKER/LOCATER V4.66.93.0                                                        01/14/2026  23:11:45  PAGE 97


      R11         REGSYM    ---      BYTE      return_state
      WR4         REGSYM    ---      INT       x
      WR2         REGSYM    ---      INT       y
      WR8         REGSYM    ---      WORD      width
      WR0         REGSYM    ---      WORD      height
      R15         REGSYM    ---      BYTE      return_state
      000107ADH   SYMBOL    XDATA    BYTE      waveform_num
      WR10        REGSYM    ---      WORD      waveform_id
      R5          REGSYM    ---      BYTE      line_id
      REG=7       REGSYM    ---      ---       dat
      WR8         REGSYM    ---      WORD      length
      R11         REGSYM    ---      BYTE      return_state
      WR6         REGSYM    ---      WORD      i
      WR0         REGSYM    ---      WORD      waveform_id
      WR4         REGSYM    ---      WORD      line_id
      WR2         REGSYM    ---      WORD      line_state
      R11         REGSYM    ---      BYTE      return_state
      WR2         REGSYM    ---      WORD      waveform_id
      R5          REGSYM    ---      BYTE      line_type
      R11         REGSYM    ---      BYTE      return_state
      WR2         REGSYM    ---      WORD      waveform_id
      R11         REGSYM    ---      BYTE      return_state
      WR4         REGSYM    ---      INT       x
      WR2         REGSYM    ---      INT       y
      WR8         REGSYM    ---      WORD      width
      WR0         REGSYM    ---      WORD      height
      R15         REGSYM    ---      BYTE      return_state
      000107AEH   SYMBOL    XDATA    BYTE      image_num
      WR14        REGSYM    ---      WORD      image_id
      REG=0       REGSYM    ---      ---       image
      WR8         REGSYM    ---      WORD      width
      R10         REGSYM    ---      BYTE      threshold
      R13         REGSYM    ---      BYTE      return_state
      WR30        REGSYM    ---      WORD      image_id
      R10         REGSYM    ---      BYTE      line_id
      REG=0       REGSYM    ---      ---       line_data
      WR8         REGSYM    ---      WORD      line_length
      R15         REGSYM    ---      BYTE      return_state
      WR8         REGSYM    ---      WORD      image_id
      R10         REGSYM    ---      BYTE      rectangle_id
      WR4         REGSYM    ---      INT       x
      WR2         REGSYM    ---      INT       y
      WR0         REGSYM    ---      WORD      rectangle_width
      R15         REGSYM    ---      BYTE      return_state
      WR4         REGSYM    ---      INT       x
      WR2         REGSYM    ---      INT       y
      WR8         REGSYM    ---      WORD      width
      WR0         REGSYM    ---      WORD      height
      R15         REGSYM    ---      BYTE      return_state
      000107AFH   SYMBOL    XDATA    BYTE      container_num
      WR0         REGSYM    ---      WORD      container_id
      WR4         REGSYM    ---      WORD      border_width
      WR2         REGSYM    ---      WORD      radius
      R11         REGSYM    ---      BYTE      return_state
      REG=3       REGSYM    ---      ---       str

      ---         MODULE    ---      ---       zf_device_tft180
      00FF438FH   PUBLIC    CODE     ---       tft180_init
      00FF000EH   PUBLIC    CODE     ---       tft180_set_color
      00FF7877H   PUBLIC    CODE     ---       tft180_set_dir
      00FF6F60H   PUBLIC    CODE     ---       tft180_clear
      00010933H   PUBLIC    XDATA    WORD      tft180_pencolor
      00010935H   PUBLIC    XDATA    WORD      tft180_bgcolor
      00010937H   PUBLIC    XDATA    INT       tft180_display_dir
      00010939H   PUBLIC    XDATA    BYTE      tft180_x_max
L251 LINKER/LOCATER V4.66.93.0                                                        01/14/2026  23:11:45  PAGE 98


      0001093AH   PUBLIC    XDATA    BYTE      tft180_y_max
      000000D0H   SFRSYM    DATA     BYTE      PSW
      0000009DH   SFRSYM    DATA     BYTE      IRCBAND
      00000097H   SFRSYM    DATA     BYTE      AUXR2
      000000EFH   SFRSYM    DATA     BYTE      AUXINTIF
      000000FDH   SFRSYM    DATA     BYTE      S4CON
      000000ACH   SFRSYM    DATA     BYTE      S3CON
      0000009AH   SFRSYM    DATA     BYTE      S2CON
      000000B7H   SFRSYM    DATA     BYTE      IPH
      000000CDH   SFRSYM    DATA     BYTE      SPSTAT
      000000DDH   SFRSYM    DATA     BYTE      T4T3M
      000000C1H   SFRSYM    DATA     BYTE      WDT_CONTR
      000000DFH   SFRSYM    DATA     BYTE      IP3
      000000F4H   SFRSYM    DATA     BYTE      USBCON
      000000B5H   SFRSYM    DATA     BYTE      IP2
      000000FFH   SFRSYM    DATA     BYTE      RSTCFG
      000000C7H   SFRSYM    DATA     BYTE      IAP_CONTR
      000000F9H   SFRSYM    DATA     BYTE      LINICR
      0000008EH   SFRSYM    DATA     BYTE      AUXR
      000000AFH   SFRSYM    DATA     BYTE      IE2
      00000088H   SFRSYM    DATA     BYTE      TCON
      00000089H   SFRSYM    DATA     BYTE      TMOD
      00000098H   SFRSYM    DATA     BYTE      SCON
      000000A0H.2 SFRSYM    DATA     BIT       P22
      000000A0H.1 SFRSYM    DATA     BIT       P21
      000000A0H.0 SFRSYM    DATA     BIT       P20
      000000F1H   SFRSYM    DATA     BYTE      CANICR
      00000087H   SFRSYM    DATA     BYTE      PCON
      000000BCH   SFRSYM    DATA     BYTE      ADC_CONTR
      000000E7H   SFRSYM    DATA     BYTE      CMPCR2
      000000E6H   SFRSYM    DATA     BYTE      CMPCR1
      000000DEH   SFRSYM    DATA     BYTE      ADCCFG
      000000B8H   SFRSYM    DATA     BYTE      IP
      0000008FH   SFRSYM    DATA     BYTE      INTCLKO
      000000EEH   SFRSYM    DATA     BYTE      IP3H
      000000B6H   SFRSYM    DATA     BYTE      IP2H
      000000A8H   SFRSYM    DATA     BYTE      IE
      000000BBH   SFRSYM    DATA     BYTE      P_SW3
      000000BAH   SFRSYM    DATA     BYTE      P_SW2
      000000A2H   SFRSYM    DATA     BYTE      P_SW1
      000000CEH   SFRSYM    DATA     BYTE      SPCTL
      000000F8H   SFRSYM    DATA     BYTE      P7
      000000E8H   SFRSYM    DATA     BYTE      P6
      000000C8H   SFRSYM    DATA     BYTE      P5
      000000C0H   SFRSYM    DATA     BYTE      P4
      000000B0H   SFRSYM    DATA     BYTE      P3
      000000A0H   SFRSYM    DATA     BYTE      P2
      00000090H   SFRSYM    DATA     BYTE      P1
      00000080H   SFRSYM    DATA     BYTE      P0
      00FF5BF6H   SYMBOL    CODE     ---       tft180_set_region
      00FF791AH   SYMBOL    CODE     ---       tft180_write_index

      00FF791AH   BLOCK     CODE     ---       LVL=0
      R5          REGSYM    ---      BYTE      dat
      00FF791AH   LINE      CODE     ---       #80
      00FF791AH   LINE      CODE     ---       #82
      00FF791CH   LINE      CODE     ---       #83
      00FF791EH   LINE      CODE     ---       #84
      00FF7920H   LINE      CODE     ---       #85
      00FF7927H   LINE      CODE     ---       #86
      00FF7929H   LINE      CODE     ---       #87
      00FF792BH   LINE      CODE     ---       #88
      00FF792DH   LINE      CODE     ---       #89
      ---         BLOCKEND  ---      ---       LVL=0

L251 LINKER/LOCATER V4.66.93.0                                                        01/14/2026  23:11:45  PAGE 99


      00FF5BF6H   BLOCK     CODE     ---       LVL=0
      000105CBH   SYMBOL    XDATA    WORD      x1
      000105CDH   SYMBOL    XDATA    WORD      y1
      WR12        REGSYM    ---      WORD      x2
      WR14        REGSYM    ---      WORD      y2
      00FF5BF6H   LINE      CODE     ---       #100
      00FF5C08H   LINE      CODE     ---       #102
      00FF5C2CH   LINE      CODE     ---       #103
      00FF5C50H   LINE      CODE     ---       #104
      00FF5C6EH   LINE      CODE     ---       #105
      00FF5C8CH   LINE      CODE     ---       #107
      00FF5C9CH   LINE      CODE     ---       #109
      00FF5CA1H   LINE      CODE     ---       #110
      00FF5CB0H   LINE      CODE     ---       #111
      00FF5CBBH   LINE      CODE     ---       #113
      00FF5CC0H   LINE      CODE     ---       #114
      00FF5CCFH   LINE      CODE     ---       #115
      00FF5CD7H   LINE      CODE     ---       #116
      00FF5CD9H   LINE      CODE     ---       #119
      00FF5CDEH   LINE      CODE     ---       #120
      00FF5CEDH   LINE      CODE     ---       #121
      00FF5CF8H   LINE      CODE     ---       #123
      00FF5CFDH   LINE      CODE     ---       #124
      00FF5D0CH   LINE      CODE     ---       #125
      00FF5D17H   LINE      CODE     ---       #126
      00FF5D17H   LINE      CODE     ---       #127
      00FF5D1CH   LINE      CODE     ---       #128
      ---         BLOCKEND  ---      ---       LVL=0

      00FF6F60H   BLOCK     CODE     ---       LVL=0
      WR14        REGSYM    ---      WORD      color
      00FF6F64H   BLOCK     CODE     NEAR LAB  LVL=1
      000105C7H   SYMBOL    XDATA    DWORD     i
      ---         BLOCKEND  ---      ---       LVL=1
      00FF6F60H   LINE      CODE     ---       #138
      00FF6F64H   LINE      CODE     ---       #139
      00FF6F64H   LINE      CODE     ---       #140
      00FF6F85H   LINE      CODE     ---       #142
      00FF6F94H   LINE      CODE     ---       #143
      00FF6F96H   LINE      CODE     ---       #145
      00FF6F9FH   LINE      CODE     ---       #146
      00FF6FC2H   LINE      CODE     ---       #147
      ---         BLOCKEND  ---      ---       LVL=0

      00FF7877H   BLOCK     CODE     ---       LVL=0
      WR6         REGSYM    ---      INT       dir
      00FF7877H   LINE      CODE     ---       #155
      00FF7877H   LINE      CODE     ---       #157
      00FF787DH   LINE      CODE     ---       #158
      00FF7883H   LINE      CODE     ---       #160
      00FF7889H   LINE      CODE     ---       #161
      00FF788BH   LINE      CODE     ---       #162
      00FF788DH   LINE      CODE     ---       #165
      00FF7893H   LINE      CODE     ---       #166
      00FF7899H   LINE      CODE     ---       #167
      00FF7899H   LINE      CODE     ---       #168
      ---         BLOCKEND  ---      ---       LVL=0

      00FF000EH   BLOCK     CODE     ---       LVL=0
      WR6         REGSYM    ---      WORD      pen
      WR4         REGSYM    ---      WORD      bgcolor
      00FF000EH   LINE      CODE     ---       #177
      00FF000EH   LINE      CODE     ---       #179
      00FF0014H   LINE      CODE     ---       #180
      00FF001AH   LINE      CODE     ---       #181
L251 LINKER/LOCATER V4.66.93.0                                                        01/14/2026  23:11:45  PAGE 100


      ---         BLOCKEND  ---      ---       LVL=0
      WR12        REGSYM    ---      WORD      x
      WR14        REGSYM    ---      WORD      y
      WR12        REGSYM    ---      WORD      x
      WR14        REGSYM    ---      WORD      y
      REG=3       REGSYM    ---      ---       dat
      WR12        REGSYM    ---      WORD      x
      WR14        REGSYM    ---      WORD      y
      WR12        REGSYM    ---      WORD      x
      WR14        REGSYM    ---      WORD      y
      WR12        REGSYM    ---      WORD      x
      WR14        REGSYM    ---      WORD      y
      WR12        REGSYM    ---      WORD      x
      WR14        REGSYM    ---      WORD      y
      WR12        REGSYM    ---      WORD      y
      R15         REGSYM    ---      BYTE      num
      R14         REGSYM    ---      BYTE      length
      DR12        REGSYM    ---      FLOAT     dat
      R10         REGSYM    ---      CHAR      point
      REG=3       REGSYM    ---      ---       p

      00FF438FH   BLOCK     CODE     ---       LVL=0
      00FF438FH   LINE      CODE     ---       #515
      00FF438FH   LINE      CODE     ---       #520
      00FF43C4H   LINE      CODE     ---       #528
      00FF43CDH   LINE      CODE     ---       #529
      00FF43DCH   LINE      CODE     ---       #531
      00FF43DEH   LINE      CODE     ---       #532
      00FF43E5H   LINE      CODE     ---       #534
      00FF43E7H   LINE      CODE     ---       #535
      00FF43EEH   LINE      CODE     ---       #537
      00FF43F3H   LINE      CODE     ---       #538
      00FF43FAH   LINE      CODE     ---       #540
      00FF43FFH   LINE      CODE     ---       #541
      00FF4408H   LINE      CODE     ---       #542
      00FF4411H   LINE      CODE     ---       #543
      00FF441AH   LINE      CODE     ---       #545
      00FF441FH   LINE      CODE     ---       #546
      00FF4428H   LINE      CODE     ---       #547
      00FF4431H   LINE      CODE     ---       #548
      00FF443AH   LINE      CODE     ---       #550
      00FF443FH   LINE      CODE     ---       #551
      00FF4448H   LINE      CODE     ---       #552
      00FF4451H   LINE      CODE     ---       #553
      00FF445AH   LINE      CODE     ---       #554
      00FF4463H   LINE      CODE     ---       #555
      00FF446CH   LINE      CODE     ---       #556
      00FF4475H   LINE      CODE     ---       #558
      00FF447AH   LINE      CODE     ---       #559
      00FF4483H   LINE      CODE     ---       #561
      00FF4488H   LINE      CODE     ---       #562
      00FF4491H   LINE      CODE     ---       #563
      00FF449AH   LINE      CODE     ---       #564
      00FF44A3H   LINE      CODE     ---       #565
      00FF44A8H   LINE      CODE     ---       #566
      00FF44B1H   LINE      CODE     ---       #568
      00FF44B6H   LINE      CODE     ---       #569
      00FF44BFH   LINE      CODE     ---       #570
      00FF44C7H   LINE      CODE     ---       #572
      00FF44CCH   LINE      CODE     ---       #573
      00FF44D5H   LINE      CODE     ---       #574
      00FF44DEH   LINE      CODE     ---       #575
      00FF44E3H   LINE      CODE     ---       #576
      00FF44ECH   LINE      CODE     ---       #577
      00FF44F5H   LINE      CODE     ---       #579
L251 LINKER/LOCATER V4.66.93.0                                                        01/14/2026  23:11:45  PAGE 101


      00FF44FAH   LINE      CODE     ---       #580
      00FF4503H   LINE      CODE     ---       #582
      00FF4508H   LINE      CODE     ---       #583
      00FF4520H   LINE      CODE     ---       #585
      00FF4528H   LINE      CODE     ---       #586
      00FF452FH   LINE      CODE     ---       #587
      00FF4537H   LINE      CODE     ---       #588
      00FF4540H   LINE      CODE     ---       #589
      00FF4540H   LINE      CODE     ---       #591
      00FF4545H   LINE      CODE     ---       #592
      00FF454EH   LINE      CODE     ---       #593
      00FF4557H   LINE      CODE     ---       #594
      00FF4560H   LINE      CODE     ---       #595
      00FF4569H   LINE      CODE     ---       #596
      00FF4572H   LINE      CODE     ---       #597
      00FF457BH   LINE      CODE     ---       #598
      00FF4584H   LINE      CODE     ---       #599
      00FF458DH   LINE      CODE     ---       #600
      00FF4596H   LINE      CODE     ---       #601
      00FF459FH   LINE      CODE     ---       #602
      00FF45A8H   LINE      CODE     ---       #603
      00FF45B1H   LINE      CODE     ---       #604
      00FF45B9H   LINE      CODE     ---       #605
      00FF45C2H   LINE      CODE     ---       #606
      00FF45CBH   LINE      CODE     ---       #607
      00FF45D4H   LINE      CODE     ---       #609
      00FF45D9H   LINE      CODE     ---       #610
      00FF45E2H   LINE      CODE     ---       #611
      00FF45EBH   LINE      CODE     ---       #612
      00FF45F4H   LINE      CODE     ---       #613
      00FF45FDH   LINE      CODE     ---       #614
      00FF4606H   LINE      CODE     ---       #615
      00FF460FH   LINE      CODE     ---       #616
      00FF4618H   LINE      CODE     ---       #617
      00FF4621H   LINE      CODE     ---       #618
      00FF462AH   LINE      CODE     ---       #619
      00FF4633H   LINE      CODE     ---       #620
      00FF463CH   LINE      CODE     ---       #621
      00FF4645H   LINE      CODE     ---       #622
      00FF464DH   LINE      CODE     ---       #623
      00FF4656H   LINE      CODE     ---       #624
      00FF465FH   LINE      CODE     ---       #625
      00FF4668H   LINE      CODE     ---       #627
      00FF466DH   LINE      CODE     ---       #628
      00FF4675H   LINE      CODE     ---       #629
      00FF467EH   LINE      CODE     ---       #630
      00FF4686H   LINE      CODE     ---       #631
      00FF468FH   LINE      CODE     ---       #633
      00FF4694H   LINE      CODE     ---       #634
      00FF469CH   LINE      CODE     ---       #635
      00FF46A5H   LINE      CODE     ---       #636
      00FF46ADH   LINE      CODE     ---       #637
      00FF46B6H   LINE      CODE     ---       #639
      00FF46BBH   LINE      CODE     ---       #640
      00FF46C4H   LINE      CODE     ---       #641
      00FF46C9H   LINE      CODE     ---       #642
      00FF46D1H   LINE      CODE     ---       #644
      00FF46D6H   LINE      CODE     ---       #645
      00FF46DFH   LINE      CODE     ---       #646
      00FF46E4H   LINE      CODE     ---       #648
      ---         BLOCKEND  ---      ---       LVL=0

      ---         MODULE    ---      ---       zf_device_tsl1401
      00010000H   PUBLIC    XDATA    BYTE      tsl1401_finish_flag
      00010001H   PUBLIC    XDATA    ---       tsl1401_data
L251 LINKER/LOCATER V4.66.93.0                                                        01/14/2026  23:11:45  PAGE 102


      000000D0H   SFRSYM    DATA     BYTE      PSW
      0000009DH   SFRSYM    DATA     BYTE      IRCBAND
      00000097H   SFRSYM    DATA     BYTE      AUXR2
      000000EFH   SFRSYM    DATA     BYTE      AUXINTIF
      000000FDH   SFRSYM    DATA     BYTE      S4CON
      000000ACH   SFRSYM    DATA     BYTE      S3CON
      0000009AH   SFRSYM    DATA     BYTE      S2CON
      000000B7H   SFRSYM    DATA     BYTE      IPH
      000000CDH   SFRSYM    DATA     BYTE      SPSTAT
      000000DDH   SFRSYM    DATA     BYTE      T4T3M
      000000C1H   SFRSYM    DATA     BYTE      WDT_CONTR
      000000DFH   SFRSYM    DATA     BYTE      IP3
      000000F4H   SFRSYM    DATA     BYTE      USBCON
      000000B5H   SFRSYM    DATA     BYTE      IP2
      000000FFH   SFRSYM    DATA     BYTE      RSTCFG
      000000C7H   SFRSYM    DATA     BYTE      IAP_CONTR
      000000F9H   SFRSYM    DATA     BYTE      LINICR
      0000008EH   SFRSYM    DATA     BYTE      AUXR
      000000AFH   SFRSYM    DATA     BYTE      IE2
      00000088H   SFRSYM    DATA     BYTE      TCON
      00000089H   SFRSYM    DATA     BYTE      TMOD
      00000098H   SFRSYM    DATA     BYTE      SCON
      000000F1H   SFRSYM    DATA     BYTE      CANICR
      00000087H   SFRSYM    DATA     BYTE      PCON
      000000BCH   SFRSYM    DATA     BYTE      ADC_CONTR
      000000E7H   SFRSYM    DATA     BYTE      CMPCR2
      000000E6H   SFRSYM    DATA     BYTE      CMPCR1
      000000DEH   SFRSYM    DATA     BYTE      ADCCFG
      000000B8H   SFRSYM    DATA     BYTE      IP
      0000008FH   SFRSYM    DATA     BYTE      INTCLKO
      000000EEH   SFRSYM    DATA     BYTE      IP3H
      000000B6H   SFRSYM    DATA     BYTE      IP2H
      000000A8H   SFRSYM    DATA     BYTE      IE
      000000BBH   SFRSYM    DATA     BYTE      P_SW3
      000000BAH   SFRSYM    DATA     BYTE      P_SW2
      000000A2H   SFRSYM    DATA     BYTE      P_SW1
      000000CEH   SFRSYM    DATA     BYTE      SPCTL
      000000F8H   SFRSYM    DATA     BYTE      P7
      000000E8H   SFRSYM    DATA     BYTE      P6
      000000C8H   SFRSYM    DATA     BYTE      P5
      000000C0H   SFRSYM    DATA     BYTE      P4
      000000B0H   SFRSYM    DATA     BYTE      P3
      000000A0H   SFRSYM    DATA     BYTE      P2
      00000090H   SFRSYM    DATA     BYTE      P1
      00000080H   SFRSYM    DATA     BYTE      P0
      00010201H   SYMBOL    XDATA    BYTE      tsl1401_init_state
      R15         REGSYM    ---      BYTE      i
      WR14        REGSYM    ---      INT       uart_n
      R13         REGSYM    ---      BYTE      index
      R12         REGSYM    ---      BYTE      i

      ---         MODULE    ---      ---       zf_device_type
      0001093BH   PUBLIC    XDATA    ---       tof_module_exti_handler
      0001093DH   PUBLIC    XDATA    INT       wireless_type
      0001093FH   PUBLIC    XDATA    INT       tof_type
      00010941H   PUBLIC    XDATA    INT       gps_type
      000000D0H   SFRSYM    DATA     BYTE      PSW
      0000009DH   SFRSYM    DATA     BYTE      IRCBAND
      00000097H   SFRSYM    DATA     BYTE      AUXR2
      000000EFH   SFRSYM    DATA     BYTE      AUXINTIF
      000000FDH   SFRSYM    DATA     BYTE      S4CON
      000000ACH   SFRSYM    DATA     BYTE      S3CON
      0000009AH   SFRSYM    DATA     BYTE      S2CON
      000000B7H   SFRSYM    DATA     BYTE      IPH
      000000CDH   SFRSYM    DATA     BYTE      SPSTAT
L251 LINKER/LOCATER V4.66.93.0                                                        01/14/2026  23:11:45  PAGE 103


      000000DDH   SFRSYM    DATA     BYTE      T4T3M
      000000C1H   SFRSYM    DATA     BYTE      WDT_CONTR
      000000DFH   SFRSYM    DATA     BYTE      IP3
      000000F4H   SFRSYM    DATA     BYTE      USBCON
      000000B5H   SFRSYM    DATA     BYTE      IP2
      000000FFH   SFRSYM    DATA     BYTE      RSTCFG
      000000C7H   SFRSYM    DATA     BYTE      IAP_CONTR
      000000F9H   SFRSYM    DATA     BYTE      LINICR
      0000008EH   SFRSYM    DATA     BYTE      AUXR
      000000AFH   SFRSYM    DATA     BYTE      IE2
      00000088H   SFRSYM    DATA     BYTE      TCON
      00000089H   SFRSYM    DATA     BYTE      TMOD
      00000098H   SFRSYM    DATA     BYTE      SCON
      000000F1H   SFRSYM    DATA     BYTE      CANICR
      00000087H   SFRSYM    DATA     BYTE      PCON
      000000BCH   SFRSYM    DATA     BYTE      ADC_CONTR
      000000E7H   SFRSYM    DATA     BYTE      CMPCR2
      000000E6H   SFRSYM    DATA     BYTE      CMPCR1
      000000DEH   SFRSYM    DATA     BYTE      ADCCFG
      000000B8H   SFRSYM    DATA     BYTE      IP
      0000008FH   SFRSYM    DATA     BYTE      INTCLKO
      000000EEH   SFRSYM    DATA     BYTE      IP3H
      000000B6H   SFRSYM    DATA     BYTE      IP2H
      000000A8H   SFRSYM    DATA     BYTE      IE
      000000BBH   SFRSYM    DATA     BYTE      P_SW3
      000000BAH   SFRSYM    DATA     BYTE      P_SW2
      000000A2H   SFRSYM    DATA     BYTE      P_SW1
      000000CEH   SFRSYM    DATA     BYTE      SPCTL
      000000F8H   SFRSYM    DATA     BYTE      P7
      000000E8H   SFRSYM    DATA     BYTE      P6
      000000C8H   SFRSYM    DATA     BYTE      P5
      000000C0H   SFRSYM    DATA     BYTE      P4
      000000B0H   SFRSYM    DATA     BYTE      P3
      000000A0H   SFRSYM    DATA     BYTE      P2
      00000090H   SFRSYM    DATA     BYTE      P1
      00000080H   SFRSYM    DATA     BYTE      P0
      WR6         REGSYM    ---      INT       type_set
      WR4         REGSYM    ---      INT       uartx
      REG=0       REGSYM    ---      ---       uart_callback
      WR6         REGSYM    ---      INT       type_set
      REG=0       REGSYM    ---      ---       exti_callback
      WR6         REGSYM    ---      INT       type_set
      WR4         REGSYM    ---      INT       uartx
      REG=0       REGSYM    ---      ---       uart_callback

      ---         MODULE    ---      ---       zf_device_wireless_uart
      000000D0H   SFRSYM    DATA     BYTE      PSW
      0000009DH   SFRSYM    DATA     BYTE      IRCBAND
      00000097H   SFRSYM    DATA     BYTE      AUXR2
      000000EFH   SFRSYM    DATA     BYTE      AUXINTIF
      000000FDH   SFRSYM    DATA     BYTE      S4CON
      000000ACH   SFRSYM    DATA     BYTE      S3CON
      0000009AH   SFRSYM    DATA     BYTE      S2CON
      000000B7H   SFRSYM    DATA     BYTE      IPH
      000000CDH   SFRSYM    DATA     BYTE      SPSTAT
      000000DDH   SFRSYM    DATA     BYTE      T4T3M
      000000C1H   SFRSYM    DATA     BYTE      WDT_CONTR
      000000DFH   SFRSYM    DATA     BYTE      IP3
      000000F4H   SFRSYM    DATA     BYTE      USBCON
      000000B5H   SFRSYM    DATA     BYTE      IP2
      000000FFH   SFRSYM    DATA     BYTE      RSTCFG
      000000C7H   SFRSYM    DATA     BYTE      IAP_CONTR
      000000F9H   SFRSYM    DATA     BYTE      LINICR
      0000008EH   SFRSYM    DATA     BYTE      AUXR
      000000AFH   SFRSYM    DATA     BYTE      IE2
L251 LINKER/LOCATER V4.66.93.0                                                        01/14/2026  23:11:45  PAGE 104


      00000088H   SFRSYM    DATA     BYTE      TCON
      00000089H   SFRSYM    DATA     BYTE      TMOD
      00000098H   SFRSYM    DATA     BYTE      SCON
      000000F1H   SFRSYM    DATA     BYTE      CANICR
      00000087H   SFRSYM    DATA     BYTE      PCON
      000000BCH   SFRSYM    DATA     BYTE      ADC_CONTR
      000000E7H   SFRSYM    DATA     BYTE      CMPCR2
      000000E6H   SFRSYM    DATA     BYTE      CMPCR1
      000000DEH   SFRSYM    DATA     BYTE      ADCCFG
      000000B8H   SFRSYM    DATA     BYTE      IP
      0000008FH   SFRSYM    DATA     BYTE      INTCLKO
      000000EEH   SFRSYM    DATA     BYTE      IP3H
      000000B6H   SFRSYM    DATA     BYTE      IP2H
      000000A8H   SFRSYM    DATA     BYTE      IE
      000000BBH   SFRSYM    DATA     BYTE      P_SW3
      000000BAH   SFRSYM    DATA     BYTE      P_SW2
      000000A2H   SFRSYM    DATA     BYTE      P_SW1
      000000CEH   SFRSYM    DATA     BYTE      SPCTL
      000000F8H   SFRSYM    DATA     BYTE      P7
      000000E8H   SFRSYM    DATA     BYTE      P6
      000000C8H   SFRSYM    DATA     BYTE      P5
      000000C0H   SFRSYM    DATA     BYTE      P4
      000000B0H   SFRSYM    DATA     BYTE      P3
      000000A0H   SFRSYM    DATA     BYTE      P2
      00000090H   SFRSYM    DATA     BYTE      P1
      00000080H   SFRSYM    DATA     BYTE      P0
      0001070CH   SYMBOL    XDATA    ---       wireless_uart_fifo
      00010723H   SYMBOL    XDATA    ---       wireless_uart_buffer
      R15         REGSYM    ---      BYTE      dat
      WR12        REGSYM    ---      WORD      time_cnt
      DR12        REGSYM    ---      DWORD     len
      REG=3       REGSYM    ---      ---       str
      REG=3       REGSYM    ---      ---       buff
      DR4         REGSYM    ---      DWORD     len

      ---         MODULE    ---      ---       seekfree_assistant
      000103D2H   PUBLIC    XDATA    ---       seekfree_assistant_oscilloscope_data
      0001040DH   PUBLIC    XDATA    ---       seekfree_assistant_parameter_update_flag
      00010415H   PUBLIC    XDATA    ---       seekfree_assistant_parameter
      000000D0H   SFRSYM    DATA     BYTE      PSW
      0000009DH   SFRSYM    DATA     BYTE      IRCBAND
      00000097H   SFRSYM    DATA     BYTE      AUXR2
      000000EFH   SFRSYM    DATA     BYTE      AUXINTIF
      000000FDH   SFRSYM    DATA     BYTE      S4CON
      000000ACH   SFRSYM    DATA     BYTE      S3CON
      0000009AH   SFRSYM    DATA     BYTE      S2CON
      000000B7H   SFRSYM    DATA     BYTE      IPH
      000000CDH   SFRSYM    DATA     BYTE      SPSTAT
      000000DDH   SFRSYM    DATA     BYTE      T4T3M
      000000C1H   SFRSYM    DATA     BYTE      WDT_CONTR
      000000DFH   SFRSYM    DATA     BYTE      IP3
      000000F4H   SFRSYM    DATA     BYTE      USBCON
      000000B5H   SFRSYM    DATA     BYTE      IP2
      000000FFH   SFRSYM    DATA     BYTE      RSTCFG
      000000C7H   SFRSYM    DATA     BYTE      IAP_CONTR
      000000F9H   SFRSYM    DATA     BYTE      LINICR
      0000008EH   SFRSYM    DATA     BYTE      AUXR
      000000AFH   SFRSYM    DATA     BYTE      IE2
      00000088H   SFRSYM    DATA     BYTE      TCON
      00000089H   SFRSYM    DATA     BYTE      TMOD
      00000098H   SFRSYM    DATA     BYTE      SCON
      000000F1H   SFRSYM    DATA     BYTE      CANICR
      00000087H   SFRSYM    DATA     BYTE      PCON
      000000BCH   SFRSYM    DATA     BYTE      ADC_CONTR
      000000E7H   SFRSYM    DATA     BYTE      CMPCR2
L251 LINKER/LOCATER V4.66.93.0                                                        01/14/2026  23:11:45  PAGE 105


      000000E6H   SFRSYM    DATA     BYTE      CMPCR1
      000000DEH   SFRSYM    DATA     BYTE      ADCCFG
      000000B8H   SFRSYM    DATA     BYTE      IP
      0000008FH   SFRSYM    DATA     BYTE      INTCLKO
      000000EEH   SFRSYM    DATA     BYTE      IP3H
      000000B6H   SFRSYM    DATA     BYTE      IP2H
      000000A8H   SFRSYM    DATA     BYTE      IE
      000000BBH   SFRSYM    DATA     BYTE      P_SW3
      000000BAH   SFRSYM    DATA     BYTE      P_SW2
      000000A2H   SFRSYM    DATA     BYTE      P_SW1
      000000CEH   SFRSYM    DATA     BYTE      SPCTL
      000000F8H   SFRSYM    DATA     BYTE      P7
      000000A8H.7 SFRSYM    DATA     BIT       EA
      000000E8H   SFRSYM    DATA     BYTE      P6
      000000C8H   SFRSYM    DATA     BYTE      P5
      000000C0H   SFRSYM    DATA     BYTE      P4
      000000B0H   SFRSYM    DATA     BYTE      P3
      000000A0H   SFRSYM    DATA     BYTE      P2
      00000090H   SFRSYM    DATA     BYTE      P1
      00000080H   SFRSYM    DATA     BYTE      P0
      000103CAH   SYMBOL    XDATA    ---       seekfree_assistant_camera_dot_data
      000103F6H   SYMBOL    XDATA    ---       seekfree_assistant_fifo
      00010435H   SYMBOL    XDATA    ---       seekfree_assistant_camera_buffer
      0001047FH   SYMBOL    XDATA    ---       seekfree_assistant_camera_data
      00010487H   SYMBOL    XDATA    ---       seekfree_assistant_buffer
      00FF8314H   SYMBOL    HCONST   ---       ?tpl?0001
      00FF8338H   SYMBOL    HCONST   ---       ?tpl?0002
      REG=6       REGSYM    ---      ---       buffer
      DR28        REGSYM    ---      DWORD     length
      R11         REGSYM    ---      BYTE      temp_sum
      WR12        REGSYM    ---      INT       camera_type
      R9          REGSYM    ---      BYTE      boundary_num
      WR14        REGSYM    ---      WORD      width
      WR6         REGSYM    ---      INT       camera_type
      REG=0       REGSYM    ---      ---       image_addr
      WR4         REGSYM    ---      WORD      width
      REG=7       REGSYM    ---      ---       seekfree_assistant_oscilloscope
      R15         REGSYM    ---      BYTE      packet_size
      R15         REGSYM    ---      BYTE      i
      REG=3       REGSYM    ---      ---       buffer
      WR8         REGSYM    ---      INT       boundary_type
      WR2         REGSYM    ---      WORD      dot_num
      REG=7       REGSYM    ---      ---       dot_x1
      R4          REGSYM    ---      BYTE      i
      R7          REGSYM    ---      BYTE      boundary_num
      R5          REGSYM    ---      BYTE      boundary_data_type
      REG=3       REGSYM    ---      ---       receive_packet

      ---         MODULE    ---      ---       seekfree_assistant_interface
      00010951H   PUBLIC    XDATA    ---       seekfree_assistant_receive_callback
      00010953H   PUBLIC    XDATA    ---       seekfree_assistant_transfer_callback
      000000D0H   SFRSYM    DATA     BYTE      PSW
      0000009DH   SFRSYM    DATA     BYTE      IRCBAND
      00000097H   SFRSYM    DATA     BYTE      AUXR2
      000000EFH   SFRSYM    DATA     BYTE      AUXINTIF
      000000FDH   SFRSYM    DATA     BYTE      S4CON
      000000ACH   SFRSYM    DATA     BYTE      S3CON
      0000009AH   SFRSYM    DATA     BYTE      S2CON
      000000B7H   SFRSYM    DATA     BYTE      IPH
      000000CDH   SFRSYM    DATA     BYTE      SPSTAT
      000000DDH   SFRSYM    DATA     BYTE      T4T3M
      000000C1H   SFRSYM    DATA     BYTE      WDT_CONTR
      000000DFH   SFRSYM    DATA     BYTE      IP3
      000000F4H   SFRSYM    DATA     BYTE      USBCON
      000000B5H   SFRSYM    DATA     BYTE      IP2
L251 LINKER/LOCATER V4.66.93.0                                                        01/14/2026  23:11:45  PAGE 106


      000000FFH   SFRSYM    DATA     BYTE      RSTCFG
      000000C7H   SFRSYM    DATA     BYTE      IAP_CONTR
      000000F9H   SFRSYM    DATA     BYTE      LINICR
      0000008EH   SFRSYM    DATA     BYTE      AUXR
      000000AFH   SFRSYM    DATA     BYTE      IE2
      00000088H   SFRSYM    DATA     BYTE      TCON
      00000089H   SFRSYM    DATA     BYTE      TMOD
      00000098H   SFRSYM    DATA     BYTE      SCON
      000000F1H   SFRSYM    DATA     BYTE      CANICR
      00000087H   SFRSYM    DATA     BYTE      PCON
      000000BCH   SFRSYM    DATA     BYTE      ADC_CONTR
      000000E7H   SFRSYM    DATA     BYTE      CMPCR2
      000000E6H   SFRSYM    DATA     BYTE      CMPCR1
      000000DEH   SFRSYM    DATA     BYTE      ADCCFG
      000000B8H   SFRSYM    DATA     BYTE      IP
      0000008FH   SFRSYM    DATA     BYTE      INTCLKO
      000000EEH   SFRSYM    DATA     BYTE      IP3H
      000000B6H   SFRSYM    DATA     BYTE      IP2H
      000000A8H   SFRSYM    DATA     BYTE      IE
      000000BBH   SFRSYM    DATA     BYTE      P_SW3
      000000BAH   SFRSYM    DATA     BYTE      P_SW2
      000000A2H   SFRSYM    DATA     BYTE      P_SW1
      000000CEH   SFRSYM    DATA     BYTE      SPCTL
      000000F8H   SFRSYM    DATA     BYTE      P7
      000000E8H   SFRSYM    DATA     BYTE      P6
      000000C8H   SFRSYM    DATA     BYTE      P5
      000000C0H   SFRSYM    DATA     BYTE      P4
      000000B0H   SFRSYM    DATA     BYTE      P3
      000000A0H   SFRSYM    DATA     BYTE      P2
      00000090H   SFRSYM    DATA     BYTE      P1
      00000080H   SFRSYM    DATA     BYTE      P0
      WR6         REGSYM    ---      INT       transfer_device

      ---         MODULE    ---      ---       motor
      00FF6CD2H   PUBLIC    CODE     ---       Motor_Init
      00FF77E0H   PUBLIC    CODE     ---       Motor_RightBackward
      00FF7807H   PUBLIC    CODE     ---       Motor_LeftBackward
      00FF7790H   PUBLIC    CODE     ---       Motor_RightForward
      00FF77B8H   PUBLIC    CODE     ---       Motor_LeftForward
      000000D0H   SFRSYM    DATA     BYTE      PSW
      0000009DH   SFRSYM    DATA     BYTE      IRCBAND
      00000097H   SFRSYM    DATA     BYTE      AUXR2
      000000EFH   SFRSYM    DATA     BYTE      AUXINTIF
      000000FDH   SFRSYM    DATA     BYTE      S4CON
      000000ACH   SFRSYM    DATA     BYTE      S3CON
      0000009AH   SFRSYM    DATA     BYTE      S2CON
      000000B7H   SFRSYM    DATA     BYTE      IPH
      000000CDH   SFRSYM    DATA     BYTE      SPSTAT
      000000DDH   SFRSYM    DATA     BYTE      T4T3M
      000000C1H   SFRSYM    DATA     BYTE      WDT_CONTR
      000000DFH   SFRSYM    DATA     BYTE      IP3
      000000F4H   SFRSYM    DATA     BYTE      USBCON
      000000B5H   SFRSYM    DATA     BYTE      IP2
      000000FFH   SFRSYM    DATA     BYTE      RSTCFG
      000000C7H   SFRSYM    DATA     BYTE      IAP_CONTR
      000000F9H   SFRSYM    DATA     BYTE      LINICR
      0000008EH   SFRSYM    DATA     BYTE      AUXR
      000000AFH   SFRSYM    DATA     BYTE      IE2
      00000088H   SFRSYM    DATA     BYTE      TCON
      00000089H   SFRSYM    DATA     BYTE      TMOD
      00000098H   SFRSYM    DATA     BYTE      SCON
      000000F1H   SFRSYM    DATA     BYTE      CANICR
      00000087H   SFRSYM    DATA     BYTE      PCON
      000000BCH   SFRSYM    DATA     BYTE      ADC_CONTR
      000000E7H   SFRSYM    DATA     BYTE      CMPCR2
L251 LINKER/LOCATER V4.66.93.0                                                        01/14/2026  23:11:45  PAGE 107


      000000E6H   SFRSYM    DATA     BYTE      CMPCR1
      000000DEH   SFRSYM    DATA     BYTE      ADCCFG
      000000B8H   SFRSYM    DATA     BYTE      IP
      0000008FH   SFRSYM    DATA     BYTE      INTCLKO
      000000EEH   SFRSYM    DATA     BYTE      IP3H
      000000B6H   SFRSYM    DATA     BYTE      IP2H
      000000A8H   SFRSYM    DATA     BYTE      IE
      000000BBH   SFRSYM    DATA     BYTE      P_SW3
      000000BAH   SFRSYM    DATA     BYTE      P_SW2
      000000A2H   SFRSYM    DATA     BYTE      P_SW1
      000000CEH   SFRSYM    DATA     BYTE      SPCTL
      000000F8H   SFRSYM    DATA     BYTE      P7
      000000E8H   SFRSYM    DATA     BYTE      P6
      000000C8H   SFRSYM    DATA     BYTE      P5
      000000C0H   SFRSYM    DATA     BYTE      P4
      000000B0H   SFRSYM    DATA     BYTE      P3
      000000A0H   SFRSYM    DATA     BYTE      P2
      00000090H   SFRSYM    DATA     BYTE      P1
      00000080H   SFRSYM    DATA     BYTE      P0
      00010962H   SYMBOL    XDATA    CHAR      dir
      00010963H   SYMBOL    XDATA    CHAR      duty

      00FF6CD2H   BLOCK     CODE     ---       LVL=0
      00FF6CD2H   LINE      CODE     ---       #34
      00FF6CD2H   LINE      CODE     ---       #37
      00FF6CE2H   LINE      CODE     ---       #38
      00FF6CF9H   LINE      CODE     ---       #41
      00FF6D09H   LINE      CODE     ---       #42
      00FF6D20H   LINE      CODE     ---       #45
      00FF6D30H   LINE      CODE     ---       #46
      ---         BLOCKEND  ---      ---       LVL=0

      00FF77B8H   BLOCK     CODE     ---       LVL=0
      R15         REGSYM    ---      BYTE      pwm
      00FF77B8H   LINE      CODE     ---       #109
      00FF77BCH   LINE      CODE     ---       #111
      00FF77C5H   LINE      CODE     ---       #112
      00FF77DDH   LINE      CODE     ---       #113
      ---         BLOCKEND  ---      ---       LVL=0

      00FF7790H   BLOCK     CODE     ---       LVL=0
      R15         REGSYM    ---      BYTE      pwm
      00FF7790H   LINE      CODE     ---       #121
      00FF7794H   LINE      CODE     ---       #123
      00FF779DH   LINE      CODE     ---       #124
      00FF77B5H   LINE      CODE     ---       #125
      ---         BLOCKEND  ---      ---       LVL=0

      00FF7807H   BLOCK     CODE     ---       LVL=0
      R15         REGSYM    ---      BYTE      pwm
      00FF7807H   LINE      CODE     ---       #133
      00FF780BH   LINE      CODE     ---       #135
      00FF7813H   LINE      CODE     ---       #136
      00FF782BH   LINE      CODE     ---       #137
      ---         BLOCKEND  ---      ---       LVL=0

      00FF77E0H   BLOCK     CODE     ---       LVL=0
      R15         REGSYM    ---      BYTE      pwm
      00FF77E0H   LINE      CODE     ---       #145
      00FF77E4H   LINE      CODE     ---       #147
      00FF77ECH   LINE      CODE     ---       #148
      00FF7804H   LINE      CODE     ---       #149
      ---         BLOCKEND  ---      ---       LVL=0
      R15         REGSYM    ---      BYTE      pwm

L251 LINKER/LOCATER V4.66.93.0                                                        01/14/2026  23:11:45  PAGE 108


      ---         MODULE    ---      ---       key
      00FF7142H   PUBLIC    CODE     ---       key_init
      00010955H   PUBLIC    XDATA    BYTE      key_up
      00010956H   PUBLIC    XDATA    BYTE      key_down
      00010957H   PUBLIC    XDATA    BYTE      key_old
      00010958H   PUBLIC    XDATA    BYTE      key_val
      000000D0H   SFRSYM    DATA     BYTE      PSW
      0000009DH   SFRSYM    DATA     BYTE      IRCBAND
      00000097H   SFRSYM    DATA     BYTE      AUXR2
      000000EFH   SFRSYM    DATA     BYTE      AUXINTIF
      000000FDH   SFRSYM    DATA     BYTE      S4CON
      000000ACH   SFRSYM    DATA     BYTE      S3CON
      0000009AH   SFRSYM    DATA     BYTE      S2CON
      000000B7H   SFRSYM    DATA     BYTE      IPH
      000000CDH   SFRSYM    DATA     BYTE      SPSTAT
      000000DDH   SFRSYM    DATA     BYTE      T4T3M
      000000C1H   SFRSYM    DATA     BYTE      WDT_CONTR
      000000DFH   SFRSYM    DATA     BYTE      IP3
      000000F4H   SFRSYM    DATA     BYTE      USBCON
      000000B5H   SFRSYM    DATA     BYTE      IP2
      000000FFH   SFRSYM    DATA     BYTE      RSTCFG
      000000C7H   SFRSYM    DATA     BYTE      IAP_CONTR
      000000F9H   SFRSYM    DATA     BYTE      LINICR
      0000008EH   SFRSYM    DATA     BYTE      AUXR
      000000AFH   SFRSYM    DATA     BYTE      IE2
      00000088H   SFRSYM    DATA     BYTE      TCON
      00000089H   SFRSYM    DATA     BYTE      TMOD
      00000098H   SFRSYM    DATA     BYTE      SCON
      000000F1H   SFRSYM    DATA     BYTE      CANICR
      00000087H   SFRSYM    DATA     BYTE      PCON
      000000BCH   SFRSYM    DATA     BYTE      ADC_CONTR
      000000E7H   SFRSYM    DATA     BYTE      CMPCR2
      000000E6H   SFRSYM    DATA     BYTE      CMPCR1
      000000DEH   SFRSYM    DATA     BYTE      ADCCFG
      000000B8H   SFRSYM    DATA     BYTE      IP
      0000008FH   SFRSYM    DATA     BYTE      INTCLKO
      000000EEH   SFRSYM    DATA     BYTE      IP3H
      000000B6H   SFRSYM    DATA     BYTE      IP2H
      000000A8H   SFRSYM    DATA     BYTE      IE
      000000BBH   SFRSYM    DATA     BYTE      P_SW3
      000000BAH   SFRSYM    DATA     BYTE      P_SW2
      000000A2H   SFRSYM    DATA     BYTE      P_SW1
      000000CEH   SFRSYM    DATA     BYTE      SPCTL
      000000F8H   SFRSYM    DATA     BYTE      P7
      000000E8H   SFRSYM    DATA     BYTE      P6
      000000C8H   SFRSYM    DATA     BYTE      P5
      000000C0H   SFRSYM    DATA     BYTE      P4
      000000B0H   SFRSYM    DATA     BYTE      P3
      000000A0H   SFRSYM    DATA     BYTE      P2
      00000090H   SFRSYM    DATA     BYTE      P1
      00000080H   SFRSYM    DATA     BYTE      P0

      00FF7142H   BLOCK     CODE     ---       LVL=0
      00FF7142H   LINE      CODE     ---       #14
      00FF7142H   LINE      CODE     ---       #16
      00FF7151H   LINE      CODE     ---       #17
      00FF7160H   LINE      CODE     ---       #18
      00FF716FH   LINE      CODE     ---       #20
      00FF717EH   LINE      CODE     ---       #21
      00FF718DH   LINE      CODE     ---       #22
      ---         BLOCKEND  ---      ---       LVL=0
      R15         REGSYM    ---      BYTE      key_temp

      ---         MODULE    ---      ---       lcd
      00FF7965H   PUBLIC    CODE     ---       Lcd_Init
L251 LINKER/LOCATER V4.66.93.0                                                        01/14/2026  23:11:45  PAGE 109


      00010967H   PUBLIC    XDATA    BYTE      lcd_cnt
      000000D0H   SFRSYM    DATA     BYTE      PSW
      0000009DH   SFRSYM    DATA     BYTE      IRCBAND
      00000097H   SFRSYM    DATA     BYTE      AUXR2
      000000EFH   SFRSYM    DATA     BYTE      AUXINTIF
      000000FDH   SFRSYM    DATA     BYTE      S4CON
      000000ACH   SFRSYM    DATA     BYTE      S3CON
      0000009AH   SFRSYM    DATA     BYTE      S2CON
      000000B7H   SFRSYM    DATA     BYTE      IPH
      000000CDH   SFRSYM    DATA     BYTE      SPSTAT
      000000DDH   SFRSYM    DATA     BYTE      T4T3M
      000000C1H   SFRSYM    DATA     BYTE      WDT_CONTR
      000000DFH   SFRSYM    DATA     BYTE      IP3
      000000F4H   SFRSYM    DATA     BYTE      USBCON
      000000B5H   SFRSYM    DATA     BYTE      IP2
      000000FFH   SFRSYM    DATA     BYTE      RSTCFG
      000000C7H   SFRSYM    DATA     BYTE      IAP_CONTR
      000000F9H   SFRSYM    DATA     BYTE      LINICR
      0000008EH   SFRSYM    DATA     BYTE      AUXR
      000000AFH   SFRSYM    DATA     BYTE      IE2
      00000088H   SFRSYM    DATA     BYTE      TCON
      00000089H   SFRSYM    DATA     BYTE      TMOD
      00000098H   SFRSYM    DATA     BYTE      SCON
      000000F1H   SFRSYM    DATA     BYTE      CANICR
      00000087H   SFRSYM    DATA     BYTE      PCON
      000000BCH   SFRSYM    DATA     BYTE      ADC_CONTR
      000000E7H   SFRSYM    DATA     BYTE      CMPCR2
      000000E6H   SFRSYM    DATA     BYTE      CMPCR1
      000000DEH   SFRSYM    DATA     BYTE      ADCCFG
      000000B8H   SFRSYM    DATA     BYTE      IP
      0000008FH   SFRSYM    DATA     BYTE      INTCLKO
      000000EEH   SFRSYM    DATA     BYTE      IP3H
      000000B6H   SFRSYM    DATA     BYTE      IP2H
      000000A8H   SFRSYM    DATA     BYTE      IE
      000000BBH   SFRSYM    DATA     BYTE      P_SW3
      000000BAH   SFRSYM    DATA     BYTE      P_SW2
      000000A2H   SFRSYM    DATA     BYTE      P_SW1
      000000CEH   SFRSYM    DATA     BYTE      SPCTL
      000000F8H   SFRSYM    DATA     BYTE      P7
      000000E8H   SFRSYM    DATA     BYTE      P6
      000000C8H   SFRSYM    DATA     BYTE      P5
      000000C0H   SFRSYM    DATA     BYTE      P4
      000000B0H   SFRSYM    DATA     BYTE      P3
      000000A0H   SFRSYM    DATA     BYTE      P2
      00000090H   SFRSYM    DATA     BYTE      P1
      00000080H   SFRSYM    DATA     BYTE      P0

      00FF7965H   BLOCK     CODE     ---       LVL=0
      00FF7965H   LINE      CODE     ---       #11
      00FF7965H   LINE      CODE     ---       #13
      00FF7968H   LINE      CODE     ---       #14
      00FF7971H   LINE      CODE     ---       #15
      ---         BLOCKEND  ---      ---       LVL=0

      ---         MODULE    ---      ---       adc
      00FF7765H   PUBLIC    CODE     ---       Adc_All_Init
      00010823H   PUBLIC    XDATA    BYTE      channel_index
      00010824H   PUBLIC    XDATA    ---       adc_val_list
      0001082EH   PUBLIC    XDATA    ---       max_min_adc
      00010842H   PUBLIC    XDATA    ---       channel_list
      000000D0H   SFRSYM    DATA     BYTE      PSW
      0000009DH   SFRSYM    DATA     BYTE      IRCBAND
      00000097H   SFRSYM    DATA     BYTE      AUXR2
      000000EFH   SFRSYM    DATA     BYTE      AUXINTIF
      000000FDH   SFRSYM    DATA     BYTE      S4CON
L251 LINKER/LOCATER V4.66.93.0                                                        01/14/2026  23:11:45  PAGE 110


      000000ACH   SFRSYM    DATA     BYTE      S3CON
      0000009AH   SFRSYM    DATA     BYTE      S2CON
      000000B7H   SFRSYM    DATA     BYTE      IPH
      000000CDH   SFRSYM    DATA     BYTE      SPSTAT
      000000DDH   SFRSYM    DATA     BYTE      T4T3M
      000000C1H   SFRSYM    DATA     BYTE      WDT_CONTR
      000000DFH   SFRSYM    DATA     BYTE      IP3
      000000F4H   SFRSYM    DATA     BYTE      USBCON
      000000B5H   SFRSYM    DATA     BYTE      IP2
      000000FFH   SFRSYM    DATA     BYTE      RSTCFG
      000000C7H   SFRSYM    DATA     BYTE      IAP_CONTR
      000000F9H   SFRSYM    DATA     BYTE      LINICR
      0000008EH   SFRSYM    DATA     BYTE      AUXR
      000000AFH   SFRSYM    DATA     BYTE      IE2
      00000088H   SFRSYM    DATA     BYTE      TCON
      00000089H   SFRSYM    DATA     BYTE      TMOD
      00000098H   SFRSYM    DATA     BYTE      SCON
      000000F1H   SFRSYM    DATA     BYTE      CANICR
      00000087H   SFRSYM    DATA     BYTE      PCON
      000000BCH   SFRSYM    DATA     BYTE      ADC_CONTR
      000000E7H   SFRSYM    DATA     BYTE      CMPCR2
      000000E6H   SFRSYM    DATA     BYTE      CMPCR1
      000000DEH   SFRSYM    DATA     BYTE      ADCCFG
      000000B8H   SFRSYM    DATA     BYTE      IP
      0000008FH   SFRSYM    DATA     BYTE      INTCLKO
      000000EEH   SFRSYM    DATA     BYTE      IP3H
      000000B6H   SFRSYM    DATA     BYTE      IP2H
      000000A8H   SFRSYM    DATA     BYTE      IE
      000000BBH   SFRSYM    DATA     BYTE      P_SW3
      000000BAH   SFRSYM    DATA     BYTE      P_SW2
      000000A2H   SFRSYM    DATA     BYTE      P_SW1
      000000CEH   SFRSYM    DATA     BYTE      SPCTL
      000000F8H   SFRSYM    DATA     BYTE      P7
      000000E8H   SFRSYM    DATA     BYTE      P6
      000000C8H   SFRSYM    DATA     BYTE      P5
      000000C0H   SFRSYM    DATA     BYTE      P4
      000000B0H   SFRSYM    DATA     BYTE      P3
      000000A0H   SFRSYM    DATA     BYTE      P2
      00000090H   SFRSYM    DATA     BYTE      P1
      00000080H   SFRSYM    DATA     BYTE      P0

      00FF7765H   BLOCK     CODE     ---       LVL=0
      00FF7765H   LINE      CODE     ---       #35
      00FF7765H   LINE      CODE     ---       #37
      00FF776EH   LINE      CODE     ---       #38
      00FF7775H   LINE      CODE     ---       #39
      00FF777EH   LINE      CODE     ---       #40
      00FF7787H   LINE      CODE     ---       #41
      ---         BLOCKEND  ---      ---       LVL=0
      WR2         REGSYM    ---      WORD      adc_val
      R1          REGSYM    ---      BYTE      index

      ---         MODULE    ---      ---       uart
      000107F0H   PUBLIC    XDATA    ---       buf
      00010822H   PUBLIC    XDATA    BYTE      cnt
      000000D0H   SFRSYM    DATA     BYTE      PSW
      0000009DH   SFRSYM    DATA     BYTE      IRCBAND
      00000097H   SFRSYM    DATA     BYTE      AUXR2
      000000EFH   SFRSYM    DATA     BYTE      AUXINTIF
      000000FDH   SFRSYM    DATA     BYTE      S4CON
      000000ACH   SFRSYM    DATA     BYTE      S3CON
      0000009AH   SFRSYM    DATA     BYTE      S2CON
      000000B7H   SFRSYM    DATA     BYTE      IPH
      000000CDH   SFRSYM    DATA     BYTE      SPSTAT
      000000DDH   SFRSYM    DATA     BYTE      T4T3M
L251 LINKER/LOCATER V4.66.93.0                                                        01/14/2026  23:11:45  PAGE 111


      000000C1H   SFRSYM    DATA     BYTE      WDT_CONTR
      000000DFH   SFRSYM    DATA     BYTE      IP3
      000000F4H   SFRSYM    DATA     BYTE      USBCON
      000000B5H   SFRSYM    DATA     BYTE      IP2
      000000FFH   SFRSYM    DATA     BYTE      RSTCFG
      000000C7H   SFRSYM    DATA     BYTE      IAP_CONTR
      000000F9H   SFRSYM    DATA     BYTE      LINICR
      0000008EH   SFRSYM    DATA     BYTE      AUXR
      000000AFH   SFRSYM    DATA     BYTE      IE2
      00000088H   SFRSYM    DATA     BYTE      TCON
      00000089H   SFRSYM    DATA     BYTE      TMOD
      00000098H   SFRSYM    DATA     BYTE      SCON
      000000F1H   SFRSYM    DATA     BYTE      CANICR
      00000087H   SFRSYM    DATA     BYTE      PCON
      000000BCH   SFRSYM    DATA     BYTE      ADC_CONTR
      000000E7H   SFRSYM    DATA     BYTE      CMPCR2
      000000E6H   SFRSYM    DATA     BYTE      CMPCR1
      000000DEH   SFRSYM    DATA     BYTE      ADCCFG
      000000B8H   SFRSYM    DATA     BYTE      IP
      0000008FH   SFRSYM    DATA     BYTE      INTCLKO
      000000EEH   SFRSYM    DATA     BYTE      IP3H
      000000B6H   SFRSYM    DATA     BYTE      IP2H
      000000A8H   SFRSYM    DATA     BYTE      IE
      000000BBH   SFRSYM    DATA     BYTE      P_SW3
      000000BAH   SFRSYM    DATA     BYTE      P_SW2
      000000A2H   SFRSYM    DATA     BYTE      P_SW1
      000000CEH   SFRSYM    DATA     BYTE      SPCTL
      000000F8H   SFRSYM    DATA     BYTE      P7
      000000E8H   SFRSYM    DATA     BYTE      P6
      000000C8H   SFRSYM    DATA     BYTE      P5
      000000C0H   SFRSYM    DATA     BYTE      P4
      000000B0H   SFRSYM    DATA     BYTE      P3
      000000A0H   SFRSYM    DATA     BYTE      P2
      00000090H   SFRSYM    DATA     BYTE      P1
      00000080H   SFRSYM    DATA     BYTE      P0

      ---         MODULE    ---      ---       pid
      00FF585CH   PUBLIC    CODE     ---       pid_calc_position
      00FF5997H   PUBLIC    CODE     ---       motor_pid_control
      00FF0066H   PUBLIC    CODE     ---       constrain_float
      00FF5AC8H   PUBLIC    CODE     ---       pid_calc_increment
      00010507H   PUBLIC    XDATA    ---       pid_SDSD
      00010547H   PUBLIC    XDATA    ---       pid_motor_right
      00010587H   PUBLIC    XDATA    ---       pid_motor_left
      000105C9H   PUBLIC    XDATA    BYTE      ?constrain_float?BYTE
      000000D0H   SFRSYM    DATA     BYTE      PSW
      0000009DH   SFRSYM    DATA     BYTE      IRCBAND
      00000097H   SFRSYM    DATA     BYTE      AUXR2
      000000EFH   SFRSYM    DATA     BYTE      AUXINTIF
      000000FDH   SFRSYM    DATA     BYTE      S4CON
      000000ACH   SFRSYM    DATA     BYTE      S3CON
      0000009AH   SFRSYM    DATA     BYTE      S2CON
      000000B7H   SFRSYM    DATA     BYTE      IPH
      000000CDH   SFRSYM    DATA     BYTE      SPSTAT
      000000DDH   SFRSYM    DATA     BYTE      T4T3M
      000000C1H   SFRSYM    DATA     BYTE      WDT_CONTR
      000000DFH   SFRSYM    DATA     BYTE      IP3
      000000F4H   SFRSYM    DATA     BYTE      USBCON
      000000B5H   SFRSYM    DATA     BYTE      IP2
      000000FFH   SFRSYM    DATA     BYTE      RSTCFG
      000000C7H   SFRSYM    DATA     BYTE      IAP_CONTR
      000000F9H   SFRSYM    DATA     BYTE      LINICR
      0000008EH   SFRSYM    DATA     BYTE      AUXR
      000000AFH   SFRSYM    DATA     BYTE      IE2
      00000088H   SFRSYM    DATA     BYTE      TCON
L251 LINKER/LOCATER V4.66.93.0                                                        01/14/2026  23:11:45  PAGE 112


      00000089H   SFRSYM    DATA     BYTE      TMOD
      00000098H   SFRSYM    DATA     BYTE      SCON
      000000F1H   SFRSYM    DATA     BYTE      CANICR
      00000087H   SFRSYM    DATA     BYTE      PCON
      000000BCH   SFRSYM    DATA     BYTE      ADC_CONTR
      000000E7H   SFRSYM    DATA     BYTE      CMPCR2
      000000E6H   SFRSYM    DATA     BYTE      CMPCR1
      000000DEH   SFRSYM    DATA     BYTE      ADCCFG
      000000B8H   SFRSYM    DATA     BYTE      IP
      0000008FH   SFRSYM    DATA     BYTE      INTCLKO
      000000EEH   SFRSYM    DATA     BYTE      IP3H
      000000B6H   SFRSYM    DATA     BYTE      IP2H
      000000A8H   SFRSYM    DATA     BYTE      IE
      000000BBH   SFRSYM    DATA     BYTE      P_SW3
      000000BAH   SFRSYM    DATA     BYTE      P_SW2
      000000A2H   SFRSYM    DATA     BYTE      P_SW1
      000000CEH   SFRSYM    DATA     BYTE      SPCTL
      000000F8H   SFRSYM    DATA     BYTE      P7
      000000E8H   SFRSYM    DATA     BYTE      P6
      000000C8H   SFRSYM    DATA     BYTE      P5
      000000C0H   SFRSYM    DATA     BYTE      P4
      000000B0H   SFRSYM    DATA     BYTE      P3
      000000A0H   SFRSYM    DATA     BYTE      P2
      00000090H   SFRSYM    DATA     BYTE      P1
      00000080H   SFRSYM    DATA     BYTE      P0
      REG=2       REGSYM    ---      ---       pid
      DR4         REGSYM    ---      FLOAT     kp
      REG=2       REGSYM    ---      ---       pid
      DR4         REGSYM    ---      FLOAT     kp
      REG=7       REGSYM    ---      ---       pid
      DR4         REGSYM    ---      FLOAT     target
      REG=2       REGSYM    ---      ---       pid

      00FF0066H   BLOCK     CODE     ---       LVL=0
      DR28        REGSYM    ---      FLOAT     value
      DR24        REGSYM    ---      FLOAT     min_val
      000105D1H   SYMBOL    XDATA    FLOAT     max_val
      00FF0066H   LINE      CODE     ---       #102
      00FF006AH   LINE      CODE     ---       #104
      00FF006FH   LINE      CODE     ---       #105
      00FF0072H   LINE      CODE     ---       #106
      00FF0085H   LINE      CODE     ---       #107
      00FF0088H   LINE      CODE     ---       #109
      00FF008AH   LINE      CODE     ---       #110
      ---         BLOCKEND  ---      ---       LVL=0

      00FF585CH   BLOCK     CODE     ---       LVL=0
      REG=3       REGSYM    ---      ---       pid
      DR28        REGSYM    ---      FLOAT     actual
      00FF585CH   LINE      CODE     ---       #120
      00FF5862H   LINE      CODE     ---       #122
      00FF586AH   LINE      CODE     ---       #123
      00FF587FH   LINE      CODE     ---       #126
      00FF589EH   LINE      CODE     ---       #129
      00FF58CEH   LINE      CODE     ---       #132
      00FF58E8H   LINE      CODE     ---       #133
      00FF5903H   LINE      CODE     ---       #134
      00FF5929H   LINE      CODE     ---       #137
      00FF5939H   LINE      CODE     ---       #140
      00FF595FH   LINE      CODE     ---       #143
      00FF598CH   LINE      CODE     ---       #145
      00FF5994H   LINE      CODE     ---       #146
      ---         BLOCKEND  ---      ---       LVL=0

      00FF5AC8H   BLOCK     CODE     ---       LVL=0
L251 LINKER/LOCATER V4.66.93.0                                                        01/14/2026  23:11:45  PAGE 113


      REG=3       REGSYM    ---      ---       pid
      DR28        REGSYM    ---      FLOAT     actual
      00FF5ACEH   BLOCK     CODE     NEAR LAB  LVL=1
      DR0         REGSYM    ---      FLOAT     increment
      ---         BLOCKEND  ---      ---       LVL=1
      00FF5AC8H   LINE      CODE     ---       #156
      00FF5ACEH   LINE      CODE     ---       #157
      00FF5ACEH   LINE      CODE     ---       #160
      00FF5AD6H   LINE      CODE     ---       #161
      00FF5AEBH   LINE      CODE     ---       #165
      00FF5B10H   LINE      CODE     ---       #166
      00FF5B2BH   LINE      CODE     ---       #167
      00FF5B67H   LINE      CODE     ---       #170
      00FF5B87H   LINE      CODE     ---       #173
      00FF5B97H   LINE      CODE     ---       #174
      00FF5BA7H   LINE      CODE     ---       #177
      00FF5BBEH   LINE      CODE     ---       #180
      00FF5BEBH   LINE      CODE     ---       #182
      00FF5BF3H   LINE      CODE     ---       #183
      ---         BLOCKEND  ---      ---       LVL=0

      00FF5997H   BLOCK     CODE     ---       LVL=0
      WR12        REGSYM    ---      INT       encoder_left
      WR14        REGSYM    ---      INT       encoder_right
      00FF599DH   BLOCK     CODE     NEAR LAB  LVL=1
      000105C7H   SYMBOL    XDATA    FLOAT     output_left
      000105CBH   SYMBOL    XDATA    FLOAT     output_right
      DR4         REGSYM    ---      FLOAT     input_SDSD
      DR24        REGSYM    ---      FLOAT     output_SDSD
      DR28        REGSYM    ---      FLOAT     final_input_left
      DR12        REGSYM    ---      FLOAT     final_input_right
      000105CFH   SYMBOL    XDATA    BYTE      pwm_left
      000105D0H   SYMBOL    XDATA    BYTE      pwm_right
      ---         BLOCKEND  ---      ---       LVL=1
      00FF5997H   LINE      CODE     ---       #194
      00FF599DH   LINE      CODE     ---       #195
      00FF599DH   LINE      CODE     ---       #196
      00FF59A9H   LINE      CODE     ---       #197
      00FF59B3H   LINE      CODE     ---       #198
      00FF59B3H   LINE      CODE     ---       #199
      00FF59B3H   LINE      CODE     ---       #200
      00FF59B3H   LINE      CODE     ---       #201
      00FF59B3H   LINE      CODE     ---       #203
      00FF59B3H   LINE      CODE     ---       #204
      00FF59B3H   LINE      CODE     ---       #207
      00FF59BEH   LINE      CODE     ---       #208
      00FF59CBH   LINE      CODE     ---       #211
      00FF59D9H   LINE      CODE     ---       #212
      00FF59E7H   LINE      CODE     ---       #215
      00FF59FEH   LINE      CODE     ---       #216
      00FF5A15H   LINE      CODE     ---       #219
      00FF5A28H   LINE      CODE     ---       #221
      00FF5A44H   LINE      CODE     ---       #222
      00FF5A47H   LINE      CODE     ---       #223
      00FF5A49H   LINE      CODE     ---       #226
      00FF5A6AH   LINE      CODE     ---       #227
      00FF5A6DH   LINE      CODE     ---       #228
      00FF5A6DH   LINE      CODE     ---       #231
      00FF5A80H   LINE      CODE     ---       #233
      00FF5A9CH   LINE      CODE     ---       #234
      00FF5A9FH   LINE      CODE     ---       #235
      00FF5AA1H   LINE      CODE     ---       #238
      00FF5AC2H   LINE      CODE     ---       #239
      00FF5AC5H   LINE      CODE     ---       #240
      00FF5AC5H   LINE      CODE     ---       #241
L251 LINKER/LOCATER V4.66.93.0                                                        01/14/2026  23:11:45  PAGE 114


      ---         BLOCKEND  ---      ---       LVL=0

      ---         MODULE    ---      ---       encoder
      00FF78BBH   PUBLIC    CODE     ---       Encoder_Init
      00010959H   PUBLIC    XDATA    INT       encoder_data_dir_L
      0001095BH   PUBLIC    XDATA    INT       encoder_data_dir_R
      000000D0H   SFRSYM    DATA     BYTE      PSW
      0000009DH   SFRSYM    DATA     BYTE      IRCBAND
      00000097H   SFRSYM    DATA     BYTE      AUXR2
      000000EFH   SFRSYM    DATA     BYTE      AUXINTIF
      000000FDH   SFRSYM    DATA     BYTE      S4CON
      000000ACH   SFRSYM    DATA     BYTE      S3CON
      0000009AH   SFRSYM    DATA     BYTE      S2CON
      000000B7H   SFRSYM    DATA     BYTE      IPH
      000000CDH   SFRSYM    DATA     BYTE      SPSTAT
      000000DDH   SFRSYM    DATA     BYTE      T4T3M
      000000C1H   SFRSYM    DATA     BYTE      WDT_CONTR
      000000DFH   SFRSYM    DATA     BYTE      IP3
      000000F4H   SFRSYM    DATA     BYTE      USBCON
      000000B5H   SFRSYM    DATA     BYTE      IP2
      000000FFH   SFRSYM    DATA     BYTE      RSTCFG
      000000C7H   SFRSYM    DATA     BYTE      IAP_CONTR
      000000F9H   SFRSYM    DATA     BYTE      LINICR
      0000008EH   SFRSYM    DATA     BYTE      AUXR
      000000AFH   SFRSYM    DATA     BYTE      IE2
      00000088H   SFRSYM    DATA     BYTE      TCON
      00000089H   SFRSYM    DATA     BYTE      TMOD
      00000098H   SFRSYM    DATA     BYTE      SCON
      000000F1H   SFRSYM    DATA     BYTE      CANICR
      00000087H   SFRSYM    DATA     BYTE      PCON
      000000BCH   SFRSYM    DATA     BYTE      ADC_CONTR
      000000E7H   SFRSYM    DATA     BYTE      CMPCR2
      000000E6H   SFRSYM    DATA     BYTE      CMPCR1
      000000DEH   SFRSYM    DATA     BYTE      ADCCFG
      000000B8H   SFRSYM    DATA     BYTE      IP
      0000008FH   SFRSYM    DATA     BYTE      INTCLKO
      000000EEH   SFRSYM    DATA     BYTE      IP3H
      000000B6H   SFRSYM    DATA     BYTE      IP2H
      000000A8H   SFRSYM    DATA     BYTE      IE
      000000BBH   SFRSYM    DATA     BYTE      P_SW3
      000000BAH   SFRSYM    DATA     BYTE      P_SW2
      000000A2H   SFRSYM    DATA     BYTE      P_SW1
      000000CEH   SFRSYM    DATA     BYTE      SPCTL
      000000F8H   SFRSYM    DATA     BYTE      P7
      000000E8H   SFRSYM    DATA     BYTE      P6
      000000C8H   SFRSYM    DATA     BYTE      P5
      000000C0H   SFRSYM    DATA     BYTE      P4
      000000B0H   SFRSYM    DATA     BYTE      P3
      000000A0H   SFRSYM    DATA     BYTE      P2
      00000090H   SFRSYM    DATA     BYTE      P1
      00000080H   SFRSYM    DATA     BYTE      P0

      00FF78BBH   BLOCK     CODE     ---       LVL=0
      00FF78BBH   LINE      CODE     ---       #11
      00FF78BBH   LINE      CODE     ---       #13
      00FF78C8H   LINE      CODE     ---       #14
      ---         BLOCKEND  ---      ---       LVL=0

      ---         MODULE    ---      ---       normalization
      00010910H   PUBLIC    XDATA    ---       adc_normalized_list
      000000D0H   SFRSYM    DATA     BYTE      PSW
      0000009DH   SFRSYM    DATA     BYTE      IRCBAND
      00000097H   SFRSYM    DATA     BYTE      AUXR2
      000000EFH   SFRSYM    DATA     BYTE      AUXINTIF
      000000FDH   SFRSYM    DATA     BYTE      S4CON
L251 LINKER/LOCATER V4.66.93.0                                                        01/14/2026  23:11:45  PAGE 115


      000000ACH   SFRSYM    DATA     BYTE      S3CON
      0000009AH   SFRSYM    DATA     BYTE      S2CON
      000000B7H   SFRSYM    DATA     BYTE      IPH
      000000CDH   SFRSYM    DATA     BYTE      SPSTAT
      000000DDH   SFRSYM    DATA     BYTE      T4T3M
      000000C1H   SFRSYM    DATA     BYTE      WDT_CONTR
      000000DFH   SFRSYM    DATA     BYTE      IP3
      000000F4H   SFRSYM    DATA     BYTE      USBCON
      000000B5H   SFRSYM    DATA     BYTE      IP2
      000000FFH   SFRSYM    DATA     BYTE      RSTCFG
      000000C7H   SFRSYM    DATA     BYTE      IAP_CONTR
      000000F9H   SFRSYM    DATA     BYTE      LINICR
      0000008EH   SFRSYM    DATA     BYTE      AUXR
      000000AFH   SFRSYM    DATA     BYTE      IE2
      00000088H   SFRSYM    DATA     BYTE      TCON
      00000089H   SFRSYM    DATA     BYTE      TMOD
      00000098H   SFRSYM    DATA     BYTE      SCON
      000000F1H   SFRSYM    DATA     BYTE      CANICR
      00000087H   SFRSYM    DATA     BYTE      PCON
      000000BCH   SFRSYM    DATA     BYTE      ADC_CONTR
      000000E7H   SFRSYM    DATA     BYTE      CMPCR2
      000000E6H   SFRSYM    DATA     BYTE      CMPCR1
      000000DEH   SFRSYM    DATA     BYTE      ADCCFG
      000000B8H   SFRSYM    DATA     BYTE      IP
      0000008FH   SFRSYM    DATA     BYTE      INTCLKO
      000000EEH   SFRSYM    DATA     BYTE      IP3H
      000000B6H   SFRSYM    DATA     BYTE      IP2H
      000000A8H   SFRSYM    DATA     BYTE      IE
      000000BBH   SFRSYM    DATA     BYTE      P_SW3
      000000BAH   SFRSYM    DATA     BYTE      P_SW2
      000000A2H   SFRSYM    DATA     BYTE      P_SW1
      000000CEH   SFRSYM    DATA     BYTE      SPCTL
      000000F8H   SFRSYM    DATA     BYTE      P7
      000000E8H   SFRSYM    DATA     BYTE      P6
      000000C8H   SFRSYM    DATA     BYTE      P5
      000000C0H   SFRSYM    DATA     BYTE      P4
      000000B0H   SFRSYM    DATA     BYTE      P3
      000000A0H   SFRSYM    DATA     BYTE      P2
      00000090H   SFRSYM    DATA     BYTE      P1
      00000080H   SFRSYM    DATA     BYTE      P0
      DR24        REGSYM    ---      FLOAT     temp
      DR28        REGSYM    ---      FLOAT     range

      ---         MODULE    ---      ---       control
      00FF6060H   PUBLIC    CODE     ---       SDSD_calculate
      00010888H   PUBLIC    XDATA    ---       SDSD
      00010894H   PUBLIC    XDATA    FLOAT     res
      00010898H   PUBLIC    XDATA    LONG      sub
      0001089CH   PUBLIC    XDATA    LONG      sum
      000000D0H   SFRSYM    DATA     BYTE      PSW
      0000009DH   SFRSYM    DATA     BYTE      IRCBAND
      00000097H   SFRSYM    DATA     BYTE      AUXR2
      000000EFH   SFRSYM    DATA     BYTE      AUXINTIF
      000000FDH   SFRSYM    DATA     BYTE      S4CON
      000000ACH   SFRSYM    DATA     BYTE      S3CON
      0000009AH   SFRSYM    DATA     BYTE      S2CON
      000000B7H   SFRSYM    DATA     BYTE      IPH
      000000CDH   SFRSYM    DATA     BYTE      SPSTAT
      000000DDH   SFRSYM    DATA     BYTE      T4T3M
      000000C1H   SFRSYM    DATA     BYTE      WDT_CONTR
      000000DFH   SFRSYM    DATA     BYTE      IP3
      000000F4H   SFRSYM    DATA     BYTE      USBCON
      000000B5H   SFRSYM    DATA     BYTE      IP2
      000000FFH   SFRSYM    DATA     BYTE      RSTCFG
      000000C7H   SFRSYM    DATA     BYTE      IAP_CONTR
L251 LINKER/LOCATER V4.66.93.0                                                        01/14/2026  23:11:45  PAGE 116


      000000F9H   SFRSYM    DATA     BYTE      LINICR
      0000008EH   SFRSYM    DATA     BYTE      AUXR
      000000AFH   SFRSYM    DATA     BYTE      IE2
      00000088H   SFRSYM    DATA     BYTE      TCON
      00000089H   SFRSYM    DATA     BYTE      TMOD
      00000098H   SFRSYM    DATA     BYTE      SCON
      000000F1H   SFRSYM    DATA     BYTE      CANICR
      00000087H   SFRSYM    DATA     BYTE      PCON
      000000BCH   SFRSYM    DATA     BYTE      ADC_CONTR
      000000E7H   SFRSYM    DATA     BYTE      CMPCR2
      000000E6H   SFRSYM    DATA     BYTE      CMPCR1
      000000DEH   SFRSYM    DATA     BYTE      ADCCFG
      000000B8H   SFRSYM    DATA     BYTE      IP
      0000008FH   SFRSYM    DATA     BYTE      INTCLKO
      000000EEH   SFRSYM    DATA     BYTE      IP3H
      000000B6H   SFRSYM    DATA     BYTE      IP2H
      000000A8H   SFRSYM    DATA     BYTE      IE
      000000BBH   SFRSYM    DATA     BYTE      P_SW3
      000000BAH   SFRSYM    DATA     BYTE      P_SW2
      000000A2H   SFRSYM    DATA     BYTE      P_SW1
      000000CEH   SFRSYM    DATA     BYTE      SPCTL
      000000F8H   SFRSYM    DATA     BYTE      P7
      000000E8H   SFRSYM    DATA     BYTE      P6
      000000C8H   SFRSYM    DATA     BYTE      P5
      000000C0H   SFRSYM    DATA     BYTE      P4
      000000B0H   SFRSYM    DATA     BYTE      P3
      000000A0H   SFRSYM    DATA     BYTE      P2
      00000090H   SFRSYM    DATA     BYTE      P1
      00000080H   SFRSYM    DATA     BYTE      P0
      REG=2       REGSYM    ---      ---       SDSD
      DR4         REGSYM    ---      FLOAT     A

      00FF6060H   BLOCK     CODE     ---       LVL=0
      REG=3       REGSYM    ---      ---       SDSD
      00FF6060H   LINE      CODE     ---       #38
      00FF6064H   LINE      CODE     ---       #40
      00FF60BCH   LINE      CODE     ---       #43
      00FF610EH   LINE      CODE     ---       #46
      00FF612AH   LINE      CODE     ---       #48
      00FF6143H   LINE      CODE     ---       #49
      00FF6145H   LINE      CODE     ---       #50
      00FF6154H   LINE      CODE     ---       #51
      00FF615EH   LINE      CODE     ---       #53
      00FF6168H   LINE      CODE     ---       #54
      ---         BLOCKEND  ---      ---       LVL=0

      ---         MODULE    ---      ---       IMU
      00FF6832H   PUBLIC    CODE     ---       fast_inv_sqrt
      00FF5253H   PUBLIC    CODE     ---       imu_quaternion_init
      00FF01AEH   PUBLIC    CODE     ---       imu_update
      00FF507BH   PUBLIC    CODE     ---       imu_quaternion_to_euler
      00FF75BFH   PUBLIC    CODE     ---       angle_normalize
      00FF3661H   PUBLIC    CODE     ---       imu_quaternion_update
      00FF0026H   PUBLIC    CODE     ---       imu_init
      00FF6A79H   PUBLIC    CODE     ---       imu_get_data
      000107BCH   PUBLIC    XDATA    ---       imu
      000000D0H   SFRSYM    DATA     BYTE      PSW
      0000009DH   SFRSYM    DATA     BYTE      IRCBAND
      00000097H   SFRSYM    DATA     BYTE      AUXR2
      000000EFH   SFRSYM    DATA     BYTE      AUXINTIF
      000000FDH   SFRSYM    DATA     BYTE      S4CON
      000000ACH   SFRSYM    DATA     BYTE      S3CON
      0000009AH   SFRSYM    DATA     BYTE      S2CON
      000000B7H   SFRSYM    DATA     BYTE      IPH
      000000CDH   SFRSYM    DATA     BYTE      SPSTAT
L251 LINKER/LOCATER V4.66.93.0                                                        01/14/2026  23:11:45  PAGE 117


      000000DDH   SFRSYM    DATA     BYTE      T4T3M
      000000C1H   SFRSYM    DATA     BYTE      WDT_CONTR
      000000DFH   SFRSYM    DATA     BYTE      IP3
      000000F4H   SFRSYM    DATA     BYTE      USBCON
      000000B5H   SFRSYM    DATA     BYTE      IP2
      000000FFH   SFRSYM    DATA     BYTE      RSTCFG
      000000C7H   SFRSYM    DATA     BYTE      IAP_CONTR
      000000F9H   SFRSYM    DATA     BYTE      LINICR
      0000008EH   SFRSYM    DATA     BYTE      AUXR
      000000AFH   SFRSYM    DATA     BYTE      IE2
      00000088H   SFRSYM    DATA     BYTE      TCON
      00000089H   SFRSYM    DATA     BYTE      TMOD
      00000098H   SFRSYM    DATA     BYTE      SCON
      000000F1H   SFRSYM    DATA     BYTE      CANICR
      00000087H   SFRSYM    DATA     BYTE      PCON
      000000BCH   SFRSYM    DATA     BYTE      ADC_CONTR
      000000E7H   SFRSYM    DATA     BYTE      CMPCR2
      000000E6H   SFRSYM    DATA     BYTE      CMPCR1
      000000DEH   SFRSYM    DATA     BYTE      ADCCFG
      000000B8H   SFRSYM    DATA     BYTE      IP
      0000008FH   SFRSYM    DATA     BYTE      INTCLKO
      000000EEH   SFRSYM    DATA     BYTE      IP3H
      000000B6H   SFRSYM    DATA     BYTE      IP2H
      000000A8H   SFRSYM    DATA     BYTE      IE
      000000BBH   SFRSYM    DATA     BYTE      P_SW3
      000000BAH   SFRSYM    DATA     BYTE      P_SW2
      000000A2H   SFRSYM    DATA     BYTE      P_SW1
      000000CEH   SFRSYM    DATA     BYTE      SPCTL
      000000F8H   SFRSYM    DATA     BYTE      P7
      000000E8H   SFRSYM    DATA     BYTE      P6
      000000C8H   SFRSYM    DATA     BYTE      P5
      000000C0H   SFRSYM    DATA     BYTE      P4
      000000B0H   SFRSYM    DATA     BYTE      P3
      000000A0H   SFRSYM    DATA     BYTE      P2
      00000090H   SFRSYM    DATA     BYTE      P1
      00000080H   SFRSYM    DATA     BYTE      P0
      00FF6365H   SYMBOL    CODE     ---       my_atan2
      00FF00A6H   SYMBOL    CODE     ---       my_asin
      000107B0H   SYMBOL    XDATA    FLOAT     ex_int
      000107B4H   SYMBOL    XDATA    FLOAT     ey_int
      000107B8H   SYMBOL    XDATA    FLOAT     ez_int

      00FF00A6H   BLOCK     CODE     ---       LVL=0
      DR28        REGSYM    ---      FLOAT     x
      00FF00AAH   BLOCK     CODE     NEAR LAB  LVL=1
      DR16        REGSYM    ---      FLOAT     neg
      DR20        REGSYM    ---      FLOAT     result
      DR24        REGSYM    ---      FLOAT     temp
      ---         BLOCKEND  ---      ---       LVL=1
      00FF00A6H   LINE      CODE     ---       #21
      00FF00AAH   LINE      CODE     ---       #22
      00FF00AAH   LINE      CODE     ---       #25
      00FF00ACH   LINE      CODE     ---       #26
      00FF00B9H   LINE      CODE     ---       #27
      00FF00BBH   LINE      CODE     ---       #28
      00FF00CAH   LINE      CODE     ---       #29
      00FF00CCH   LINE      CODE     ---       #31
      00FF00D5H   LINE      CODE     ---       #33
      00FF00DBH   LINE      CODE     ---       #34
      00FF00E2H   LINE      CODE     ---       #35
      00FF00E2H   LINE      CODE     ---       #38
      00FF00F1H   LINE      CODE     ---       #41
      00FF00FEH   LINE      CODE     ---       #42
      00FF0143H   LINE      CODE     ---       #43
      00FF0145H   LINE      CODE     ---       #46
L251 LINKER/LOCATER V4.66.93.0                                                        01/14/2026  23:11:45  PAGE 118


      00FF014EH   LINE      CODE     ---       #47
      00FF0189H   LINE      CODE     ---       #48
      00FF0189H   LINE      CODE     ---       #50
      00FF018DH   LINE      CODE     ---       #51
      00FF0194H   LINE      CODE     ---       #53
      00FF0196H   LINE      CODE     ---       #54
      ---         BLOCKEND  ---      ---       LVL=0

      00FF6365H   BLOCK     CODE     ---       LVL=0
      DR24        REGSYM    ---      FLOAT     y
      DR28        REGSYM    ---      FLOAT     x
      00FF636BH   BLOCK     CODE     NEAR LAB  LVL=1
      000105D3H   SYMBOL    XDATA    FLOAT     abs_x
      DR12        REGSYM    ---      FLOAT     abs_y
      DR20        REGSYM    ---      FLOAT     angle
      DR16        REGSYM    ---      FLOAT     r
      ---         BLOCKEND  ---      ---       LVL=1
      00FF6365H   LINE      CODE     ---       #63
      00FF636BH   LINE      CODE     ---       #64
      00FF636BH   LINE      CODE     ---       #67
      00FF6377H   LINE      CODE     ---       #68
      00FF637CH   LINE      CODE     ---       #70
      00FF6385H   LINE      CODE     ---       #71
      00FF6391H   LINE      CODE     ---       #73
      00FF63A0H   LINE      CODE     ---       #75
      00FF63A9H   LINE      CODE     ---       #76
      00FF63ADH   LINE      CODE     ---       #78
      00FF63B4H   LINE      CODE     ---       #80
      00FF63C5H   LINE      CODE     ---       #82
      00FF63D6H   LINE      CODE     ---       #83
      00FF6400H   LINE      CODE     ---       #84
      00FF6402H   LINE      CODE     ---       #87
      00FF6413H   LINE      CODE     ---       #88
      00FF6430H   LINE      CODE     ---       #89
      00FF6430H   LINE      CODE     ---       #91
      00FF6439H   LINE      CODE     ---       #92
      00FF6448H   LINE      CODE     ---       #94
      00FF6451H   LINE      CODE     ---       #95
      00FF6458H   LINE      CODE     ---       #97
      00FF645AH   LINE      CODE     ---       #98
      ---         BLOCKEND  ---      ---       LVL=0

      00FF6832H   BLOCK     CODE     ---       LVL=0
      DR28        REGSYM    ---      FLOAT     x
      00FF6834H   BLOCK     CODE     NEAR LAB  LVL=1
      DR4         REGSYM    ---      FLOAT     halfx
      000105DBH   SYMBOL    XDATA    FLOAT     y
      000105DFH   SYMBOL    XDATA    LONG      i
      ---         BLOCKEND  ---      ---       LVL=1
      00FF6832H   LINE      CODE     ---       #107
      00FF6834H   LINE      CODE     ---       #108
      00FF6834H   LINE      CODE     ---       #109
      00FF683FH   LINE      CODE     ---       #110
      00FF6849H   LINE      CODE     ---       #111
      00FF6862H   LINE      CODE     ---       #112
      00FF688BH   LINE      CODE     ---       #113
      00FF68A4H   LINE      CODE     ---       #114
      00FF68D2H   LINE      CODE     ---       #115
      00FF68DCH   LINE      CODE     ---       #116
      ---         BLOCKEND  ---      ---       LVL=0

      00FF75BFH   BLOCK     CODE     ---       LVL=0
      DR28        REGSYM    ---      FLOAT     angle
      00FF75BFH   LINE      CODE     ---       #125
      00FF75C1H   LINE      CODE     ---       #127
L251 LINKER/LOCATER V4.66.93.0                                                        01/14/2026  23:11:45  PAGE 119


      00FF75DDH   LINE      CODE     ---       #129
      00FF75F9H   LINE      CODE     ---       #131
      00FF75FBH   LINE      CODE     ---       #132
      ---         BLOCKEND  ---      ---       LVL=0

      00FF0026H   BLOCK     CODE     ---       LVL=0
      00FF0028H   BLOCK     CODE     NEAR LAB  LVL=1
      R15         REGSYM    ---      BYTE      result
      ---         BLOCKEND  ---      ---       LVL=1
      00FF0026H   LINE      CODE     ---       #141
      00FF0028H   LINE      CODE     ---       #142
      00FF0028H   LINE      CODE     ---       #146
      00FF002DH   LINE      CODE     ---       #148
      00FF0031H   LINE      CODE     ---       #151
      00FF0038H   LINE      CODE     ---       #152
      00FF003BH   LINE      CODE     ---       #155
      00FF003EH   LINE      CODE     ---       #156
      00FF003EH   LINE      CODE     ---       #158
      00FF0040H   LINE      CODE     ---       #159
      ---         BLOCKEND  ---      ---       LVL=0

      00FF6A79H   BLOCK     CODE     ---       LVL=0
      00FF6A79H   LINE      CODE     ---       #168
      00FF6A79H   LINE      CODE     ---       #171
      00FF6A7CH   LINE      CODE     ---       #172
      00FF6A7FH   LINE      CODE     ---       #175
      00FF6A92H   LINE      CODE     ---       #176
      00FF6AA5H   LINE      CODE     ---       #177
      00FF6AB8H   LINE      CODE     ---       #179
      00FF6ACBH   LINE      CODE     ---       #180
      00FF6ADEH   LINE      CODE     ---       #181
      00FF6AF1H   LINE      CODE     ---       #182
      ---         BLOCKEND  ---      ---       LVL=0

      00FF5253H   BLOCK     CODE     ---       LVL=0
      00FF5255H   BLOCK     CODE     NEAR LAB  LVL=1
      DR28        REGSYM    ---      FLOAT     norm
      000105C7H   SYMBOL    XDATA    FLOAT     halfvx
      DR12        REGSYM    ---      FLOAT     halfvy
      DR28        REGSYM    ---      FLOAT     halfvz
      ---         BLOCKEND  ---      ---       LVL=1
      00FF5253H   LINE      CODE     ---       #191
      00FF5255H   LINE      CODE     ---       #192
      00FF5255H   LINE      CODE     ---       #197
      00FF52ADH   LINE      CODE     ---       #198
      00FF52C3H   LINE      CODE     ---       #199
      00FF52D9H   LINE      CODE     ---       #200
      00FF52EFH   LINE      CODE     ---       #204
      00FF5303H   LINE      CODE     ---       #205
      00FF530DH   LINE      CODE     ---       #206
      00FF5317H   LINE      CODE     ---       #209
      00FF5320H   LINE      CODE     ---       #211
      00FF5343H   LINE      CODE     ---       #212
      00FF5356H   LINE      CODE     ---       #213
      00FF5372H   LINE      CODE     ---       #214
      00FF5386H   LINE      CODE     ---       #215
      00FF5388H   LINE      CODE     ---       #218
      00FF53ABH   LINE      CODE     ---       #219
      00FF53BEH   LINE      CODE     ---       #220
      00FF53D7H   LINE      CODE     ---       #221
      00FF53FBH   LINE      CODE     ---       #222
      00FF53FBH   LINE      CODE     ---       #223
      ---         BLOCKEND  ---      ---       LVL=0

      00FF3661H   BLOCK     CODE     ---       LVL=0
L251 LINKER/LOCATER V4.66.93.0                                                        01/14/2026  23:11:45  PAGE 120


      00FF3663H   BLOCK     CODE     NEAR LAB  LVL=1
      DR12        REGSYM    ---      FLOAT     norm
      000105C7H   SYMBOL    XDATA    FLOAT     vx
      DR24        REGSYM    ---      FLOAT     vy
      DR28        REGSYM    ---      FLOAT     vz
      DR16        REGSYM    ---      FLOAT     ex
      DR20        REGSYM    ---      FLOAT     ey
      DR24        REGSYM    ---      FLOAT     ez
      000105CBH   SYMBOL    XDATA    FLOAT     q0_last
      000105CFH   SYMBOL    XDATA    FLOAT     q1_last
      000105D3H   SYMBOL    XDATA    FLOAT     q2_last
      000105D7H   SYMBOL    XDATA    FLOAT     q3_last
      DR24        REGSYM    ---      FLOAT     gx_rad
      DR28        REGSYM    ---      FLOAT     gy_rad
      DR16        REGSYM    ---      FLOAT     gz_rad
      ---         BLOCKEND  ---      ---       LVL=1
      00FF3661H   LINE      CODE     ---       #232
      00FF3663H   LINE      CODE     ---       #233
      00FF3663H   LINE      CODE     ---       #241
      00FF36BBH   LINE      CODE     ---       #242
      00FF36D1H   LINE      CODE     ---       #243
      00FF36E7H   LINE      CODE     ---       #244
      00FF36FDH   LINE      CODE     ---       #247
      00FF3747H   LINE      CODE     ---       #248
      00FF3783H   LINE      CODE     ---       #249
      00FF37F8H   LINE      CODE     ---       #252
      00FF381FH   LINE      CODE     ---       #253
      00FF3850H   LINE      CODE     ---       #254
      00FF3877H   LINE      CODE     ---       #257
      00FF389AH   LINE      CODE     ---       #258
      00FF38B5H   LINE      CODE     ---       #259
      00FF38D0H   LINE      CODE     ---       #262
      00FF38FEH   LINE      CODE     ---       #263
      00FF3926H   LINE      CODE     ---       #264
      00FF394EH   LINE      CODE     ---       #267
      00FF3967H   LINE      CODE     ---       #268
      00FF3978H   LINE      CODE     ---       #269
      00FF3989H   LINE      CODE     ---       #272
      00FF399DH   LINE      CODE     ---       #273
      00FF39B1H   LINE      CODE     ---       #274
      00FF39C5H   LINE      CODE     ---       #275
      00FF39D9H   LINE      CODE     ---       #278
      00FF3A3CH   LINE      CODE     ---       #279
      00FF3A92H   LINE      CODE     ---       #280
      00FF3AE4H   LINE      CODE     ---       #281
      00FF3B38H   LINE      CODE     ---       #284
      00FF3BAEH   LINE      CODE     ---       #286
      00FF3BC4H   LINE      CODE     ---       #287
      00FF3BDAH   LINE      CODE     ---       #288
      00FF3BF0H   LINE      CODE     ---       #289
      00FF3C06H   LINE      CODE     ---       #290
      ---         BLOCKEND  ---      ---       LVL=0

      00FF507BH   BLOCK     CODE     ---       LVL=0
      00FF507DH   BLOCK     CODE     NEAR LAB  LVL=1
      000105C7H   SYMBOL    XDATA    FLOAT     q0
      000105CBH   SYMBOL    XDATA    FLOAT     q1
      DR12        REGSYM    ---      FLOAT     q2
      000105CFH   SYMBOL    XDATA    FLOAT     q3
      ---         BLOCKEND  ---      ---       LVL=1
      00FF507BH   LINE      CODE     ---       #299
      00FF507DH   LINE      CODE     ---       #300
      00FF507DH   LINE      CODE     ---       #303
      00FF5091H   LINE      CODE     ---       #304
      00FF50A5H   LINE      CODE     ---       #305
L251 LINKER/LOCATER V4.66.93.0                                                        01/14/2026  23:11:45  PAGE 121


      00FF50AFH   LINE      CODE     ---       #306
      00FF50C3H   LINE      CODE     ---       #309
      00FF5140H   LINE      CODE     ---       #312
      00FF518EH   LINE      CODE     ---       #315
      00FF520BH   LINE      CODE     ---       #318
      00FF5222H   LINE      CODE     ---       #319
      00FF5239H   LINE      CODE     ---       #320
      00FF5250H   LINE      CODE     ---       #321
      ---         BLOCKEND  ---      ---       LVL=0

      00FF01AEH   BLOCK     CODE     ---       LVL=0
      00FF01AEH   LINE      CODE     ---       #330
      00FF01AEH   LINE      CODE     ---       #333
      00FF01B1H   LINE      CODE     ---       #336
      00FF01B4H   LINE      CODE     ---       #339
      ---         BLOCKEND  ---      ---       LVL=0

      ---         MODULE    ---      ---       isr
      00FF68DDH   PUBLIC    CODE     ---       DMA_UART1_IRQHandler
      00FF6AF2H   PUBLIC    CODE     ---       DMA_UART2_IRQHandler
      00FF6B6BH   PUBLIC    CODE     ---       DMA_UART3_IRQHandler
      00FF6BE4H   PUBLIC    CODE     ---       DMA_UART4_IRQHandler
      00FF7489H   PUBLIC    CODE     ---       TM0_IRQHandler
      00FF74C7H   PUBLIC    CODE     ---       TM1_IRQHandler
      00FF7505H   PUBLIC    CODE     ---       TM2_IRQHandler
      00FF7543H   PUBLIC    CODE     ---       TM3_IRQHandler
      00FF7581H   PUBLIC    CODE     ---       TM4_IRQHandler
      000000D0H   SFRSYM    DATA     BYTE      PSW
      0000009DH   SFRSYM    DATA     BYTE      IRCBAND
      00000097H   SFRSYM    DATA     BYTE      AUXR2
      000000EFH   SFRSYM    DATA     BYTE      AUXINTIF
      000000FDH   SFRSYM    DATA     BYTE      S4CON
      000000ACH   SFRSYM    DATA     BYTE      S3CON
      0000009AH   SFRSYM    DATA     BYTE      S2CON
      000000B7H   SFRSYM    DATA     BYTE      IPH
      000000CDH   SFRSYM    DATA     BYTE      SPSTAT
      000000DDH   SFRSYM    DATA     BYTE      T4T3M
      000000C1H   SFRSYM    DATA     BYTE      WDT_CONTR
      000000DFH   SFRSYM    DATA     BYTE      IP3
      000000F4H   SFRSYM    DATA     BYTE      USBCON
      000000B5H   SFRSYM    DATA     BYTE      IP2
      000000FFH   SFRSYM    DATA     BYTE      RSTCFG
      000000C7H   SFRSYM    DATA     BYTE      IAP_CONTR
      000000F9H   SFRSYM    DATA     BYTE      LINICR
      0000008EH   SFRSYM    DATA     BYTE      AUXR
      000000AFH   SFRSYM    DATA     BYTE      IE2
      00000088H   SFRSYM    DATA     BYTE      TCON
      00000089H   SFRSYM    DATA     BYTE      TMOD
      00000098H   SFRSYM    DATA     BYTE      SCON
      000000F1H   SFRSYM    DATA     BYTE      CANICR
      00000087H   SFRSYM    DATA     BYTE      PCON
      000000BCH   SFRSYM    DATA     BYTE      ADC_CONTR
      000000E7H   SFRSYM    DATA     BYTE      CMPCR2
      000000E6H   SFRSYM    DATA     BYTE      CMPCR1
      000000DEH   SFRSYM    DATA     BYTE      ADCCFG
      000000B8H   SFRSYM    DATA     BYTE      IP
      0000008FH   SFRSYM    DATA     BYTE      INTCLKO
      000000EEH   SFRSYM    DATA     BYTE      IP3H
      000000B6H   SFRSYM    DATA     BYTE      IP2H
      000000A8H   SFRSYM    DATA     BYTE      IE
      000000BBH   SFRSYM    DATA     BYTE      P_SW3
      000000BAH   SFRSYM    DATA     BYTE      P_SW2
      000000A2H   SFRSYM    DATA     BYTE      P_SW1
      000000CEH   SFRSYM    DATA     BYTE      SPCTL
      000000F8H   SFRSYM    DATA     BYTE      P7
L251 LINKER/LOCATER V4.66.93.0                                                        01/14/2026  23:11:45  PAGE 122


      000000E8H   SFRSYM    DATA     BYTE      P6
      000000C8H   SFRSYM    DATA     BYTE      P5
      000000C0H   SFRSYM    DATA     BYTE      P4
      000000B0H   SFRSYM    DATA     BYTE      P3
      000000A0H   SFRSYM    DATA     BYTE      P2
      00000090H   SFRSYM    DATA     BYTE      P1
      00000080H   SFRSYM    DATA     BYTE      P0

      00FF68DDH   BLOCK     CODE     ---       LVL=0
      00FF68F1H   BLOCK     CODE     NEAR LAB  LVL=1
      00010968H   SYMBOL    XDATA    BYTE      dwon_count
      ---         BLOCKEND  ---      ---       LVL=1
      00FF68DDH   LINE      CODE     ---       #38
      00FF68F1H   LINE      CODE     ---       #39
      00FF68F1H   LINE      CODE     ---       #42
      00FF68FFH   LINE      CODE     ---       #44
      00FF6907H   LINE      CODE     ---       #45
      00FF690CH   LINE      CODE     ---       #48
      00FF6917H   LINE      CODE     ---       #50
      00FF6926H   LINE      CODE     ---       #52
      00FF6929H   LINE      CODE     ---       #53
      00FF692BH   LINE      CODE     ---       #57
      00FF6930H   LINE      CODE     ---       #58
      00FF6930H   LINE      CODE     ---       #60
      00FF693AH   LINE      CODE     ---       #62
      00FF6944H   LINE      CODE     ---       #63
      00FF6944H   LINE      CODE     ---       #66
      00FF6952H   LINE      CODE     ---       #68
      00FF695AH   LINE      CODE     ---       #69
      00FF695FH   LINE      CODE     ---       #73
      ---         BLOCKEND  ---      ---       LVL=0

      00FF6AF2H   BLOCK     CODE     ---       LVL=0
      00FF6AF2H   LINE      CODE     ---       #76
      00FF6B06H   LINE      CODE     ---       #78
      00FF6B14H   LINE      CODE     ---       #80
      00FF6B1CH   LINE      CODE     ---       #81
      00FF6B23H   LINE      CODE     ---       #83
      00FF6B2DH   LINE      CODE     ---       #85
      00FF6B39H   LINE      CODE     ---       #86
      00FF6B39H   LINE      CODE     ---       #89
      00FF6B47H   LINE      CODE     ---       #91
      00FF6B4FH   LINE      CODE     ---       #92
      00FF6B56H   LINE      CODE     ---       #96
      ---         BLOCKEND  ---      ---       LVL=0

      00FF6B6BH   BLOCK     CODE     ---       LVL=0
      00FF6B6BH   LINE      CODE     ---       #99
      00FF6B7FH   LINE      CODE     ---       #101
      00FF6B8DH   LINE      CODE     ---       #103
      00FF6B95H   LINE      CODE     ---       #104
      00FF6B9CH   LINE      CODE     ---       #106
      00FF6BA6H   LINE      CODE     ---       #108
      00FF6BB2H   LINE      CODE     ---       #109
      00FF6BB2H   LINE      CODE     ---       #112
      00FF6BC0H   LINE      CODE     ---       #114
      00FF6BC8H   LINE      CODE     ---       #115
      00FF6BCFH   LINE      CODE     ---       #119
      ---         BLOCKEND  ---      ---       LVL=0

      00FF6BE4H   BLOCK     CODE     ---       LVL=0
      00FF6BE4H   LINE      CODE     ---       #122
      00FF6BF8H   LINE      CODE     ---       #124
      00FF6C06H   LINE      CODE     ---       #126
      00FF6C0EH   LINE      CODE     ---       #127
L251 LINKER/LOCATER V4.66.93.0                                                        01/14/2026  23:11:45  PAGE 123


      00FF6C15H   LINE      CODE     ---       #129
      00FF6C1FH   LINE      CODE     ---       #131
      00FF6C2BH   LINE      CODE     ---       #132
      00FF6C2BH   LINE      CODE     ---       #135
      00FF6C39H   LINE      CODE     ---       #137
      00FF6C41H   LINE      CODE     ---       #138
      00FF6C48H   LINE      CODE     ---       #142
      ---         BLOCKEND  ---      ---       LVL=0

      00FF7489H   BLOCK     CODE     ---       LVL=0
      00FF7489H   LINE      CODE     ---       #145
      00FF749DH   LINE      CODE     ---       #147
      00FF74A0H   LINE      CODE     ---       #149
      00FF74AAH   LINE      CODE     ---       #151
      00FF74B2H   LINE      CODE     ---       #152
      ---         BLOCKEND  ---      ---       LVL=0

      00FF74C7H   BLOCK     CODE     ---       LVL=0
      00FF74C7H   LINE      CODE     ---       #155
      00FF74DBH   LINE      CODE     ---       #157
      00FF74DEH   LINE      CODE     ---       #159
      00FF74E8H   LINE      CODE     ---       #161
      00FF74F0H   LINE      CODE     ---       #162
      ---         BLOCKEND  ---      ---       LVL=0

      00FF7505H   BLOCK     CODE     ---       LVL=0
      00FF7505H   LINE      CODE     ---       #165
      00FF7519H   LINE      CODE     ---       #167
      00FF751CH   LINE      CODE     ---       #169
      00FF7526H   LINE      CODE     ---       #171
      00FF752EH   LINE      CODE     ---       #172
      ---         BLOCKEND  ---      ---       LVL=0

      00FF7543H   BLOCK     CODE     ---       LVL=0
      00FF7543H   LINE      CODE     ---       #175
      00FF7557H   LINE      CODE     ---       #177
      00FF755AH   LINE      CODE     ---       #179
      00FF7564H   LINE      CODE     ---       #181
      00FF756CH   LINE      CODE     ---       #182
      ---         BLOCKEND  ---      ---       LVL=0

      00FF7581H   BLOCK     CODE     ---       LVL=0
      00FF7581H   LINE      CODE     ---       #185
      00FF7595H   LINE      CODE     ---       #187
      00FF7598H   LINE      CODE     ---       #189
      00FF75A2H   LINE      CODE     ---       #191
      00FF75AAH   LINE      CODE     ---       #192
      ---         BLOCKEND  ---      ---       LVL=0

      ---         MODULE    ---      ---       main
      00FF7738H   PUBLIC    CODE     ---       pit_handler_1
      00FF0096H   PUBLIC    CODE     ---       pit_handler_2
      00FF7853H   PUBLIC    CODE     ---       main
      00FF5F54H   PUBLIC    CODE     ---       _m
      0001091AH   PUBLIC    XDATA    FLOAT     right_target
      0001091EH   PUBLIC    XDATA    FLOAT     left_target
      00010922H   PUBLIC    XDATA    BYTE      imu_state
      000000D0H   SFRSYM    DATA     BYTE      PSW
      0000009DH   SFRSYM    DATA     BYTE      IRCBAND
      00000097H   SFRSYM    DATA     BYTE      AUXR2
      000000EFH   SFRSYM    DATA     BYTE      AUXINTIF
      000000FDH   SFRSYM    DATA     BYTE      S4CON
      000000ACH   SFRSYM    DATA     BYTE      S3CON
      0000009AH   SFRSYM    DATA     BYTE      S2CON
      000000B7H   SFRSYM    DATA     BYTE      IPH
L251 LINKER/LOCATER V4.66.93.0                                                        01/14/2026  23:11:45  PAGE 124


      000000CDH   SFRSYM    DATA     BYTE      SPSTAT
      000000DDH   SFRSYM    DATA     BYTE      T4T3M
      000000C1H   SFRSYM    DATA     BYTE      WDT_CONTR
      000000DFH   SFRSYM    DATA     BYTE      IP3
      000000F4H   SFRSYM    DATA     BYTE      USBCON
      000000B5H   SFRSYM    DATA     BYTE      IP2
      000000FFH   SFRSYM    DATA     BYTE      RSTCFG
      000000C7H   SFRSYM    DATA     BYTE      IAP_CONTR
      000000F9H   SFRSYM    DATA     BYTE      LINICR
      0000008EH   SFRSYM    DATA     BYTE      AUXR
      000000AFH   SFRSYM    DATA     BYTE      IE2
      00000088H   SFRSYM    DATA     BYTE      TCON
      00000089H   SFRSYM    DATA     BYTE      TMOD
      00000098H   SFRSYM    DATA     BYTE      SCON
      000000F1H   SFRSYM    DATA     BYTE      CANICR
      00000087H   SFRSYM    DATA     BYTE      PCON
      000000BCH   SFRSYM    DATA     BYTE      ADC_CONTR
      000000E7H   SFRSYM    DATA     BYTE      CMPCR2
      000000E6H   SFRSYM    DATA     BYTE      CMPCR1
      000000DEH   SFRSYM    DATA     BYTE      ADCCFG
      000000B8H   SFRSYM    DATA     BYTE      IP
      0000008FH   SFRSYM    DATA     BYTE      INTCLKO
      000000EEH   SFRSYM    DATA     BYTE      IP3H
      000000B6H   SFRSYM    DATA     BYTE      IP2H
      000000A8H   SFRSYM    DATA     BYTE      IE
      000000BBH   SFRSYM    DATA     BYTE      P_SW3
      000000BAH   SFRSYM    DATA     BYTE      P_SW2
      000000A2H   SFRSYM    DATA     BYTE      P_SW1
      000000CEH   SFRSYM    DATA     BYTE      SPCTL
      000000F8H   SFRSYM    DATA     BYTE      P7
      000000E8H   SFRSYM    DATA     BYTE      P6
      000000C8H   SFRSYM    DATA     BYTE      P5
      000000C0H   SFRSYM    DATA     BYTE      P4
      000000B0H   SFRSYM    DATA     BYTE      P3
      000000A0H   SFRSYM    DATA     BYTE      P2
      00000090H   SFRSYM    DATA     BYTE      P1
      00000080H   SFRSYM    DATA     BYTE      P0

      00FF7853H   BLOCK     CODE     ---       LVL=0
      00FF7853H   LINE      CODE     ---       #49
      ---         BLOCKEND  ---      ---       LVL=0

      00FF5F54H   BLOCK     CODE     ---       LVL=0
      00FF5F54H   LINE      CODE     ---       #49
      00FF5F54H   LINE      CODE     ---       #51
      00FF5F5FH   LINE      CODE     ---       #52
      00FF5F62H   LINE      CODE     ---       #54
      00FF5F65H   LINE      CODE     ---       #55
      00FF5F68H   LINE      CODE     ---       #56
      00FF5F6BH   LINE      CODE     ---       #57
      00FF5F6EH   LINE      CODE     ---       #58
      00FF5F71H   LINE      CODE     ---       #61
      00FF5F78H   LINE      CODE     ---       #62
      00FF5F7AH   LINE      CODE     ---       #64
      00FF5F82H   LINE      CODE     ---       #65
      00FF5F84H   LINE      CODE     ---       #68
      00FF5F8FH   LINE      CODE     ---       #69
      00FF5F8FH   LINE      CODE     ---       #91
      00FF5F99H   LINE      CODE     ---       #92
      00FF5FA3H   LINE      CODE     ---       #94
      00FF5FC8H   LINE      CODE     ---       #95
      00FF5FEDH   LINE      CODE     ---       #97
      00FF5FEDH   LINE      CODE     ---       #101
      00FF6010H   LINE      CODE     ---       #104
      00FF6057H   LINE      CODE     ---       #108
L251 LINKER/LOCATER V4.66.93.0                                                        01/14/2026  23:11:45  PAGE 125


      00FF605EH   LINE      CODE     ---       #109
      ---         BLOCKEND  ---      ---       LVL=0

      00FF7738H   BLOCK     CODE     ---       LVL=0
      00FF7738H   LINE      CODE     ---       #117
      00FF7738H   LINE      CODE     ---       #120
      00FF7743H   LINE      CODE     ---       #121
      00FF7750H   LINE      CODE     ---       #124
      00FF7759H   LINE      CODE     ---       #126
      00FF775EH   LINE      CODE     ---       #127
      ---         BLOCKEND  ---      ---       LVL=0

      00FF0096H   BLOCK     CODE     ---       LVL=0
      00FF0096H   LINE      CODE     ---       #138
      00FF0096H   LINE      CODE     ---       #140
      ---         BLOCKEND  ---      ---       LVL=0

      ---         MODULE    ---      ---       ?C?FPADD
      00FF21D4H   PUBLIC    CODE     ---       ?C?FPADD
      00FF21D1H   PUBLIC    CODE     ---       ?C?FPSUB

      ---         MODULE    ---      ---       ?C?FPMUL
      00FF228CH   PUBLIC    CODE     ---       ?C?FPMUL

      ---         MODULE    ---      ---       ?C?FPDIV
      00FF232CH   PUBLIC    CODE     ---       ?C?FPDIV

      ---         MODULE    ---      ---       ?C?FPCMP
      00FF23AFH   PUBLIC    CODE     ---       ?C?FPCMP
      00FF23ADH   PUBLIC    CODE     ---       ?C?FPCMP3

      ---         MODULE    ---      ---       ?C?FPNEG
      00FF23F3H   PUBLIC    CODE     ---       ?C?FPNEG

      ---         MODULE    ---      ---       ?C?FCAST
      00FF240BH   PUBLIC    CODE     NEAR LAB  ?C?FCASTC
      00FF2406H   PUBLIC    CODE     NEAR LAB  ?C?FCASTI
      00FF2401H   PUBLIC    CODE     NEAR LAB  ?C?FCASTL

      ---         MODULE    ---      ---       ?C?CASTF
      00FF243EH   PUBLIC    CODE     NEAR LAB  ?C?CASTF

      ---         MODULE    ---      ---       PRINTF
      00010615H   PUBLIC    XDATA    ---       ?PRINTF?BYTE
      00FF247BH   PUBLIC    CODE     NEAR LAB  PRINTF

      ---         MODULE    ---      ---       SPRINTF
      000105EFH   PUBLIC    XDATA    ---       ?SPRINTF?BYTE
      00FF24A7H   PUBLIC    CODE     NEAR LAB  SPRINTF

      ---         MODULE    ---      ---       SQRT?_
      00FF24C7H   PUBLIC    CODE     ---       SQRT?_

      ---         MODULE    ---      ---       pow

      ---         MODULE    ---      ---       SIN?_
      00FF259FH   PUBLIC    CODE     ---       COS?_
      00FF25BCH   PUBLIC    CODE     ---       SIN?_
      00FF25E9H   PUBLIC    CODE     ---       TAN?_

      ---         MODULE    ---      ---       ATAN?_
      00FF26AFH   PUBLIC    CODE     ---       ATAN?_

      ---         MODULE    ---      ---       ASIN?_
      00FF2781H   PUBLIC    CODE     ---       ASIN?_
L251 LINKER/LOCATER V4.66.93.0                                                        01/14/2026  23:11:45  PAGE 126



      ---         MODULE    ---      ---       ?C?FPGETOPN
      00FF27A1H   PUBLIC    CODE     ---       ?C?FPGETOPN2
      00FF27DEH   PUBLIC    CODE     ---       ?C?FPNANRESULT
      00FF27E6H   PUBLIC    CODE     ---       ?C?FPOVERFLOW
      00FF27BAH   PUBLIC    CODE     ---       ?C?FPRESULT
      00FF27D0H   PUBLIC    CODE     ---       ?C?FPRESULT2
      00FF27E3H   PUBLIC    CODE     ---       ?C?FPUNDERFLOW

      ---         MODULE    ---      ---       _CHKFLOAT_?_
      00FF27F2H   PUBLIC    CODE     ---       _CHKFLOAT_?_

      ---         MODULE    ---      ---       ?C?PRNFMT
      00FF283CH   PUBLIC    CODE     ---       ?C?PRNFMT

      ---         MODULE    ---      ---       ?C?FPSERIES
      00FF2C4BH   PUBLIC    CODE     ---       ?C?FP2SERIES
      00FF2C54H   PUBLIC    CODE     ---       ?C?FPSERIES

      ---         MODULE    ---      ---       EXP?_
      00FF2CB1H   PUBLIC    CODE     ---       EXP?_

      ---         MODULE    ---      ---       LOG?_
      00FF2D40H   PUBLIC    CODE     NEAR LAB  LOG?_

      ---         MODULE    ---      ---       ?C?FPCONVERT
      00FF2E13H   PUBLIC    CODE     ---       ?C?FPCONVERT
      00FF2ECBH   PUBLIC    CODE     ---       ?C?FPROUND

      ---         MODULE    ---      ---       ?C?FTNPWR
      00FF2F3EH   PUBLIC    CODE     ---       ?C?FTNPWR

      ---         MODULE    ---      ---       ?C?INITHDATA
      00FF7214H   PUBLIC    CODE     ---       ?C?INITHDATA

      ---         MODULE    ---      ---       ?C?SIDIV
      00FF2F75H   PUBLIC    CODE     ---       ?C?SIDIV

      ---         MODULE    ---      ---       ?C?LMUL
      00FF2FA7H   PUBLIC    CODE     ---       ?C?LMUL

      ---         MODULE    ---      ---       ?C?LIMUL
      00FF2FB8H   PUBLIC    CODE     ---       ?C?LIMUL

      ---         MODULE    ---      ---       ?C?ULDIV
      00FF2FC3H   PUBLIC    CODE     NEAR LAB  ?C?ULDIV
      00FF2FC1H   PUBLIC    CODE     NEAR LAB  ?C?ULIDIV

      ---         MODULE    ---      ---       ?C?SLDIV
      00FF3014H   PUBLIC    CODE     NEAR LAB  ?C?SLDIV

      ---         MODULE    ---      ---       ?C?BMOVEPP
      00FF304AH   PUBLIC    CODE     ---       ?C?BMOVEPP
      00FF3048H   PUBLIC    CODE     ---       ?C?BMOVEPP8

      ---         MODULE    ---      ---       ABS
      00FF7986H   PUBLIC    CODE     ---       abs?_

      ---         MODULE    ---      ---       STRNCMP

      ---         MODULE    ---      ---       STRNCPY

      ---         MODULE    ---      ---       STRLEN

      ---         MODULE    ---      ---       STRCHR
L251 LINKER/LOCATER V4.66.93.0                                                        01/14/2026  23:11:45  PAGE 127



      ---         MODULE    ---      ---       memcpy
      00FF782EH   PUBLIC    CODE     ---       memcpy?_

      ---         MODULE    ---      ---       memset

      ---         MODULE    ---      ---       ?C?INITHDATA_END
      00FF7E6CH   PUBLIC    HCONST   WORD      ?C?INITHDATA_END

Program Size: data=8.0 edata+hdata=2048 xdata=2409 const=4020 code=31122
L251 RUN COMPLETE.  0 WARNING(S),  0 ERROR(S)
