L251 LINKER/LOCATER V4.66.93.0                                                          01/24/2026  18:53:03  PAGE 1


L251 LINKER/LOCATER V4.66.93.0, INVOKED BY:
E:\TOOLS\KEIL5\KEIL_V5\C251\BIN\L251.EXE .\out_file\START251.obj, .\out_file\stc32g_isr.obj, .\out_file\zf_common_clock.
>> obj, .\out_file\zf_common_debug.obj, .\out_file\zf_common_fifo.obj, .\out_file\zf_common_font.obj, .\out_file\zf_comm
>> on_function.obj, .\out_file\zf_common_typedef.obj, .\out_file\zf_common_interrupt.obj, .\out_file\zf_driver_adc.obj, 
>> .\out_file\zf_driver_delay.obj, .\out_file\zf_driver_eeprom.obj, .\out_file\zf_driver_encoder.obj, .\out_file\zf_driv
>> er_exti.obj, .\out_file\zf_driver_gpio.obj, .\out_file\zf_driver_pit.obj, .\out_file\zf_driver_pwm.obj, .\out_file\zf
>> _driver_soft_iic.obj, .\out_file\zf_driver_soft_spi.obj, .\out_file\zf_driver_spi.obj, .\out_file\zf_driver_timer.obj
>> , .\out_file\zf_driver_uart.obj, .\out_file\zf_device_ble6a20.obj, .\out_file\zf_device_config.obj, .\out_file\zf_dev
>> ice_dl1a.obj, .\out_file\zf_device_dl1b.obj, .\out_file\zf_device_gps_tau1201.obj, .\out_file\zf_device_icm20602.obj,
>>  .\out_file\zf_device_imu660ra.obj, .\out_file\zf_device_imu660rb.obj, .\out_file\zf_device_imu963ra.obj, .\out_file\
>> zf_device_ips114.obj, .\out_file\zf_device_ips200.obj, .\out_file\zf_device_ips200pro.obj, .\out_file\zf_device_tft18
>> 0.obj, .\out_file\zf_device_tsl1401.obj, .\out_file\zf_device_type.obj, .\out_file\zf_device_wireless_uart.obj, .\out
>> _file\seekfree_assistant.obj, .\out_file\seekfree_assistant_interface.obj, .\out_file\motor.obj, .\out_file\key.obj, 
>> .\out_file\adc.obj, .\out_file\uart.obj, .\out_file\pid.obj, .\out_file\encoder.obj, .\out_file\normalization.obj, .\
>> out_file\control.obj, .\out_file\IMU.obj, .\out_file\task.obj, .\out_file\isr.obj, .\out_file\main.obj TO .\out_file\
>> SEEKFREE PRINT (.\out_file\SEEKFREE.map) CASE DISABLEWARNING (57, 16) REMOVEUNUSED CLASSES (EDATA (0X0-0XFFF), HDATA 
>> (0X0-0XFFF))


CPU MODE:     251 SOURCE MODE
INTR FRAME:   4 BYTES SAVED ON INTERRUPT
MEMORY MODEL: LARGE WITH FLOATING POINT ARITHMETIC


INPUT MODULES INCLUDED:
  .\out_file\START251.obj (?C_START)
         COMMENT TYPE 0: A251 V4.69.13.0
  .\out_file\stc32g_isr.obj (stc32g_isr)
         COMMENT TYPE 0: A251 V4.69.13.0
  .\out_file\zf_common_clock.obj (zf_common_clock)
         COMMENT TYPE 0: C251 V5.60.0
  .\out_file\zf_common_debug.obj (zf_common_debug)
         COMMENT TYPE 0: C251 V5.60.0
  .\out_file\zf_common_fifo.obj (zf_common_fifo)
         COMMENT TYPE 0: C251 V5.60.0
  .\out_file\zf_common_font.obj (zf_common_font)
         COMMENT TYPE 0: C251 V5.60.0
  .\out_file\zf_common_function.obj (zf_common_function)
         COMMENT TYPE 0: C251 V5.60.0
  .\out_file\zf_common_typedef.obj (zf_common_typedef)
         COMMENT TYPE 0: C251 V5.60.0
  .\out_file\zf_common_interrupt.obj (zf_common_interrupt)
         COMMENT TYPE 0: C251 V5.60.0
  .\out_file\zf_driver_adc.obj (zf_driver_adc)
         COMMENT TYPE 0: C251 V5.60.0
  .\out_file\zf_driver_delay.obj (zf_driver_delay)
         COMMENT TYPE 0: C251 V5.60.0
  .\out_file\zf_driver_eeprom.obj (zf_driver_eeprom)
         COMMENT TYPE 0: C251 V5.60.0
  .\out_file\zf_driver_encoder.obj (zf_driver_encoder)
         COMMENT TYPE 0: C251 V5.60.0
  .\out_file\zf_driver_exti.obj (zf_driver_exti)
         COMMENT TYPE 0: C251 V5.60.0
  .\out_file\zf_driver_gpio.obj (zf_driver_gpio)
         COMMENT TYPE 0: C251 V5.60.0
  .\out_file\zf_driver_pit.obj (zf_driver_pit)
         COMMENT TYPE 0: C251 V5.60.0
  .\out_file\zf_driver_pwm.obj (zf_driver_pwm)
         COMMENT TYPE 0: C251 V5.60.0
  .\out_file\zf_driver_soft_iic.obj (zf_driver_soft_iic)
         COMMENT TYPE 0: C251 V5.60.0
  .\out_file\zf_driver_soft_spi.obj (zf_driver_soft_spi)
         COMMENT TYPE 0: C251 V5.60.0
  .\out_file\zf_driver_spi.obj (zf_driver_spi)
         COMMENT TYPE 0: C251 V5.60.0
  .\out_file\zf_driver_timer.obj (zf_driver_timer)
L251 LINKER/LOCATER V4.66.93.0                                                        01/24/2026  18:53:03  PAGE 2


         COMMENT TYPE 0: C251 V5.60.0
  .\out_file\zf_driver_uart.obj (zf_driver_uart)
         COMMENT TYPE 0: C251 V5.60.0
  .\out_file\zf_device_ble6a20.obj (zf_device_ble6a20)
         COMMENT TYPE 0: C251 V5.60.0
  .\out_file\zf_device_config.obj (zf_device_config)
         COMMENT TYPE 0: C251 V5.60.0
  .\out_file\zf_device_dl1a.obj (zf_device_dl1a)
         COMMENT TYPE 0: C251 V5.60.0
  .\out_file\zf_device_dl1b.obj (zf_device_dl1b)
         COMMENT TYPE 0: C251 V5.60.0
  .\out_file\zf_device_gps_tau1201.obj (zf_device_gps_tau1201)
         COMMENT TYPE 0: C251 V5.60.0
  .\out_file\zf_device_icm20602.obj (zf_device_icm20602)
         COMMENT TYPE 0: C251 V5.60.0
  .\out_file\zf_device_imu660ra.obj (zf_device_imu660ra)
         COMMENT TYPE 0: C251 V5.60.0
  .\out_file\zf_device_imu660rb.obj (zf_device_imu660rb)
         COMMENT TYPE 0: C251 V5.60.0
  .\out_file\zf_device_imu963ra.obj (zf_device_imu963ra)
         COMMENT TYPE 0: C251 V5.60.0
  .\out_file\zf_device_ips114.obj (zf_device_ips114)
         COMMENT TYPE 0: C251 V5.60.0
  .\out_file\zf_device_ips200.obj (zf_device_ips200)
         COMMENT TYPE 0: C251 V5.60.0
  .\out_file\zf_device_ips200pro.obj (zf_device_ips200pro)
         COMMENT TYPE 0: C251 V5.60.0
  .\out_file\zf_device_tft180.obj (zf_device_tft180)
         COMMENT TYPE 0: C251 V5.60.0
  .\out_file\zf_device_tsl1401.obj (zf_device_tsl1401)
         COMMENT TYPE 0: C251 V5.60.0
  .\out_file\zf_device_type.obj (zf_device_type)
         COMMENT TYPE 0: C251 V5.60.0
  .\out_file\zf_device_wireless_uart.obj (zf_device_wireless_uart)
         COMMENT TYPE 0: C251 V5.60.0
  .\out_file\seekfree_assistant.obj (seekfree_assistant)
         COMMENT TYPE 0: C251 V5.60.0
  .\out_file\seekfree_assistant_interface.obj (seekfree_assistant_interface)
         COMMENT TYPE 0: C251 V5.60.0
  .\out_file\motor.obj (motor)
         COMMENT TYPE 0: C251 V5.60.0
  .\out_file\key.obj (key)
         COMMENT TYPE 0: C251 V5.60.0
  .\out_file\adc.obj (adc)
         COMMENT TYPE 0: C251 V5.60.0
  .\out_file\uart.obj (uart)
         COMMENT TYPE 0: C251 V5.60.0
  .\out_file\pid.obj (pid)
         COMMENT TYPE 0: C251 V5.60.0
  .\out_file\encoder.obj (encoder)
         COMMENT TYPE 0: C251 V5.60.0
  .\out_file\normalization.obj (normalization)
         COMMENT TYPE 0: C251 V5.60.0
  .\out_file\control.obj (control)
         COMMENT TYPE 0: C251 V5.60.0
  .\out_file\IMU.obj (IMU)
         COMMENT TYPE 0: C251 V5.60.0
  .\out_file\task.obj (task)
         COMMENT TYPE 0: C251 V5.60.0
  .\out_file\isr.obj (isr)
         COMMENT TYPE 0: C251 V5.60.0
  .\out_file\main.obj (main)
         COMMENT TYPE 0: C251 V5.60.0
  E:\TOOLS\KEIL5\KEIL_V5\C251\LIB\C2SFPL.LIB (?C?FPADD)
         COMMENT TYPE 0: A251 V4.69.6.0
L251 LINKER/LOCATER V4.66.93.0                                                        01/24/2026  18:53:03  PAGE 3


  E:\TOOLS\KEIL5\KEIL_V5\C251\LIB\C2SFPL.LIB (?C?FPMUL)
         COMMENT TYPE 0: A251 V4.69.6.0
  E:\TOOLS\KEIL5\KEIL_V5\C251\LIB\C2SFPL.LIB (?C?FPDIV)
         COMMENT TYPE 0: A251 V4.69.6.0
  E:\TOOLS\KEIL5\KEIL_V5\C251\LIB\C2SFPL.LIB (?C?FPCMP)
         COMMENT TYPE 0: A251 V4.69.6.0
  E:\TOOLS\KEIL5\KEIL_V5\C251\LIB\C2SFPL.LIB (?C?FPNEG)
         COMMENT TYPE 0: A251 V4.69.6.0
  E:\TOOLS\KEIL5\KEIL_V5\C251\LIB\C2SFPL.LIB (?C?FCAST)
         COMMENT TYPE 0: A251 V4.69.6.0
  E:\TOOLS\KEIL5\KEIL_V5\C251\LIB\C2SFPL.LIB (?C?CASTF)
         COMMENT TYPE 0: A251 V4.69.6.0
  E:\TOOLS\KEIL5\KEIL_V5\C251\LIB\C2SFPL.LIB (PRINTF)
         COMMENT TYPE 0: A251 V4.69.6.0
  E:\TOOLS\KEIL5\KEIL_V5\C251\LIB\C2SFPL.LIB (SPRINTF)
         COMMENT TYPE 0: A251 V4.69.6.0
  E:\TOOLS\KEIL5\KEIL_V5\C251\LIB\C2SFPL.LIB (SQRT?_)
         COMMENT TYPE 0: A251 V4.69.6.0
  E:\TOOLS\KEIL5\KEIL_V5\C251\LIB\C2SFPL.LIB (pow)
         COMMENT TYPE 0: C251 V5.58.7
  E:\TOOLS\KEIL5\KEIL_V5\C251\LIB\C2SFPL.LIB (SIN?_)
         COMMENT TYPE 0: A251 V4.69.6.0
  E:\TOOLS\KEIL5\KEIL_V5\C251\LIB\C2SFPL.LIB (ATAN?_)
         COMMENT TYPE 0: A251 V4.69.6.0
  E:\TOOLS\KEIL5\KEIL_V5\C251\LIB\C2SFPL.LIB (ASIN?_)
         COMMENT TYPE 0: A251 V4.69.6.0
  E:\TOOLS\KEIL5\KEIL_V5\C251\LIB\C2SFPL.LIB (?C?FPGETOPN)
         COMMENT TYPE 0: A251 V4.69.6.0
  E:\TOOLS\KEIL5\KEIL_V5\C251\LIB\C2SFPL.LIB (_CHKFLOAT_?_)
         COMMENT TYPE 0: A251 V4.69.6.0
  E:\TOOLS\KEIL5\KEIL_V5\C251\LIB\C2SFPL.LIB (?C?PRNFMT)
         COMMENT TYPE 0: A251 V4.69.6.0
  E:\TOOLS\KEIL5\KEIL_V5\C251\LIB\C2SFPL.LIB (?C?FPSERIES)
         COMMENT TYPE 0: A251 V4.69.6.0
  E:\TOOLS\KEIL5\KEIL_V5\C251\LIB\C2SFPL.LIB (EXP?_)
         COMMENT TYPE 0: A251 V4.69.6.0
  E:\TOOLS\KEIL5\KEIL_V5\C251\LIB\C2SFPL.LIB (LOG?_)
         COMMENT TYPE 0: A251 V4.69.6.0
  E:\TOOLS\KEIL5\KEIL_V5\C251\LIB\C2SFPL.LIB (?C?FPCONVERT)
         COMMENT TYPE 0: A251 V4.69.6.0
  E:\TOOLS\KEIL5\KEIL_V5\C251\LIB\C2SFPL.LIB (?C?FTNPWR)
         COMMENT TYPE 0: A251 V4.69.6.0
  E:\TOOLS\KEIL5\KEIL_V5\C251\LIB\C2SL.LIB (?C?INITHDATA)
         COMMENT TYPE 0: A251 V4.69.6.0
  E:\TOOLS\KEIL5\KEIL_V5\C251\LIB\C2SL.LIB (?C?SIDIV)
         COMMENT TYPE 0: A251 V4.69.6.0
  E:\TOOLS\KEIL5\KEIL_V5\C251\LIB\C2SL.LIB (?C?LMUL)
         COMMENT TYPE 0: A251 V4.69.6.0
  E:\TOOLS\KEIL5\KEIL_V5\C251\LIB\C2SL.LIB (?C?LIMUL)
         COMMENT TYPE 0: A251 V4.69.6.0
  E:\TOOLS\KEIL5\KEIL_V5\C251\LIB\C2SL.LIB (?C?ULDIV)
         COMMENT TYPE 0: A251 V4.69.6.0
  E:\TOOLS\KEIL5\KEIL_V5\C251\LIB\C2SL.LIB (?C?SLDIV)
         COMMENT TYPE 0: A251 V4.69.6.0
  E:\TOOLS\KEIL5\KEIL_V5\C251\LIB\C2SL.LIB (?C?BMOVEPP)
         COMMENT TYPE 0: A251 V4.69.6.0
  E:\TOOLS\KEIL5\KEIL_V5\C251\LIB\C2SL.LIB (STRNCMP)
         COMMENT TYPE 0: C251 V5.58.7
  E:\TOOLS\KEIL5\KEIL_V5\C251\LIB\C2SL.LIB (STRNCPY)
         COMMENT TYPE 0: C251 V5.58.7
  E:\TOOLS\KEIL5\KEIL_V5\C251\LIB\C2SL.LIB (STRLEN)
         COMMENT TYPE 0: C251 V5.58.7
  E:\TOOLS\KEIL5\KEIL_V5\C251\LIB\C2SL.LIB (STRCHR)
         COMMENT TYPE 0: C251 V5.58.7
  E:\TOOLS\KEIL5\KEIL_V5\C251\LIB\C2SL.LIB (memcpy)
L251 LINKER/LOCATER V4.66.93.0                                                        01/24/2026  18:53:03  PAGE 4


         COMMENT TYPE 0: C251 V5.58.7
  E:\TOOLS\KEIL5\KEIL_V5\C251\LIB\C2SL.LIB (memset)
         COMMENT TYPE 0: C251 V5.58.7
  E:\TOOLS\KEIL5\KEIL_V5\C251\LIB\C2SL.LIB (?C?INITHDATA_END)
         COMMENT TYPE 0: A251 V4.69.6.0


ACTIVE MEMORY CLASSES OF MODULE:  .\out_file\SEEKFREE (?C_START)

BASE        START       END         USED      MEMORY CLASS
==========================================================
000000H     000000H     000FFFH     000800H   EDATA
000000H     000000H     000FFFH               HDATA
FF0000H     FF0000H     FFFFFFH     0075A3H   CODE
010000H     010000H     01FFFFH     0009E1H   XDATA
000000H     FF0000H     FFFFFFH     001080H   HCONST
000020H.0   000020H.0   00002FH.7             BIT
FF0000H     FF0000H     FFFFFFH     000004H   CONST
000000H     000000H     00007FH     000008H   DATA


MEMORY MAP OF MODULE:  .\out_file\SEEKFREE (?C_START)


START     STOP      LENGTH    ALIGN  RELOC    MEMORY CLASS   SEGMENT NAME
=========================================================================
000000H   000007H   000008H   ---    AT..     DATA           "REG BANK 0"
000008H   000807H   000800H   BYTE   UNIT     EDATA          ?STACK
000808H   00FFFFH   00F7F8H   ---    ---      **GAP**
010000H   010201H   000202H   BYTE   INSEG    XDATA          ?XD?ZF_DEVICE_TSL1401
010202H   0103C9H   0001C8H   BYTE   INSEG    XDATA          ?XD?ZF_DEVICE_GPS_TAU1201
0103CAH   010506H   00013DH   BYTE   INSEG    XDATA          ?XD?SEEKFREE_ASSISTANT
010507H   01063AH   000134H   BYTE   INSEG    XDATA          ?XD?PID
01063BH   0106CBH   000091H   BYTE   UNIT     XDATA          _XDATA_GROUP_
0106CCH   010724H   000059H   BYTE   INSEG    XDATA          ?XD?ZF_COMMON_DEBUG
010725H   01077BH   000057H   BYTE   INSEG    XDATA          ?XD?ZF_DEVICE_BLE6A20
01077CH   0107D2H   000057H   BYTE   INSEG    XDATA          ?XD?ZF_DEVICE_WIRELESS_UART
0107D3H   01081FH   00004DH   BYTE   INSEG    XDATA          ?XD?ZF_DEVICE_IPS200PRO
010820H   01085FH   000040H   BYTE   INSEG    XDATA          ?XD?IMU
010860H   010892H   000033H   BYTE   INSEG    XDATA          ?XD?UART
010893H   0108BBH   000029H   BYTE   INSEG    XDATA          ?XD?ADC
0108BCH   0108D9H   00001EH   BYTE   INSEG    XDATA          ?XD?ZF_COMMON_TYPEDEF
0108DAH   0108F7H   00001EH   BYTE   INSEG    XDATA          ?XD?ZF_DEVICE_IMU963RA
0108F8H   01090FH   000018H   BYTE   INSEG    XDATA          ?XD?CONTROL
010910H   010923H   000014H   BYTE   INSEG    XDATA          ?XD?ZF_DEVICE_ICM20602
010924H   010937H   000014H   BYTE   INSEG    XDATA          ?XD?ZF_DEVICE_IMU660RA
010938H   010944H   00000DH   BYTE   INSEG    XDATA          ?XD?ZF_DEVICE_DL1A
010945H   010951H   00000DH   BYTE   INSEG    XDATA          ?XD?ZF_DEVICE_DL1B
010952H   01095DH   00000CH   BYTE   INSEG    XDATA          ?XD?ZF_DRIVER_TIMER
01095EH   010969H   00000CH   BYTE   INSEG    XDATA          ?XD?ZF_DRIVER_UART
01096AH   010975H   00000CH   BYTE   INSEG    XDATA          ?XD?ZF_DEVICE_IMU660RB
010976H   010981H   00000CH   BYTE   INSEG    XDATA          ?XD?ENCODER
010982H   01098BH   00000AH   BYTE   INSEG    XDATA          ?XD?ZF_DEVICE_IPS200
01098CH   010995H   00000AH   BYTE   INSEG    XDATA          ?XD?NORMALIZATION
010996H   01099EH   000009H   BYTE   INSEG    XDATA          ?XD?MAIN
01099FH   0109A6H   000008H   BYTE   UNIT     XDATA          ?XD?SOFT_IIC_DELAY?ZF_DRIVER_SOFT_IIC
0109A7H   0109AEH   000008H   BYTE   INSEG    XDATA          ?XD?ZF_DEVICE_IPS114
0109AFH   0109B6H   000008H   BYTE   INSEG    XDATA          ?XD?ZF_DEVICE_TFT180
0109B7H   0109BEH   000008H   BYTE   INSEG    XDATA          ?XD?ZF_DEVICE_TYPE
0109BFH   0109C4H   000006H   BYTE   INSEG    XDATA          ?XD?ZF_DRIVER_ENCODER
0109C5H   0109C8H   000004H   BYTE   INSEG    XDATA          ?XD?ZF_COMMON_CLOCK
0109C9H   0109CCH   000004H   BYTE   INSEG    XDATA          ?XD?ZF_DRIVER_DELAY
0109CDH   0109D0H   000004H   BYTE   INSEG    XDATA          ?XD?SEEKFREE_ASSISTANT_INTERFACE
0109D1H   0109D4H   000004H   BYTE   INSEG    XDATA          ?XD?KEY
0109D5H   0109D7H   000003H   BYTE   UNIT     XDATA          ?XD?SOFT_IIC_READ_DATA?ZF_DRIVER_SOFT_IIC
L251 LINKER/LOCATER V4.66.93.0                                                        01/24/2026  18:53:03  PAGE 5


0109D8H   0109D9H   000002H   BYTE   UNIT     XDATA          ?XD?SOFT_IIC_SEND_DATA?ZF_DRIVER_SOFT_IIC
0109DAH   0109DBH   000002H   BYTE   INSEG    XDATA          ?XD?MOTOR
0109DCH   0109DCH   000001H   BYTE   INSEG    XDATA          ?XD?ZF_DRIVER_ADC
0109DDH   0109DDH   000001H   BYTE   UNIT     XDATA          ?XD?SOFT_IIC_SEND_ACK?ZF_DRIVER_SOFT_IIC
0109DEH   0109DEH   000001H   BYTE   UNIT     XDATA          ?XD?SOFT_IIC_WAIT_ACK?ZF_DRIVER_SOFT_IIC
0109DFH   0109DFH   000001H   BYTE   INSEG    XDATA          ?XD?TASK
0109E0H   0109E0H   000001H   BYTE   INSEG    XDATA          ?XD?ISR
0109E1H   FEFFFFH   FDF61FH   ---    ---      **GAP**
FF0000H   FF0002H   000003H   ---    OFFS..   CODE           ?CO?START251?4
FF0003H   FF000AH   000008H   BYTE   INSEG    CODE           ?PR?IMU660RB_WRITE_REGISTER?ZF_DEVICE_IMU660RB
FF000BH   FF000DH   000003H   ---    OFFS..   CODE           ?PR?IV?1
FF000EH   FF0018H   00000BH   BYTE   INSEG    CODE           ?PR?DELAY_CYCLES?ZF_DRIVER_DELAY
FF0019H   FF001AH   000002H   BYTE   INSEG    CODE           ?PR?GET_CONTROL_MODE?TASK
FF001BH   FF001DH   000003H   ---    OFFS..   CODE           ?PR?IV?3
FF001EH   FF0020H   000003H   BYTE   INSEG    CODE           ?PR?INTERRUPT_GLOBAL_ENABLE?ZF_COMMON_INTERRUPT
FF0021H   FF0022H   000002H   ---    ---      **GAP**
FF0023H   FF0025H   000003H   ---    OFFS..   CODE           ?PR?IV?4
FF0026H   FF0042H   00001DH   BYTE   INSEG    CODE           ?PR?IMU_INIT?IMU
FF0043H   FF0045H   000003H   ---    OFFS..   CODE           ?PR?IV?8
FF0046H   FF0061H   00001CH   BYTE   INSEG    CODE           ?PR?IMU660RB_SIMSPI_R_REG_BYTE?ZF_DEVICE_IMU660RB
FF0062H   FF0062H   000001H   ---    ---      **GAP**
FF0063H   FF0065H   000003H   ---    OFFS..   CODE           ?PR?IV?12
FF0066H   FF008AH   000025H   BYTE   INSEG    CODE           ?PR?CONSTRAIN_FLOAT?PID
FF008BH   FF008DH   000003H   ---    OFFS..   CODE           ?PR?IV?17
FF008EH   FF0090H   000003H   BYTE   INSEG    CODE           ?PR?IMU_UPDATE_TASK?TASK
FF0091H   FF0092H   000002H   ---    ---      **GAP**
FF0093H   FF0095H   000003H   ---    OFFS..   CODE           ?PR?IV?18
FF0096H   FF0098H   000003H   BYTE   INSEG    CODE           ?PR?PID_ONLY_CONTROL?TASK
FF0099H   FF009AH   000002H   ---    ---      **GAP**
FF009BH   FF009DH   000003H   ---    OFFS..   CODE           ?PR?IV?19
FF009EH   FF00A0H   000003H   BYTE   INSEG    CODE           ?PR?PIT_HANDLER_1?MAIN
FF00A1H   FF00A2H   000002H   ---    ---      **GAP**
FF00A3H   FF00A5H   000003H   ---    OFFS..   CODE           ?PR?IV?20
FF00A6H   FF0198H   0000F3H   BYTE   INSEG    CODE           ?PR?MY_ASIN?IMU
FF0199H   FF019AH   000002H   ---    ---      **GAP**
FF019BH   FF019DH   000003H   ---    OFFS..   CODE           ?CO?stc32g_isr?1
FF019EH   FF01A6H   000009H   BYTE   INSEG    CODE           ?PR?IMU_UPDATE?IMU
FF01A7H   FF01A9H   000003H   BYTE   INSEG    CODE           ?PR?PIT_HANDLER_2?MAIN
FF01AAH   FF01AAH   000001H   ---    ---      **GAP**
FF01ABH   FF01ADH   000003H   ---    OFFS..   CODE           ?CO?stc32g_isr?2
FF01AEH   FF01B1H   000004H   BYTE   UNIT     CONST          ?CO?PRINTF
FF01B2H   FF01BAH   000009H   ---    ---      **GAP**
FF01BBH   FF01BDH   000003H   ---    OFFS..   CODE           ?CO?stc32g_isr?3
FF01BEH   FF01CAH   00000DH   ---    ---      **GAP**
FF01CBH   FF01CDH   000003H   ---    OFFS..   CODE           ?CO?stc32g_isr?4
FF01CEH   FF21CDH   002000H   BYTE   UNIT     CODE           ?CO?ZF_DEVICE_CONFIG
FF21CEH   FF3070H   000EA3H   BYTE   UNIT     CODE           ?C?LIB_CODE
FF3071H   FF3660H   0005F0H   BYTE   UNIT     CODE           ?CO?ZF_COMMON_FONT
FF3661H   FF3C08H   0005A8H   BYTE   INSEG    CODE           ?PR?IMU_QUATERNION_UPDATE?IMU
FF3C09H   FF3FD9H   0003D1H   BYTE   INSEG    CODE           ?PR?PWM_INIT?ZF_DRIVER_PWM
FF3FDAH   FF42FAH   000321H   BYTE   INSEG    CODE           ?PR?FIFO_WRITE_BUFFER?ZF_COMMON_FIFO
FF42FBH   FF4595H   00029BH   BYTE   INSEG    CODE           ?PR?GPIO_SET_DIR?ZF_DRIVER_GPIO
FF4596H   FF4824H   00028FH   BYTE   INSEG    CODE           ?PR?_M?MAIN
FF4825H   FF4A1AH   0001F6H   BYTE   INSEG    CODE           ?PR?UART_INIT?ZF_DRIVER_UART
FF4A1BH   FF4BF2H   0001D8H   BYTE   INSEG    CODE           ?PR?IMU_QUATERNION_TO_EULER?IMU
FF4BF3H   FF4D9DH   0001ABH   BYTE   INSEG    CODE           ?PR?IMU_QUATERNION_INIT?IMU
FF4D9EH   FF4F2DH   000190H   BYTE   INSEG    CODE           ?PR?GPIO_SET_LEVEL?ZF_DRIVER_GPIO
FF4F2EH   FF50A0H   000173H   BYTE   INSEG    CODE           ?PR?GPIO_SET_MODE?ZF_DRIVER_GPIO
FF50A1H   FF51FBH   00015BH   BYTE   INSEG    CODE           ?PR?PIT_INIT?ZF_DRIVER_PIT
FF51FCH   FF5336H   00013BH   BYTE   INSEG    CODE           ?PR?PID_CALC_POSITION?PID
FF5337H   FF5464H   00012EH   BYTE   INSEG    CODE           ?PR?PID_CALC_INCREMENT?PID
FF5465H   FF5580H   00011CH   BYTE   INSEG    CODE           ?PR?UART_WRITE_BUFFER?ZF_DRIVER_UART
FF5581H   FF5699H   000119H   BYTE   INSEG    CODE           ?PR?PWM_SET_DUTY?ZF_DRIVER_PWM
FF569AH   FF57A5H   00010CH   BYTE   INSEG    CODE           ?PR?PD_DIRECTION_GYRO_LOOP?PID
FF57A6H   FF58ABH   000106H   BYTE   INSEG    CODE           ?PR?SDSD_CALCULATE?CONTROL
L251 LINKER/LOCATER V4.66.93.0                                                        01/24/2026  18:53:03  PAGE 6


FF58ACH   FF59ACH   000101H   BYTE   INSEG    CODE           ?PR?SET_SYS_CLK?ZF_COMMON_CLOCK
FF59ADH   FF5AA5H   0000F9H   BYTE   INSEG    CODE           ?PR?GPIO_GET_LEVEL?ZF_DRIVER_GPIO
FF5AA6H   FF5B9DH   0000F8H   BYTE   INSEG    CODE           ?PR?MY_ATAN2?IMU
FF5B9EH   FF5C82H   0000E5H   BYTE   INSEG    CODE           ?PR?GPIO_SET_IMPEDANCE?ZF_DRIVER_GPIO
FF5C83H   FF5D67H   0000E5H   BYTE   INSEG    CODE           ?PR?MOTOR_PID_CONTROL?PID
FF5D68H   FF5E40H   0000D9H   BYTE   INSEG    CODE           ?PR?ENCODER_DIR_INIT?ZF_DRIVER_ENCODER
FF5E41H   FF5EF7H   0000B7H   BYTE   INSEG    CODE           ?PR?UART_DMA_INIT?ZF_DRIVER_UART
FF5EF8H   FF5FACH   0000B5H   BYTE   INSEG    CODE           ?PR?ENCODER_GET_FILTERED?ENCODER
FF5FADH   FF6060H   0000B4H   BYTE   INSEG    CODE           ?PR?SOFT_IIC_READ_DATA?ZF_DRIVER_SOFT_IIC
FF6061H   FF610CH   0000ACH   BYTE   INSEG    CODE           ?PR?GPIO_INIT?ZF_DRIVER_GPIO
FF610DH   FF61B7H   0000ABH   BYTE   INSEG    CODE           ?PR?FAST_INV_SQRT?IMU
FF61B8H   FF6261H   0000AAH   BYTE   INSEG    CODE           ?PR?NORMALIZATION?NORMALIZATION
FF6262H   FF6305H   0000A4H   BYTE   INSEG    CODE           ?PR?PID_INIT?PID
FF6306H   FF639CH   000097H   BYTE   INSEG    CODE           ?PR?DMA_UART1_IRQHANDLER?ISR
FF639DH   FF6428H   00008CH   BYTE   INSEG    CODE           ?PR?SOFT_IIC_SEND_DATA?ZF_DRIVER_SOFT_IIC
FF6429H   FF64A6H   00007EH   BYTE   INSEG    CODE           ?PR?ADC_SAMPLE?ADC
FF64A7H   FF651FH   000079H   BYTE   INSEG    CODE           ?PR?SOFT_IIC_WAIT_ACK?ZF_DRIVER_SOFT_IIC
FF6520H   FF6598H   000079H   BYTE   INSEG    CODE           ?PR?IMU_GET_DATA?IMU
FF6599H   FF6611H   000079H   BYTE   INSEG    CODE           ?PR?DMA_UART2_IRQHANDLER?ISR
FF6612H   FF668AH   000079H   BYTE   INSEG    CODE           ?PR?DMA_UART3_IRQHANDLER?ISR
FF668BH   FF6703H   000079H   BYTE   INSEG    CODE           ?PR?DMA_UART4_IRQHANDLER?ISR
FF6704H   FF6778H   000075H   BYTE   INSEG    CODE           ?PR?FIFO_INIT?ZF_COMMON_FIFO
FF6779H   FF67EDH   000075H   BYTE   INSEG    CODE           ?PR?MOTOR_INIT?MOTOR
FF67EEH   FF685DH   000070H   BYTE   INSEG    CODE           ?PR?SOFT_IIC_SEND_ACK?ZF_DRIVER_SOFT_IIC
FF685EH   FF68CAH   00006DH   BYTE   INSEG    CODE           ?PR?ENCODER_GET_COUNT?ZF_DRIVER_ENCODER
FF68CBH   FF6934H   00006AH   BYTE   INSEG    CODE           ?PR?CLOCK_INIT?ZF_COMMON_CLOCK
FF6935H   FF699EH   00006AH   BYTE   INSEG    CODE           ?PR?IMU660RB_INIT?ZF_DEVICE_IMU660RB
FF699FH   FF6A06H   000068H   BYTE   INSEG    CODE           ?PR?DEBUG_ASSERT_HANDLER?ZF_COMMON_DEBUG
FF6A07H   FF6A68H   000062H   BYTE   INSEG    CODE           ?PR?SOFT_IIC_STOP?ZF_DRIVER_SOFT_IIC
FF6A69H   FF6AC9H   000061H   BYTE   INSEG    CODE           ?PR?ADC_INIT?ZF_DRIVER_ADC
FF6ACAH   FF6B29H   000060H   BYTE   INSEG    CODE           ?PR?UART_RX_START_BUFF?ZF_DRIVER_UART
FF6B2AH   FF6B83H   00005AH   BYTE   INSEG    CODE           ?PR?DEBUG_INIT?ZF_COMMON_DEBUG
FF6B84H   FF6BDCH   000059H   BYTE   INSEG    CODE           ?PR?MOTOR_CONTROL_TASK?TASK
FF6BDDH   FF6C33H   000057H   BYTE   INSEG    CODE           ?PR?SOFT_IIC_START?ZF_DRIVER_SOFT_IIC
FF6C34H   FF6C54H   000021H   BYTE   UNIT     CODE           ?C_C51STARTUP
FF6C55H   FF6C85H   000031H   BYTE   UNIT     CODE           ?C_C51STARTUP?2
FF6C86H   FF6C88H   000003H   BYTE   UNIT     CODE           ?C_C51STARTUP?3
FF6C89H   FF6CD9H   000051H   BYTE   INSEG    CODE           ?PR?ENCODER_CLEAR_COUNT?ZF_DRIVER_ENCODER
FF6CDAH   FF6D2AH   000051H   BYTE   INSEG    CODE           ?PR?ADC_GETVAL_FAST?ADC
FF6D2BH   FF6D7AH   000050H   BYTE   INSEG    CODE           ?PR?IMU660RB_GET_GYRO?ZF_DEVICE_IMU660RB
FF6D7BH   FF6DCAH   000050H   BYTE   INSEG    CODE           ?PR?IMU660RB_GET_ACC?ZF_DEVICE_IMU660RB
FF6DCBH   FF6E16H   00004CH   BYTE   INSEG    CODE           ?PR?SENSOR_CHECK_VALID?TASK
FF6E17H   FF6E5FH   000049H   BYTE   INSEG    CODE           ?PR?UART_QUERY_BYTE?ZF_DRIVER_UART
FF6E60H   FF6EA5H   000046H   BYTE   INSEG    CODE           ?PR?FIFO_HEAD_OFFSET?ZF_COMMON_FIFO
FF6EA6H   FF6EE9H   000044H   BYTE   INSEG    CODE           ?PR?SYSTEM_DELAY_INIT?ZF_DRIVER_DELAY
FF6EEAH   FF6F29H   000040H   BYTE   INSEG    CODE           ?PR?PD_INIT?PID
FF6F2AH   FF6F68H   00003FH   BYTE   INSEG    CODE           ?PR?IMU660RB_SIMSPI_R_REG_BYTES?ZF_DEVICE_IMU660RB
FF6F69H   FF6FA6H   00003EH   BYTE   INSEG    CODE           ?PR?TM0_IRQHANDLER?ISR
FF6FA7H   FF6FE4H   00003EH   BYTE   INSEG    CODE           ?PR?TM1_IRQHANDLER?ISR
FF6FE5H   FF7022H   00003EH   BYTE   INSEG    CODE           ?PR?TM2_IRQHANDLER?ISR
FF7023H   FF7060H   00003EH   BYTE   INSEG    CODE           ?PR?TM3_IRQHANDLER?ISR
FF7061H   FF709EH   00003EH   BYTE   INSEG    CODE           ?PR?TM4_IRQHANDLER?ISR
FF709FH   FF70DBH   00003DH   BYTE   INSEG    CODE           ?PR?ANGLE_NORMALIZE?IMU
FF70DCH   FF7117H   00003CH   BYTE   INSEG    CODE           ?PR?UART_RX_INTERRUPT?ZF_DRIVER_UART
FF7118H   FF7153H   00003CH   BYTE   INSEG    CODE           ?PR?KEY_INIT?KEY
FF7154H   FF718DH   00003AH   BYTE   INSEG    CODE           ?PR?LIMIT?ADC
FF718EH   FF71C6H   000039H   BYTE   INSEG    CODE           ?PR?DEBUG_INTERRUPR_HANDLER?ZF_COMMON_DEBUG
FF71C7H   FF71FEH   000038H   BYTE   INSEG    CODE           ?PR?SOFT_IIC_DELAY?ZF_DRIVER_SOFT_IIC
FF71FFH   FF7234H   000036H   BYTE   INSEG    CODE           ?PR?PD_CONTROL_WITH_SENSOR_CHECK?TASK
FF7235H   FF7267H   000033H   BYTE   INSEG    CODE           ?PR?ENCODER_INIT?ENCODER
FF7268H   FF7299H   000032H   BYTE   INSEG    CODE           ?PR?GET_MODE_NAME?TASK
FF729AH   FF72CAH   000031H   BYTE   INSEG    CODE           ?PR?TIMER_FUNCITON_CHECK?ZF_DRIVER_TIMER
FF72CBH   FF72FBH   000031H   BYTE   INSEG    CODE           ?PR?UART_FUNCITON_CHECK?ZF_DRIVER_UART
FF72FCH   FF732BH   000030H   BYTE   INSEG    CODE           ?PR?ADC_CONVERT?ZF_DRIVER_ADC
FF732CH   FF735BH   000030H   BYTE   INSEG    CODE           ?PR?SDSD_CONTROL_WITH_SENSOR_CHECK?TASK
L251 LINKER/LOCATER V4.66.93.0                                                        01/24/2026  18:53:03  PAGE 7


FF735CH   FF7389H   00002EH   BYTE   INSEG    CODE           ?PR?SDSD_INIT?CONTROL
FF738AH   FF73B6H   00002DH   BYTE   INSEG    CODE           ?PR?IMU660RB_SELF_CHECK?ZF_DEVICE_IMU660RB
FF73B7H   FF73E2H   00002CH   BYTE   INSEG    CODE           ?PR?IIR_LOWPASS?ENCODER
FF73E3H   FF740DH   00002BH   BYTE   INSEG    CODE           ?PR?ADC_ALL_INIT?ADC
FF740EH   FF7435H   000028H   BYTE   INSEG    CODE           ?PR?MOTOR_RIGHTFORWARD?MOTOR
FF7436H   FF745DH   000028H   BYTE   INSEG    CODE           ?PR?MOTOR_LEFTFORWARD?MOTOR
FF745EH   FF7484H   000027H   BYTE   INSEG    CODE           ?PR?MOTOR_RIGHTBACKWARD?MOTOR
FF7485H   FF74ABH   000027H   BYTE   INSEG    CODE           ?PR?MOTOR_LEFTBACKWARD?MOTOR
FF74ACH   FF74D0H   000025H   BYTE   INSEG    CODE           ?PR?MEMCPY?_?MEMCPY
FF74D1H   FF74F4H   000024H   BYTE   INSEG    CODE           ?PR?MAIN?MAIN
FF74F5H   FF7515H   000021H   BYTE   INSEG    CODE           ?PR?IMU660RB_SIMSPI_WR_BYTE?ZF_DEVICE_IMU660RB
FF7516H   FF752DH   000018H   BYTE   INSEG    CODE           ?PR?SYSTEM_DELAY_MS?ZF_DRIVER_DELAY
FF752EH   FF7543H   000016H   BYTE   INSEG    CODE           ?PR?IMU660RB_READ_REGISTER?ZF_DEVICE_IMU660RB
FF7544H   FF7556H   000013H   BYTE   INSEG    CODE           ?PR?UART_WRITE_BYTE?ZF_DRIVER_UART
FF7557H   FF7569H   000013H   BYTE   INSEG    CODE           ?PR?POSITION_ERROR_CALC?TASK
FF756AH   FF757BH   000012H   BYTE   INSEG    CODE           ?PR?IMU660RB_GYRO_TRANSITION?ZF_DEVICE_IMU660RB
FF757CH   FF758DH   000012H   BYTE   INSEG    CODE           ?PR?IMU660RB_ACC_TRANSITION?ZF_DEVICE_IMU660RB
FF758EH   FF759DH   000010H   BYTE   INSEG    CODE           ?PR?IMU660RB_READ_REGISTERS?ZF_DEVICE_IMU660RB
FF759EH   FF75ACH   00000FH   BYTE   INSEG    CODE           ?PR?IMU660RB_SIMSPI_W_REG_BYTE?ZF_DEVICE_IMU660RB
FF75ADH   FF75BAH   00000EH   BYTE   INSEG    CODE           ?PR?PUTCHAR?ZF_COMMON_DEBUG
FF75BBH   FF75C8H   00000EH   BYTE   INSEG    CODE           ?PR?PID_SET_TARGET?PID
FF75C9H   FF7AF7H   00052FH   BYTE   UNIT     HCONST         ?C_INITHDATA
FF7AF8H   FF7CF7H   000200H   BYTE   UNIT     HCONST         ?HC?ZF_DRIVER_EEPROM
FF7CF8H   FF7E26H   00012FH   BYTE   UNIT     HCONST         ?HC?ZF_DEVICE_DL1A
FF7E27H   FF7EF6H   0000D0H   BYTE   UNIT     HCONST         ?HC?ZF_DEVICE_IMU963RA
FF7EF7H   FF7F9DH   0000A7H   BYTE   UNIT     HCONST         ?HC?ZF_DEVICE_IMU660RA
FF7F9EH   FF8041H   0000A4H   BYTE   UNIT     HCONST         ?HC?SEEKFREE_ASSISTANT
FF8042H   FF80E3H   0000A2H   BYTE   UNIT     HCONST         ?HC?ZF_DEVICE_GPS_TAU1201
FF80E4H   FF816DH   00008AH   BYTE   UNIT     HCONST         ?HC?ZF_DRIVER_PWM
FF816EH   FF81F6H   000089H   BYTE   UNIT     HCONST         ?HC?MAIN
FF81F7H   FF827EH   000088H   BYTE   UNIT     HCONST         ?HC?ZF_DEVICE_ICM20602
FF827FH   FF82E9H   00006BH   BYTE   UNIT     HCONST         ?HC?ZF_DRIVER_UART
FF82EAH   FF8340H   000057H   BYTE   UNIT     HCONST         ?HC?ZF_COMMON_FUNCTION
FF8341H   FF8396H   000056H   BYTE   UNIT     HCONST         ?HC?ADC
FF8397H   FF83D7H   000041H   BYTE   UNIT     HCONST         ?HC?TASK
FF83D8H   FF840BH   000034H   BYTE   UNIT     HCONST         ?HC?ZF_DEVICE_WIRELESS_UART
FF840CH   FF843EH   000033H   BYTE   UNIT     HCONST         ?HC?ZF_DEVICE_IPS114
FF843FH   FF8471H   000033H   BYTE   UNIT     HCONST         ?HC?ZF_DEVICE_IPS200
FF8472H   FF84A4H   000033H   BYTE   UNIT     HCONST         ?HC?ZF_DEVICE_TFT180
FF84A5H   FF84D3H   00002FH   BYTE   UNIT     HCONST         ?HC?ZF_DRIVER_SOFT_IIC
FF84D4H   FF8502H   00002FH   BYTE   UNIT     HCONST         ?HC?ZF_DRIVER_SOFT_SPI
FF8503H   FF8530H   00002EH   BYTE   UNIT     HCONST         ?HC?ZF_DRIVER_ENCODER
FF8531H   FF855EH   00002EH   BYTE   UNIT     HCONST         ?HC?ZF_DEVICE_BLE6A20
FF855FH   FF8589H   00002BH   BYTE   UNIT     HCONST         ?HC?ZF_COMMON_FIFO
FF858AH   FF85B4H   00002BH   BYTE   UNIT     HCONST         ?HC?ZF_DRIVER_GPIO
FF85B5H   FF85DEH   00002AH   BYTE   UNIT     HCONST         ?HC?ZF_DRIVER_ADC
FF85DFH   FF8608H   00002AH   BYTE   UNIT     HCONST         ?HC?ZF_DRIVER_SPI
FF8609H   FF862DH   000025H   BYTE   UNIT     HCONST         ?HC?ZF_COMMON_DEBUG
FF862EH   FF8648H   00001BH   BYTE   UNIT     HCONST         ?HC?ZF_DEVICE_IMU660RB

* * * * * * * * *   R E M O V E D     S E G M E N T S   * * * * * * * *
   *DEL*:           00003EH   BYTE   INSEG    CODE           ?PR?DEBUG_READ_BUFFER?ZF_COMMON_DEBUG
   *DEL*:           00002DH   BYTE   INSEG    CODE           ?PR?DEBUG_SEND_BUFFER?ZF_COMMON_DEBUG
   *DEL*:           000004H   BYTE   UNIT     XDATA          ?XD?DEBUG_READ_BUFFER?ZF_COMMON_DEBUG
   *DEL*:           000361H   BYTE   INSEG    CODE           ?PR?FIFO_READ_BUFFER?ZF_COMMON_FIFO
   *DEL*:           00009DH   BYTE   INSEG    CODE           ?PR?FIFO_CLEAR?ZF_COMMON_FIFO
   *DEL*:           000046H   BYTE   INSEG    CODE           ?PR?FIFO_END_OFFSET?ZF_COMMON_FIFO
   *DEL*:           000033H   BYTE   INSEG    CODE           ?PR?FIFO_USED?ZF_COMMON_FIFO
   *DEL*:           000002H   BYTE   UNIT     XDATA          ?XD?FIFO_CLEAR?ZF_COMMON_FIFO
   *DEL*:           000014H   BYTE   UNIT     XDATA          ?XD?FIFO_READ_BUFFER?ZF_COMMON_FIFO
   *DEL*:           00021AH   BYTE   INSEG    CODE           ?PR?FUNC_DOUBLE_TO_STR?ZF_COMMON_FUNCTION
   *DEL*:           00018AH   BYTE   INSEG    CODE           ?PR?FUNC_STR_TO_DOUBLE?ZF_COMMON_FUNCTION
   *DEL*:           00008AH   BYTE   INSEG    CODE           ?PR?NUMBER_CONVERSION_ASCII?ZF_COMMON_FUNCTION
   *DEL*:           00021AH   BYTE   INSEG    CODE           ?PR?FUNC_FLOAT_TO_STR?ZF_COMMON_FUNCTION
   *DEL*:           00018AH   BYTE   INSEG    CODE           ?PR?FUNC_STR_TO_FLOAT?ZF_COMMON_FUNCTION
L251 LINKER/LOCATER V4.66.93.0                                                        01/24/2026  18:53:03  PAGE 8


   *DEL*:           000024H   BYTE   INSEG    CODE           ?PR?FUNC_SOFT_DELAY?ZF_COMMON_FUNCTION
   *DEL*:           000681H   BYTE   INSEG    CODE           ?PR?ZF_SPRINTF?ZF_COMMON_FUNCTION
   *DEL*:           0000CAH   BYTE   INSEG    CODE           ?PR?FUNC_UINT_TO_STR?ZF_COMMON_FUNCTION
   *DEL*:           000076H   BYTE   INSEG    CODE           ?PR?FUNC_STR_TO_UINT?ZF_COMMON_FUNCTION
   *DEL*:           0000F6H   BYTE   INSEG    CODE           ?PR?FUNC_HEX_TO_STR?ZF_COMMON_FUNCTION
   *DEL*:           0000F5H   BYTE   INSEG    CODE           ?PR?FUNC_STR_TO_HEX?ZF_COMMON_FUNCTION
   *DEL*:           00011FH   BYTE   INSEG    CODE           ?PR?FUNC_INT_TO_STR?ZF_COMMON_FUNCTION
   *DEL*:           0000B8H   BYTE   INSEG    CODE           ?PR?FUNC_STR_TO_INT?ZF_COMMON_FUNCTION
   *DEL*:           000019H   BYTE   INSEG    CODE           ?PR?FUNC_GET_GREATEST_COMMON_DIVISOR?ZF_COMMON_FUNCTION
   *DEL*:           00040AH   BYTE   INSEG    CODE           ?PR?VSNPRINTF?ZF_COMMON_FUNCTION
   *DEL*:           00003EH   BYTE   INSEG    CODE           ?PR?PRINTF_REVERSE_ORDER?ZF_COMMON_FUNCTION
   *DEL*:           000004H   BYTE   UNIT     XDATA          ?XD?FUNC_SOFT_DELAY?ZF_COMMON_FUNCTION
   *DEL*:           000005H   BYTE   UNIT     XDATA          ?XD?FUNC_STR_TO_INT?ZF_COMMON_FUNCTION
   *DEL*:           000019H   BYTE   UNIT     XDATA          ?XD?FUNC_INT_TO_STR?ZF_COMMON_FUNCTION
   *DEL*:           000004H   BYTE   UNIT     XDATA          ?XD?FUNC_STR_TO_UINT?ZF_COMMON_FUNCTION
   *DEL*:           000015H   BYTE   UNIT     XDATA          ?XD?FUNC_UINT_TO_STR?ZF_COMMON_FUNCTION
   *DEL*:           00000DH   BYTE   UNIT     XDATA          ?XD?FUNC_STR_TO_FLOAT?ZF_COMMON_FUNCTION
   *DEL*:           000026H   BYTE   UNIT     XDATA          ?XD?FUNC_FLOAT_TO_STR?ZF_COMMON_FUNCTION
   *DEL*:           00000DH   BYTE   UNIT     XDATA          ?XD?FUNC_STR_TO_DOUBLE?ZF_COMMON_FUNCTION
   *DEL*:           000034H   BYTE   UNIT     XDATA          ?XD?FUNC_DOUBLE_TO_STR?ZF_COMMON_FUNCTION
   *DEL*:           00000AH   BYTE   UNIT     XDATA          ?XD?FUNC_STR_TO_HEX?ZF_COMMON_FUNCTION
   *DEL*:           000021H   BYTE   UNIT     XDATA          ?XD?FUNC_HEX_TO_STR?ZF_COMMON_FUNCTION
   *DEL*:           000001H   BYTE   UNIT     XDATA          ?XD?NUMBER_CONVERSION_ASCII?ZF_COMMON_FUNCTION
   *DEL*:           000041H   BYTE   UNIT     XDATA          ?XD?VSNPRINTF?ZF_COMMON_FUNCTION
   *DEL*:           00005FH   BYTE   UNIT     XDATA          ?XD?ZF_SPRINTF?ZF_COMMON_FUNCTION
   *DEL*:           000003H   BYTE   INSEG    CODE           ?PR?INTERRUPT_GLOBAL_DISABLE?ZF_COMMON_INTERRUPT
   *DEL*:           00006CH   BYTE   INSEG    CODE           ?PR?INTERRUPT_SET_PRIORITY?ZF_COMMON_INTERRUPT
   *DEL*:           000069H   BYTE   INSEG    CODE           ?PR?ADC_MEAN_FILTER_CONVERT?ZF_DRIVER_ADC
   *DEL*:           000004H   BYTE   UNIT     XDATA          ?XD?ADC_MEAN_FILTER_CONVERT?ZF_DRIVER_ADC
   *DEL*:           000018H   BYTE   INSEG    CODE           ?PR?SYSTEM_DELAY_US?ZF_DRIVER_DELAY
   *DEL*:           00001CH   BYTE   INSEG    CODE           ?PR?IAP_SET_TPS?ZF_DRIVER_EEPROM
   *DEL*:           00000BH   BYTE   INSEG    CODE           ?PR?EEPROM_TRIG?ZF_DRIVER_EEPROM
   *DEL*:           000025H   BYTE   INSEG    CODE           ?PR?IAP_ERASE_PAGE?ZF_DRIVER_EEPROM
   *DEL*:           000004H   BYTE   INSEG    CODE           ?PR?IAP_IDLE?ZF_DRIVER_EEPROM
   *DEL*:           000049H   BYTE   INSEG    CODE           ?PR?IAP_READ_BUFF?ZF_DRIVER_EEPROM
   *DEL*:           0000E9H   BYTE   INSEG    CODE           ?PR?EXTERN_IAP_WRITE_BUFF?ZF_DRIVER_EEPROM
   *DEL*:           000049H   BYTE   INSEG    CODE           ?PR?IAP_WRITE_BUFF?ZF_DRIVER_EEPROM
   *DEL*:           000021H   BYTE   INSEG    CODE           ?PR?IAP_READ_BYTE?ZF_DRIVER_EEPROM
   *DEL*:           000006H   BYTE   INSEG    CODE           ?PR?IAP_INIT?ZF_DRIVER_EEPROM
   *DEL*:           000028H   BYTE   INSEG    CODE           ?PR?IAP_WRITE_BYTE?ZF_DRIVER_EEPROM
   *DEL*:           00000CH   BYTE   INSEG    CODE           ?PR?IAP_GET_CMD_STATE?ZF_DRIVER_EEPROM
   *DEL*:           000000H.1 BIT    UNIT     BIT            ?BI?IAP_READ_BYTE?ZF_DRIVER_EEPROM
   *DEL*:           000000H.1 BIT    UNIT     BIT            ?BI?IAP_WRITE_BYTE?ZF_DRIVER_EEPROM
   *DEL*:           000006H   BYTE   UNIT     XDATA          ?XD?IAP_READ_BUFF?ZF_DRIVER_EEPROM
   *DEL*:           000006H   BYTE   UNIT     XDATA          ?XD?IAP_WRITE_BUFF?ZF_DRIVER_EEPROM
   *DEL*:           000000H.1 BIT    UNIT     BIT            ?BI?IAP_ERASE_PAGE?ZF_DRIVER_EEPROM
   *DEL*:           000206H   BYTE   UNIT     XDATA          ?XD?EXTERN_IAP_WRITE_BUFF?ZF_DRIVER_EEPROM
   *DEL*:           000016H   BYTE   INSEG    CODE           ?PR?GPIO_TOGGLE_LEVEL?ZF_DRIVER_GPIO
   *DEL*:           0001DCH   BYTE   INSEG    CODE           ?PR?GPIO_SET_LEVEL_SPEED?ZF_DRIVER_GPIO
   *DEL*:           000188H   BYTE   INSEG    CODE           ?PR?PWM_SET_FREQ?ZF_DRIVER_PWM
   *DEL*:           000010H   BYTE   UNIT     XDATA          ?XD?PWM_SET_FREQ?ZF_DRIVER_PWM
   *DEL*:           000052H   BYTE   INSEG    CODE           ?PR?SOFT_IIC_WRITE_8BIT_REGISTER?ZF_DRIVER_SOFT_IIC
   *DEL*:           0000FBH   BYTE   INSEG    CODE           ?PR?SOFT_IIC_READ_16BIT_REGISTERS?ZF_DRIVER_SOFT_IIC
   *DEL*:           000069H   BYTE   INSEG    CODE           ?PR?SOFT_IIC_SCCB_READ_REGISTER?ZF_DRIVER_SOFT_IIC
   *DEL*:           000095H   BYTE   INSEG    CODE           ?PR?SOFT_IIC_READ_16BIT_REGISTER?ZF_DRIVER_SOFT_IIC
   *DEL*:           000161H   BYTE   INSEG    CODE           ?PR?SOFT_IIC_TRANSFER_16BIT_ARRAY?ZF_DRIVER_SOFT_IIC
   *DEL*:           0000BDH   BYTE   INSEG    CODE           ?PR?SOFT_IIC_WRITE_16BIT_REGISTERS?ZF_DRIVER_SOFT_IIC
   *DEL*:           000052H   BYTE   INSEG    CODE           ?PR?SOFT_IIC_SCCB_WRITE_REGISTER?ZF_DRIVER_SOFT_IIC
   *DEL*:           000047H   BYTE   INSEG    CODE           ?PR?SOFT_IIC_READ_8BIT?ZF_DRIVER_SOFT_IIC
   *DEL*:           0000B0H   BYTE   INSEG    CODE           ?PR?SOFT_IIC_READ_8BIT_ARRAY?ZF_DRIVER_SOFT_IIC
   *DEL*:           000072H   BYTE   INSEG    CODE           ?PR?SOFT_IIC_WRITE_16BIT_REGISTER?ZF_DRIVER_SOFT_IIC
   *DEL*:           000043H   BYTE   INSEG    CODE           ?PR?SOFT_IIC_WRITE_8BIT?ZF_DRIVER_SOFT_IIC
   *DEL*:           000095H   BYTE   INSEG    CODE           ?PR?SOFT_IIC_WRITE_8BIT_ARRAY?ZF_DRIVER_SOFT_IIC
   *DEL*:           000067H   BYTE   INSEG    CODE           ?PR?SOFT_IIC_READ_16BIT?ZF_DRIVER_SOFT_IIC
   *DEL*:           0000D7H   BYTE   INSEG    CODE           ?PR?SOFT_IIC_READ_16BIT_ARRAY?ZF_DRIVER_SOFT_IIC
L251 LINKER/LOCATER V4.66.93.0                                                        01/24/2026  18:53:03  PAGE 9


   *DEL*:           0000A0H   BYTE   INSEG    CODE           ?PR?SOFT_IIC_INIT?ZF_DRIVER_SOFT_IIC
   *DEL*:           0000CDH   BYTE   INSEG    CODE           ?PR?SOFT_IIC_READ_8BIT_REGISTERS?ZF_DRIVER_SOFT_IIC
   *DEL*:           000054H   BYTE   INSEG    CODE           ?PR?SOFT_IIC_WRITE_16BIT?ZF_DRIVER_SOFT_IIC
   *DEL*:           0000A9H   BYTE   INSEG    CODE           ?PR?SOFT_IIC_WRITE_16BIT_ARRAY?ZF_DRIVER_SOFT_IIC
   *DEL*:           000064H   BYTE   INSEG    CODE           ?PR?SOFT_IIC_READ_8BIT_REGISTER?ZF_DRIVER_SOFT_IIC
   *DEL*:           000123H   BYTE   INSEG    CODE           ?PR?SOFT_IIC_TRANSFER_8BIT_ARRAY?ZF_DRIVER_SOFT_IIC
   *DEL*:           0000A2H   BYTE   INSEG    CODE           ?PR?SOFT_IIC_WRITE_8BIT_REGISTERS?ZF_DRIVER_SOFT_IIC
   *DEL*:           000001H   BYTE   UNIT     XDATA          ?XD?SOFT_IIC_WRITE_8BIT?ZF_DRIVER_SOFT_IIC
   *DEL*:           000008H   BYTE   UNIT     XDATA          ?XD?SOFT_IIC_WRITE_8BIT_ARRAY?ZF_DRIVER_SOFT_IIC
   *DEL*:           000002H   BYTE   UNIT     XDATA          ?XD?SOFT_IIC_WRITE_16BIT?ZF_DRIVER_SOFT_IIC
   *DEL*:           000008H   BYTE   UNIT     XDATA          ?XD?SOFT_IIC_WRITE_16BIT_ARRAY?ZF_DRIVER_SOFT_IIC
   *DEL*:           000002H   BYTE   UNIT     XDATA          ?XD?SOFT_IIC_WRITE_8BIT_REGISTER?ZF_DRIVER_SOFT_IIC
   *DEL*:           000009H   BYTE   UNIT     XDATA          ?XD?SOFT_IIC_WRITE_8BIT_REGISTERS?ZF_DRIVER_SOFT_IIC
   *DEL*:           000004H   BYTE   UNIT     XDATA          ?XD?SOFT_IIC_WRITE_16BIT_REGISTER?ZF_DRIVER_SOFT_IIC
   *DEL*:           00000AH   BYTE   UNIT     XDATA          ?XD?SOFT_IIC_WRITE_16BIT_REGISTERS?ZF_DRIVER_SOFT_IIC
   *DEL*:           000001H   BYTE   UNIT     XDATA          ?XD?SOFT_IIC_READ_8BIT?ZF_DRIVER_SOFT_IIC
   *DEL*:           000008H   BYTE   UNIT     XDATA          ?XD?SOFT_IIC_READ_8BIT_ARRAY?ZF_DRIVER_SOFT_IIC
   *DEL*:           000002H   BYTE   UNIT     XDATA          ?XD?SOFT_IIC_READ_16BIT?ZF_DRIVER_SOFT_IIC
   *DEL*:           000008H   BYTE   UNIT     XDATA          ?XD?SOFT_IIC_READ_16BIT_ARRAY?ZF_DRIVER_SOFT_IIC
   *DEL*:           000002H   BYTE   UNIT     XDATA          ?XD?SOFT_IIC_READ_8BIT_REGISTER?ZF_DRIVER_SOFT_IIC
   *DEL*:           000009H   BYTE   UNIT     XDATA          ?XD?SOFT_IIC_READ_8BIT_REGISTERS?ZF_DRIVER_SOFT_IIC
   *DEL*:           000004H   BYTE   UNIT     XDATA          ?XD?SOFT_IIC_READ_16BIT_REGISTER?ZF_DRIVER_SOFT_IIC
   *DEL*:           00000AH   BYTE   UNIT     XDATA          ?XD?SOFT_IIC_READ_16BIT_REGISTERS?ZF_DRIVER_SOFT_IIC
   *DEL*:           000010H   BYTE   UNIT     XDATA          ?XD?SOFT_IIC_TRANSFER_8BIT_ARRAY?ZF_DRIVER_SOFT_IIC
   *DEL*:           000010H   BYTE   UNIT     XDATA          ?XD?SOFT_IIC_TRANSFER_16BIT_ARRAY?ZF_DRIVER_SOFT_IIC
   *DEL*:           000002H   BYTE   UNIT     XDATA          ?XD?SOFT_IIC_SCCB_WRITE_REGISTER?ZF_DRIVER_SOFT_IIC
   *DEL*:           000002H   BYTE   UNIT     XDATA          ?XD?SOFT_IIC_SCCB_READ_REGISTER?ZF_DRIVER_SOFT_IIC
   *DEL*:           000009H   BYTE   UNIT     XDATA          ?XD?SOFT_IIC_INIT?ZF_DRIVER_SOFT_IIC
   *DEL*:           000207H   BYTE   INSEG    CODE           ?PR?SOFT_SPI_INIT?ZF_DRIVER_SOFT_SPI
   *DEL*:           0000B1H   BYTE   INSEG    CODE           ?PR?SOFT_SPI_READ_8BIT_REGISTERS?ZF_DRIVER_SOFT_SPI
   *DEL*:           00004FH   BYTE   INSEG    CODE           ?PR?SOFT_SPI_WRITE_16BIT?ZF_DRIVER_SOFT_SPI
   *DEL*:           0000FDH   BYTE   INSEG    CODE           ?PR?SOFT_SPI_8BIT_DATA_HANDLER?ZF_DRIVER_SOFT_SPI
   *DEL*:           0000A0H   BYTE   INSEG    CODE           ?PR?SOFT_SPI_WRITE_16BIT_ARRAY?ZF_DRIVER_SOFT_SPI
   *DEL*:           00005EH   BYTE   INSEG    CODE           ?PR?SOFT_SPI_READ_8BIT_REGISTER?ZF_DRIVER_SOFT_SPI
   *DEL*:           0000F2H   BYTE   INSEG    CODE           ?PR?SOFT_SPI_TRANSFER_8BIT?ZF_DRIVER_SOFT_SPI
   *DEL*:           0000AAH   BYTE   INSEG    CODE           ?PR?SOFT_SPI_WRITE_8BIT_REGISTERS?ZF_DRIVER_SOFT_SPI
   *DEL*:           00005AH   BYTE   INSEG    CODE           ?PR?SOFT_SPI_WRITE_8BIT_REGISTER?ZF_DRIVER_SOFT_SPI
   *DEL*:           0000AEH   BYTE   INSEG    CODE           ?PR?SOFT_SPI_READ_16BIT_REGISTERS?ZF_DRIVER_SOFT_SPI
   *DEL*:           000123H   BYTE   INSEG    CODE           ?PR?SOFT_SPI_16BIT_DATA_HANDLER?ZF_DRIVER_SOFT_SPI
   *DEL*:           00006AH   BYTE   INSEG    CODE           ?PR?SOFT_SPI_READ_16BIT_REGISTER?ZF_DRIVER_SOFT_SPI
   *DEL*:           0000F4H   BYTE   INSEG    CODE           ?PR?SOFT_SPI_TRANSFER_16BIT?ZF_DRIVER_SOFT_SPI
   *DEL*:           0000A4H   BYTE   INSEG    CODE           ?PR?SOFT_SPI_WRITE_16BIT_REGISTERS?ZF_DRIVER_SOFT_SPI
   *DEL*:           000051H   BYTE   INSEG    CODE           ?PR?SOFT_SPI_READ_8BIT?ZF_DRIVER_SOFT_SPI
   *DEL*:           0000A4H   BYTE   INSEG    CODE           ?PR?SOFT_SPI_READ_8BIT_ARRAY?ZF_DRIVER_SOFT_SPI
   *DEL*:           000060H   BYTE   INSEG    CODE           ?PR?SOFT_SPI_WRITE_16BIT_REGISTER?ZF_DRIVER_SOFT_SPI
   *DEL*:           00004BH   BYTE   INSEG    CODE           ?PR?SOFT_SPI_WRITE_8BIT?ZF_DRIVER_SOFT_SPI
   *DEL*:           0000A0H   BYTE   INSEG    CODE           ?PR?SOFT_SPI_WRITE_8BIT_ARRAY?ZF_DRIVER_SOFT_SPI
   *DEL*:           000024H   BYTE   INSEG    CODE           ?PR?SOFT_SPI_DELAY?ZF_DRIVER_SOFT_SPI
   *DEL*:           000056H   BYTE   INSEG    CODE           ?PR?SOFT_SPI_READ_16BIT?ZF_DRIVER_SOFT_SPI
   *DEL*:           0000A7H   BYTE   INSEG    CODE           ?PR?SOFT_SPI_READ_16BIT_ARRAY?ZF_DRIVER_SOFT_SPI
   *DEL*:           000004H   BYTE   UNIT     XDATA          ?XD?SOFT_SPI_DELAY?ZF_DRIVER_SOFT_SPI
   *DEL*:           000003H   BYTE   UNIT     XDATA          ?XD?SOFT_SPI_8BIT_DATA_HANDLER?ZF_DRIVER_SOFT_SPI
   *DEL*:           000005H   BYTE   UNIT     XDATA          ?XD?SOFT_SPI_16BIT_DATA_HANDLER?ZF_DRIVER_SOFT_SPI
   *DEL*:           000001H   BYTE   UNIT     XDATA          ?XD?SOFT_SPI_WRITE_8BIT?ZF_DRIVER_SOFT_SPI
   *DEL*:           000008H   BYTE   UNIT     XDATA          ?XD?SOFT_SPI_WRITE_8BIT_ARRAY?ZF_DRIVER_SOFT_SPI
   *DEL*:           000002H   BYTE   UNIT     XDATA          ?XD?SOFT_SPI_WRITE_16BIT?ZF_DRIVER_SOFT_SPI
   *DEL*:           000008H   BYTE   UNIT     XDATA          ?XD?SOFT_SPI_WRITE_16BIT_ARRAY?ZF_DRIVER_SOFT_SPI
   *DEL*:           000002H   BYTE   UNIT     XDATA          ?XD?SOFT_SPI_WRITE_8BIT_REGISTER?ZF_DRIVER_SOFT_SPI
   *DEL*:           000009H   BYTE   UNIT     XDATA          ?XD?SOFT_SPI_WRITE_8BIT_REGISTERS?ZF_DRIVER_SOFT_SPI
   *DEL*:           000004H   BYTE   UNIT     XDATA          ?XD?SOFT_SPI_WRITE_16BIT_REGISTER?ZF_DRIVER_SOFT_SPI
   *DEL*:           00000AH   BYTE   UNIT     XDATA          ?XD?SOFT_SPI_WRITE_16BIT_REGISTERS?ZF_DRIVER_SOFT_SPI
   *DEL*:           000001H   BYTE   UNIT     XDATA          ?XD?SOFT_SPI_READ_8BIT?ZF_DRIVER_SOFT_SPI
   *DEL*:           000008H   BYTE   UNIT     XDATA          ?XD?SOFT_SPI_READ_8BIT_ARRAY?ZF_DRIVER_SOFT_SPI
   *DEL*:           000001H   BYTE   UNIT     XDATA          ?XD?SOFT_SPI_READ_16BIT?ZF_DRIVER_SOFT_SPI
   *DEL*:           000008H   BYTE   UNIT     XDATA          ?XD?SOFT_SPI_READ_16BIT_ARRAY?ZF_DRIVER_SOFT_SPI
L251 LINKER/LOCATER V4.66.93.0                                                        01/24/2026  18:53:03  PAGE 10


   *DEL*:           000002H   BYTE   UNIT     XDATA          ?XD?SOFT_SPI_READ_8BIT_REGISTER?ZF_DRIVER_SOFT_SPI
   *DEL*:           000009H   BYTE   UNIT     XDATA          ?XD?SOFT_SPI_READ_8BIT_REGISTERS?ZF_DRIVER_SOFT_SPI
   *DEL*:           000004H   BYTE   UNIT     XDATA          ?XD?SOFT_SPI_READ_16BIT_REGISTER?ZF_DRIVER_SOFT_SPI
   *DEL*:           00000AH   BYTE   UNIT     XDATA          ?XD?SOFT_SPI_READ_16BIT_REGISTERS?ZF_DRIVER_SOFT_SPI
   *DEL*:           00000CH   BYTE   UNIT     XDATA          ?XD?SOFT_SPI_TRANSFER_8BIT?ZF_DRIVER_SOFT_SPI
   *DEL*:           00000CH   BYTE   UNIT     XDATA          ?XD?SOFT_SPI_TRANSFER_16BIT?ZF_DRIVER_SOFT_SPI
   *DEL*:           000011H   BYTE   UNIT     XDATA          ?XD?SOFT_SPI_INIT?ZF_DRIVER_SOFT_SPI
   *DEL*:           000017H   BYTE   INSEG    CODE           ?PR?SPI_WRITE_8BIT_REGISTER?ZF_DRIVER_SPI
   *DEL*:           000077H   BYTE   INSEG    CODE           ?PR?SPI_READ_16BIT_REGISTERS?ZF_DRIVER_SPI
   *DEL*:           00002DH   BYTE   INSEG    CODE           ?PR?SPI_READ_16BIT_REGISTER?ZF_DRIVER_SPI
   *DEL*:           0000ACH   BYTE   INSEG    CODE           ?PR?SPI_TRANSFER_16BIT?ZF_DRIVER_SPI
   *DEL*:           00004EH   BYTE   INSEG    CODE           ?PR?SPI_WRITE_16BIT_REGISTERS?ZF_DRIVER_SPI
   *DEL*:           000004H   BYTE   INSEG    CODE           ?PR?SPI_READ_8BIT?ZF_DRIVER_SPI
   *DEL*:           000037H   BYTE   INSEG    CODE           ?PR?SPI_READ_8BIT_ARRAY?ZF_DRIVER_SPI
   *DEL*:           000033H   BYTE   INSEG    CODE           ?PR?SPI_WRITE_16BIT_REGISTER?ZF_DRIVER_SPI
   *DEL*:           000003H   BYTE   INSEG    CODE           ?PR?SPI_WRITE_8BIT?ZF_DRIVER_SPI
   *DEL*:           000036H   BYTE   INSEG    CODE           ?PR?SPI_WRITE_8BIT_ARRAY?ZF_DRIVER_SPI
   *DEL*:           00001DH   BYTE   INSEG    CODE           ?PR?SPI_READ_16BIT?ZF_DRIVER_SPI
   *DEL*:           000051H   BYTE   INSEG    CODE           ?PR?SPI_READ_16BIT_ARRAY?ZF_DRIVER_SPI
   *DEL*:           0003B5H   BYTE   INSEG    CODE           ?PR?SPI_INIT?ZF_DRIVER_SPI
   *DEL*:           000040H   BYTE   INSEG    CODE           ?PR?SPI_READ_8BIT_REGISTERS?ZF_DRIVER_SPI
   *DEL*:           000015H   BYTE   INSEG    CODE           ?PR?SPI_WRITE_16BIT?ZF_DRIVER_SPI
   *DEL*:           000056H   BYTE   INSEG    CODE           ?PR?SPI_READ_DAT?ZF_DRIVER_SPI
   *DEL*:           000044H   BYTE   INSEG    CODE           ?PR?SPI_WRITE_16BIT_ARRAY?ZF_DRIVER_SPI
   *DEL*:           000010H   BYTE   INSEG    CODE           ?PR?SPI_READ_8BIT_REGISTER?ZF_DRIVER_SPI
   *DEL*:           000077H   BYTE   INSEG    CODE           ?PR?SPI_TRANSFER_8BIT?ZF_DRIVER_SPI
   *DEL*:           00003CH   BYTE   INSEG    CODE           ?PR?SPI_WRITE_8BIT_REGISTERS?ZF_DRIVER_SPI
   *DEL*:           00003EH   BYTE   INSEG    CODE           ?PR?SPI_WRITE_DAT?ZF_DRIVER_SPI
   *DEL*:           000006H   BYTE   UNIT     XDATA          ?XD?SPI_WRITE_8BIT_ARRAY?ZF_DRIVER_SPI
   *DEL*:           000006H   BYTE   UNIT     XDATA          ?XD?SPI_WRITE_16BIT_ARRAY?ZF_DRIVER_SPI
   *DEL*:           000006H   BYTE   UNIT     XDATA          ?XD?SPI_WRITE_8BIT_REGISTERS?ZF_DRIVER_SPI
   *DEL*:           000002H   BYTE   UNIT     XDATA          ?XD?SPI_WRITE_16BIT_REGISTER?ZF_DRIVER_SPI
   *DEL*:           000008H   BYTE   UNIT     XDATA          ?XD?SPI_WRITE_16BIT_REGISTERS?ZF_DRIVER_SPI
   *DEL*:           000006H   BYTE   UNIT     XDATA          ?XD?SPI_READ_8BIT_ARRAY?ZF_DRIVER_SPI
   *DEL*:           000006H   BYTE   UNIT     XDATA          ?XD?SPI_READ_16BIT_ARRAY?ZF_DRIVER_SPI
   *DEL*:           000006H   BYTE   UNIT     XDATA          ?XD?SPI_READ_8BIT_REGISTERS?ZF_DRIVER_SPI
   *DEL*:           000008H   BYTE   UNIT     XDATA          ?XD?SPI_READ_16BIT_REGISTERS?ZF_DRIVER_SPI
   *DEL*:           00000AH   BYTE   UNIT     XDATA          ?XD?SPI_TRANSFER_8BIT?ZF_DRIVER_SPI
   *DEL*:           00000AH   BYTE   UNIT     XDATA          ?XD?SPI_TRANSFER_16BIT?ZF_DRIVER_SPI
   *DEL*:           000010H   BYTE   UNIT     XDATA          ?XD?SPI_INIT?ZF_DRIVER_SPI
   *DEL*:           00001DH   BYTE   INSEG    CODE           ?PR?UART_WRITE_STRING?ZF_DRIVER_UART
   *DEL*:           00003DH   BYTE   INSEG    CODE           ?PR?UART_READ_BYTE?ZF_DRIVER_UART
   *DEL*:           000002H   BYTE   UNIT     XDATA          ?XD?UART_WRITE_STRING?ZF_DRIVER_UART
   *DEL*:           00005CH   BYTE   INSEG    CODE           ?PR?BLE6A20_READ_BUFFER?ZF_DEVICE_BLE6A20
   *DEL*:           0000B5H   BYTE   INSEG    CODE           ?PR?BLE6A20_SEND_BUFFER?ZF_DEVICE_BLE6A20
   *DEL*:           00003FH   BYTE   INSEG    CODE           ?PR?BLE6A20_SEND_STRING?ZF_DEVICE_BLE6A20
   *DEL*:           000025H   BYTE   INSEG    CODE           ?PR?BLE6A20_CALLBACK?ZF_DEVICE_BLE6A20
   *DEL*:           000080H   BYTE   INSEG    CODE           ?PR?BLE6A20_INIT?ZF_DEVICE_BLE6A20
   *DEL*:           000044H   BYTE   INSEG    CODE           ?PR?BLE6A20_SEND_BYTE?ZF_DEVICE_BLE6A20
   *DEL*:           000008H   BYTE   UNIT     XDATA          ?XD?BLE6A20_SEND_BUFFER?ZF_DEVICE_BLE6A20
   *DEL*:           000004H   BYTE   UNIT     XDATA          ?XD?BLE6A20_SEND_STRING?ZF_DEVICE_BLE6A20
   *DEL*:           000004H   BYTE   UNIT     XDATA          ?XD?BLE6A20_READ_BUFFER?ZF_DEVICE_BLE6A20
   *DEL*:           000001H   BYTE   UNIT     XDATA          ?XD?BLE6A20_CALLBACK?ZF_DEVICE_BLE6A20
   *DEL*:           00003CH   BYTE   INSEG    CODE           ?PR?DL1A_TIMEOUT_MICROSECONDS_TO_MCLKS?ZF_DEVICE_DL1A
   *DEL*:           00003EH   BYTE   INSEG    CODE           ?PR?DL1A_TIMEOUT_MCLKS_TO_MICROSECONDS?ZF_DEVICE_DL1A
   *DEL*:           000074H   BYTE   INSEG    CODE           ?PR?DL1A_SET_SIGNAL_RATE_LIMIT?ZF_DEVICE_DL1A
   *DEL*:           000010H   BYTE   INSEG    CODE           ?PR?DL1A_DECODE_TIMEOUT?ZF_DEVICE_DL1A
   *DEL*:           000230H   BYTE   INSEG    CODE           ?PR?DL1A_GET_SPAD_INFO?ZF_DEVICE_DL1A
   *DEL*:           000034H   BYTE   INSEG    CODE           ?PR?DL1A_ENCODE_TIMEOUT?ZF_DEVICE_DL1A
   *DEL*:           000066H   BYTE   INSEG    CODE           ?PR?DL1A_GET_SEQUENCE_STEP_ENABLES?ZF_DEVICE_DL1A
   *DEL*:           0000C4H   BYTE   INSEG    CODE           ?PR?DL1A_GET_DISTANCE?ZF_DEVICE_DL1A
   *DEL*:           0000B9H   BYTE   INSEG    CODE           ?PR?DL1A_PERFORM_SINGLE_REF_CALIBRATION?ZF_DEVICE_DL1A
   *DEL*:           000128H   BYTE   INSEG    CODE           ?PR?DL1A_GET_SEQUENCE_STEP_TIMEOUTS?ZF_DEVICE_DL1A
   *DEL*:           000001H   BYTE   INSEG    CODE           ?PR?DL1A_INT_HANDLER?ZF_DEVICE_DL1A
   *DEL*:           00009DH   BYTE   INSEG    CODE           ?PR?DL1A_GET_MEASUREMENT_TIMING_BUDGET?ZF_DEVICE_DL1A
L251 LINKER/LOCATER V4.66.93.0                                                        01/24/2026  18:53:03  PAGE 11


   *DEL*:           000171H   BYTE   INSEG    CODE           ?PR?DL1A_SET_MEASUREMENT_TIMING_BUDGET?ZF_DEVICE_DL1A
   *DEL*:           0004A9H   BYTE   INSEG    CODE           ?PR?DL1A_INIT?ZF_DEVICE_DL1A
   *DEL*:           000078H   BYTE   INSEG    CODE           ?PR?DL1A_GET_VCSEL_PULSE_PERIOD?ZF_DEVICE_DL1A
   *DEL*:           000008H   BYTE   UNIT     XDATA          ?XD?DL1A_GET_SPAD_INFO?ZF_DEVICE_DL1A
   *DEL*:           000001H   BYTE   UNIT     XDATA          ?XD?DL1A_GET_SEQUENCE_STEP_ENABLES?ZF_DEVICE_DL1A
   *DEL*:           000001H   BYTE   UNIT     XDATA          ?XD?DL1A_GET_VCSEL_PULSE_PERIOD?ZF_DEVICE_DL1A
   *DEL*:           000008H   BYTE   UNIT     XDATA          ?XD?DL1A_GET_SEQUENCE_STEP_TIMEOUTS?ZF_DEVICE_DL1A
   *DEL*:           000003H   BYTE   UNIT     XDATA          ?XD?DL1A_PERFORM_SINGLE_REF_CALIBRATION?ZF_DEVICE_DL1A
   *DEL*:           000025H   BYTE   UNIT     XDATA          ?XD?DL1A_SET_MEASUREMENT_TIMING_BUDGET?ZF_DEVICE_DL1A
   *DEL*:           00001BH   BYTE   UNIT     XDATA          ?XD?DL1A_GET_MEASUREMENT_TIMING_BUDGET?ZF_DEVICE_DL1A
   *DEL*:           000003H   BYTE   UNIT     XDATA          ?XD?DL1A_SET_SIGNAL_RATE_LIMIT?ZF_DEVICE_DL1A
   *DEL*:           000003H   BYTE   UNIT     XDATA          ?XD?DL1A_GET_DISTANCE?ZF_DEVICE_DL1A
   *DEL*:           0000CAH   BYTE   UNIT     XDATA          ?XD?DL1A_INIT?ZF_DEVICE_DL1A
   *DEL*:           000194H   BYTE   INSEG    CODE           ?PR?DL1B_GET_DISTANCE?ZF_DEVICE_DL1B
   *DEL*:           000001H   BYTE   INSEG    CODE           ?PR?DL1B_INT_HANDLER?ZF_DEVICE_DL1B
   *DEL*:           000002H   BYTE   INSEG    CODE           ?PR?DL1B_INIT?ZF_DEVICE_DL1B
   *DEL*:           000003H   BYTE   UNIT     XDATA          ?XD?DL1B_GET_DISTANCE?ZF_DEVICE_DL1B
   *DEL*:           00004FH   BYTE   INSEG    CODE           ?PR?GET_DOUBLE_NUMBER?ZF_DEVICE_GPS_TAU1201
   *DEL*:           00004FH   BYTE   INSEG    CODE           ?PR?GET_FLOAT_NUMBER?ZF_DEVICE_GPS_TAU1201
   *DEL*:           0000B0H   BYTE   INSEG    CODE           ?PR?UTC_TO_BTC?ZF_DEVICE_GPS_TAU1201
   *DEL*:           00010AH   BYTE   INSEG    CODE           ?PR?GET_TWO_POINTS_DISTANCE?ZF_DEVICE_GPS_TAU1201
   *DEL*:           0000C5H   BYTE   INSEG    CODE           ?PR?GPS_GNGGA_PARSE?ZF_DEVICE_GPS_TAU1201
   *DEL*:           0002E0H   BYTE   INSEG    CODE           ?PR?GPS_GNRMC_PARSE?ZF_DEVICE_GPS_TAU1201
   *DEL*:           000185H   BYTE   INSEG    CODE           ?PR?GPS_DATA_PARSE?ZF_DEVICE_GPS_TAU1201
   *DEL*:           00004FH   BYTE   INSEG    CODE           ?PR?GET_INT_NUMBER?ZF_DEVICE_GPS_TAU1201
   *DEL*:           0002ABH   BYTE   INSEG    CODE           ?PR?GPS_INIT?ZF_DEVICE_GPS_TAU1201
   *DEL*:           000071H   BYTE   INSEG    CODE           ?PR?GET_PARAMETER_INDEX?ZF_DEVICE_GPS_TAU1201
   *DEL*:           0002AEH   BYTE   INSEG    CODE           ?PR?GET_TWO_POINTS_AZIMUTH?ZF_DEVICE_GPS_TAU1201
   *DEL*:           000181H   BYTE   INSEG    CODE           ?PR?GPS_UART_CALLBACK?ZF_DEVICE_GPS_TAU1201
   *DEL*:           000003H   BYTE   UNIT     XDATA          ?XD?GET_PARAMETER_INDEX?ZF_DEVICE_GPS_TAU1201
   *DEL*:           00000BH   BYTE   UNIT     XDATA          ?XD?GET_INT_NUMBER?ZF_DEVICE_GPS_TAU1201
   *DEL*:           000010H   BYTE   UNIT     XDATA          ?XD?GET_FLOAT_NUMBER?ZF_DEVICE_GPS_TAU1201
   *DEL*:           000010H   BYTE   UNIT     XDATA          ?XD?GET_DOUBLE_NUMBER?ZF_DEVICE_GPS_TAU1201
   *DEL*:           000009H   BYTE   UNIT     XDATA          ?XD?GPS_GNRMC_PARSE?ZF_DEVICE_GPS_TAU1201
   *DEL*:           000009H   BYTE   UNIT     XDATA          ?XD?GPS_GNGGA_PARSE?ZF_DEVICE_GPS_TAU1201
   *DEL*:           000014H   BYTE   UNIT     XDATA          ?XD?GET_TWO_POINTS_DISTANCE?ZF_DEVICE_GPS_TAU1201
   *DEL*:           00001CH   BYTE   UNIT     XDATA          ?XD?GET_TWO_POINTS_AZIMUTH?ZF_DEVICE_GPS_TAU1201
   *DEL*:           000008H   BYTE   UNIT     XDATA          ?XD?GPS_DATA_PARSE?ZF_DEVICE_GPS_TAU1201
   *DEL*:           00000BH   BYTE   UNIT     XDATA          ?XD?GPS_UART_CALLBACK?ZF_DEVICE_GPS_TAU1201
   *DEL*:           000095H   BYTE   UNIT     XDATA          ?XD?GPS_INIT?ZF_DEVICE_GPS_TAU1201
   *DEL*:           000016H   BYTE   INSEG    CODE           ?PR?ICM20602_READ_REGISTER?ZF_DEVICE_ICM20602
   *DEL*:           000008H   BYTE   INSEG    CODE           ?PR?ICM20602_WRITE_REGISTER?ZF_DEVICE_ICM20602
   *DEL*:           00001FH   BYTE   INSEG    CODE           ?PR?ICM20602_SIMSPI_WR_BYTE?ZF_DEVICE_ICM20602
   *DEL*:           00002DH   BYTE   INSEG    CODE           ?PR?ICM20602_SELF_CHECK?ZF_DEVICE_ICM20602
   *DEL*:           00003FH   BYTE   INSEG    CODE           ?PR?ICM20602_SIMSPI_R_REG_BYTES?ZF_DEVICE_ICM20602
   *DEL*:           000018H   BYTE   INSEG    CODE           ?PR?ICM20602_SIMSPI_R_REG_BYTE?ZF_DEVICE_ICM20602
   *DEL*:           00000FH   BYTE   INSEG    CODE           ?PR?ICM20602_SIMSPI_W_REG_BYTE?ZF_DEVICE_ICM20602
   *DEL*:           0000C5H   BYTE   INSEG    CODE           ?PR?ICM20602_INIT?ZF_DEVICE_ICM20602
   *DEL*:           000050H   BYTE   INSEG    CODE           ?PR?ICM20602_GET_ACC?ZF_DEVICE_ICM20602
   *DEL*:           000010H   BYTE   INSEG    CODE           ?PR?ICM20602_READ_REGISTERS?ZF_DEVICE_ICM20602
   *DEL*:           000050H   BYTE   INSEG    CODE           ?PR?ICM20602_GET_GYRO?ZF_DEVICE_ICM20602
   *DEL*:           000004H   BYTE   UNIT     XDATA          ?XD?ICM20602_SIMSPI_R_REG_BYTES?ZF_DEVICE_ICM20602
   *DEL*:           000001H   BYTE   UNIT     XDATA          ?XD?ICM20602_READ_REGISTER?ZF_DEVICE_ICM20602
   *DEL*:           000006H   BYTE   UNIT     XDATA          ?XD?ICM20602_GET_ACC?ZF_DEVICE_ICM20602
   *DEL*:           000006H   BYTE   UNIT     XDATA          ?XD?ICM20602_GET_GYRO?ZF_DEVICE_ICM20602
   *DEL*:           000050H   BYTE   INSEG    CODE           ?PR?IMU660RA_GET_GYRO?ZF_DEVICE_IMU660RA
   *DEL*:           00001AH   BYTE   INSEG    CODE           ?PR?IMU660RA_READ_REGISTER?ZF_DEVICE_IMU660RA
   *DEL*:           00000EH   BYTE   INSEG    CODE           ?PR?IMU660RA_WRITE_REGISTERS?ZF_DEVICE_IMU660RA
   *DEL*:           000008H   BYTE   INSEG    CODE           ?PR?IMU660RA_WRITE_REGISTER?ZF_DEVICE_IMU660RA
   *DEL*:           000021H   BYTE   INSEG    CODE           ?PR?IMU660RA_SIMSPI_WR_BYTE?ZF_DEVICE_IMU660RA
   *DEL*:           00003FH   BYTE   INSEG    CODE           ?PR?IMU660RA_SELF_CHECK?ZF_DEVICE_IMU660RA
   *DEL*:           00003FH   BYTE   INSEG    CODE           ?PR?IMU660RA_SIMSPI_R_REG_BYTES?ZF_DEVICE_IMU660RA
   *DEL*:           000034H   BYTE   INSEG    CODE           ?PR?IMU660RA_SIMSPI_W_REG_BYTES?ZF_DEVICE_IMU660RA
   *DEL*:           00000FH   BYTE   INSEG    CODE           ?PR?IMU660RA_SIMSPI_W_REG_BYTE?ZF_DEVICE_IMU660RA
   *DEL*:           0000B9H   BYTE   INSEG    CODE           ?PR?IMU660RA_INIT?ZF_DEVICE_IMU660RA
L251 LINKER/LOCATER V4.66.93.0                                                        01/24/2026  18:53:03  PAGE 12


   *DEL*:           000050H   BYTE   INSEG    CODE           ?PR?IMU660RA_GET_ACC?ZF_DEVICE_IMU660RA
   *DEL*:           000073H   BYTE   INSEG    CODE           ?PR?IMU660RA_READ_REGISTERS?ZF_DEVICE_IMU660RA
   *DEL*:           000004H   BYTE   UNIT     XDATA          ?XD?IMU660RA_SIMSPI_W_REG_BYTES?ZF_DEVICE_IMU660RA
   *DEL*:           000004H   BYTE   UNIT     XDATA          ?XD?IMU660RA_SIMSPI_R_REG_BYTES?ZF_DEVICE_IMU660RA
   *DEL*:           000002H   BYTE   UNIT     XDATA          ?XD?IMU660RA_READ_REGISTER?ZF_DEVICE_IMU660RA
   *DEL*:           00000EH   BYTE   UNIT     XDATA          ?XD?IMU660RA_READ_REGISTERS?ZF_DEVICE_IMU660RA
   *DEL*:           000006H   BYTE   UNIT     XDATA          ?XD?IMU660RA_GET_ACC?ZF_DEVICE_IMU660RA
   *DEL*:           000006H   BYTE   UNIT     XDATA          ?XD?IMU660RA_GET_GYRO?ZF_DEVICE_IMU660RA
   *DEL*:           000050H   BYTE   INSEG    CODE           ?PR?IMU963RA_GET_GYRO?ZF_DEVICE_IMU963RA
   *DEL*:           000021H   BYTE   INSEG    CODE           ?PR?IMU963RA_SIMSPI_WR_BYTE?ZF_DEVICE_IMU963RA
   *DEL*:           000052H   BYTE   INSEG    CODE           ?PR?IMU963RA_READ_MAG_REGISTER?ZF_DEVICE_IMU963RA
   *DEL*:           00002CH   BYTE   INSEG    CODE           ?PR?IMU963RA_CONNECT_MAG?ZF_DEVICE_IMU963RA
   *DEL*:           000010H   BYTE   INSEG    CODE           ?PR?IMU963RA_READ_ACC_GYRO_REGISTERS?ZF_DEVICE_IMU963RA
   *DEL*:           000064H   BYTE   INSEG    CODE           ?PR?IMU963RA_WRITE_MAG_REGISTER?ZF_DEVICE_IMU963RA
   *DEL*:           00001FH   BYTE   INSEG    CODE           ?PR?IMU963RA_READ_ACC_GYRO_REGISTER?ZF_DEVICE_IMU963RA
   *DEL*:           00003FH   BYTE   INSEG    CODE           ?PR?IMU963RA_SIMSPI_R_REG_BYTES?ZF_DEVICE_IMU963RA
   *DEL*:           00001CH   BYTE   INSEG    CODE           ?PR?IMU963RA_SIMSPI_R_REG_BYTE?ZF_DEVICE_IMU963RA
   *DEL*:           000030H   BYTE   INSEG    CODE           ?PR?IMU963RA_MAG_SELF_CHECK?ZF_DEVICE_IMU963RA
   *DEL*:           000008H   BYTE   INSEG    CODE           ?PR?IMU963RA_WRITE_ACC_GYRO_REGISTER?ZF_DEVICE_IMU963RA
   *DEL*:           000013H   BYTE   INSEG    CODE           ?PR?IMU963RA_SIMSPI_W_REG_BYTE?ZF_DEVICE_IMU963RA
   *DEL*:           000140H   BYTE   INSEG    CODE           ?PR?IMU963RA_INIT?ZF_DEVICE_IMU963RA
   *DEL*:           000040H   BYTE   INSEG    CODE           ?PR?IMU963RA_ACC_GYRO_SELF_CHECK?ZF_DEVICE_IMU963RA
   *DEL*:           000050H   BYTE   INSEG    CODE           ?PR?IMU963RA_GET_ACC?ZF_DEVICE_IMU963RA
   *DEL*:           000066H   BYTE   INSEG    CODE           ?PR?IMU963RA_GET_MAG?ZF_DEVICE_IMU963RA
   *DEL*:           000004H   BYTE   UNIT     XDATA          ?XD?IMU963RA_SIMSPI_R_REG_BYTES?ZF_DEVICE_IMU963RA
   *DEL*:           000001H   BYTE   UNIT     XDATA          ?XD?IMU963RA_READ_ACC_GYRO_REGISTER?ZF_DEVICE_IMU963RA
   *DEL*:           000002H   BYTE   UNIT     XDATA          ?XD?IMU963RA_WRITE_MAG_REGISTER?ZF_DEVICE_IMU963RA
   *DEL*:           000006H   BYTE   UNIT     XDATA          ?XD?IMU963RA_GET_ACC?ZF_DEVICE_IMU963RA
   *DEL*:           000006H   BYTE   UNIT     XDATA          ?XD?IMU963RA_GET_GYRO?ZF_DEVICE_IMU963RA
   *DEL*:           000006H   BYTE   UNIT     XDATA          ?XD?IMU963RA_GET_MAG?ZF_DEVICE_IMU963RA
   *DEL*:           00017EH   BYTE   INSEG    CODE           ?PR?IPS114_SHOW_FLOAT?ZF_DEVICE_IPS114
   *DEL*:           000063H   BYTE   INSEG    CODE           ?PR?IPS114_DRAW_POINT?ZF_DEVICE_IPS114
   *DEL*:           0000A5H   BYTE   INSEG    CODE           ?PR?IPS114_SHOW_STRING?ZF_DEVICE_IPS114
   *DEL*:           0000CEH   BYTE   INSEG    CODE           ?PR?IPS114_SHOW_CHAR?ZF_DEVICE_IPS114
   *DEL*:           0000CEH   BYTE   INSEG    CODE           ?PR?IPS114_SHOW_UINT16?ZF_DEVICE_IPS114
   *DEL*:           00000DH   BYTE   INSEG    CODE           ?PR?IPS114_SET_COLOR?ZF_DEVICE_IPS114
   *DEL*:           000102H   BYTE   INSEG    CODE           ?PR?IPS114_SHOW_INT32?ZF_DEVICE_IPS114
   *DEL*:           000119H   BYTE   INSEG    CODE           ?PR?IPS114_SHOW_INT16?ZF_DEVICE_IPS114
   *DEL*:           0001A6H   BYTE   INSEG    CODE           ?PR?IPS114_SHOW_WAVE?ZF_DEVICE_IPS114
   *DEL*:           000023H   BYTE   INSEG    CODE           ?PR?IPS114_SET_DIR?ZF_DEVICE_IPS114
   *DEL*:           00019FH   BYTE   INSEG    CODE           ?PR?IPS114_SHOW_CHINESE?ZF_DEVICE_IPS114
   *DEL*:           000059H   BYTE   INSEG    CODE           ?PR?IPS114_CLEAR?ZF_DEVICE_IPS114
   *DEL*:           0000BAH   BYTE   INSEG    CODE           ?PR?IPS114_SHOW_UINT8?ZF_DEVICE_IPS114
   *DEL*:           0000E5H   BYTE   INSEG    CODE           ?PR?IPS114_SHOW_INT8?ZF_DEVICE_IPS114
   *DEL*:           000014H   BYTE   INSEG    CODE           ?PR?IPS114_WRITE_INDEX?ZF_DEVICE_IPS114
   *DEL*:           0001B3H   BYTE   INSEG    CODE           ?PR?IPS114_SET_REGION?ZF_DEVICE_IPS114
   *DEL*:           0002A5H   BYTE   INSEG    CODE           ?PR?IPS114_INIT?ZF_DEVICE_IPS114
   *DEL*:           000004H   BYTE   UNIT     XDATA          ?XD?IPS114_SET_REGION?ZF_DEVICE_IPS114
   *DEL*:           000002H   BYTE   UNIT     XDATA          ?XD?IPS114_CLEAR?ZF_DEVICE_IPS114
   *DEL*:           000002H   BYTE   UNIT     XDATA          ?XD?IPS114_DRAW_POINT?ZF_DEVICE_IPS114
   *DEL*:           000004H   BYTE   UNIT     XDATA          ?XD?IPS114_SHOW_CHAR?ZF_DEVICE_IPS114
   *DEL*:           000006H   BYTE   UNIT     XDATA          ?XD?IPS114_SHOW_STRING?ZF_DEVICE_IPS114
   *DEL*:           000005H   BYTE   UNIT     XDATA          ?XD?IPS114_SHOW_INT8?ZF_DEVICE_IPS114
   *DEL*:           000005H   BYTE   UNIT     XDATA          ?XD?IPS114_SHOW_UINT8?ZF_DEVICE_IPS114
   *DEL*:           000008H   BYTE   UNIT     XDATA          ?XD?IPS114_SHOW_INT16?ZF_DEVICE_IPS114
   *DEL*:           000008H   BYTE   UNIT     XDATA          ?XD?IPS114_SHOW_UINT16?ZF_DEVICE_IPS114
   *DEL*:           000028H   BYTE   UNIT     XDATA          ?XD?IPS114_SHOW_INT32?ZF_DEVICE_IPS114
   *DEL*:           00002BH   BYTE   UNIT     XDATA          ?XD?IPS114_SHOW_FLOAT?ZF_DEVICE_IPS114
   *DEL*:           00001CH   BYTE   UNIT     XDATA          ?XD?IPS114_SHOW_WAVE?ZF_DEVICE_IPS114
   *DEL*:           000015H   BYTE   UNIT     XDATA          ?XD?IPS114_SHOW_CHINESE?ZF_DEVICE_IPS114
   *DEL*:           00017EH   BYTE   INSEG    CODE           ?PR?IPS200_SHOW_FLOAT?ZF_DEVICE_IPS200
   *DEL*:           000063H   BYTE   INSEG    CODE           ?PR?IPS200_DRAW_POINT?ZF_DEVICE_IPS200
   *DEL*:           0000A5H   BYTE   INSEG    CODE           ?PR?IPS200_SHOW_STRING?ZF_DEVICE_IPS200
   *DEL*:           0000CEH   BYTE   INSEG    CODE           ?PR?IPS200_SHOW_CHAR?ZF_DEVICE_IPS200
   *DEL*:           0000CEH   BYTE   INSEG    CODE           ?PR?IPS200_SHOW_UINT16?ZF_DEVICE_IPS200
L251 LINKER/LOCATER V4.66.93.0                                                        01/24/2026  18:53:03  PAGE 13


   *DEL*:           00000DH   BYTE   INSEG    CODE           ?PR?IPS200_SET_COLOR?ZF_DEVICE_IPS200
   *DEL*:           000102H   BYTE   INSEG    CODE           ?PR?IPS200_SHOW_INT32?ZF_DEVICE_IPS200
   *DEL*:           000119H   BYTE   INSEG    CODE           ?PR?IPS200_SHOW_INT16?ZF_DEVICE_IPS200
   *DEL*:           0001A6H   BYTE   INSEG    CODE           ?PR?IPS200_SHOW_WAVE?ZF_DEVICE_IPS200
   *DEL*:           000007H   BYTE   INSEG    CODE           ?PR?IPS200_SET_DIR?ZF_DEVICE_IPS200
   *DEL*:           00019FH   BYTE   INSEG    CODE           ?PR?IPS200_SHOW_CHINESE?ZF_DEVICE_IPS200
   *DEL*:           000059H   BYTE   INSEG    CODE           ?PR?IPS200_CLEAR?ZF_DEVICE_IPS200
   *DEL*:           0000BAH   BYTE   INSEG    CODE           ?PR?IPS200_SHOW_UINT8?ZF_DEVICE_IPS200
   *DEL*:           0000E5H   BYTE   INSEG    CODE           ?PR?IPS200_SHOW_INT8?ZF_DEVICE_IPS200
   *DEL*:           000014H   BYTE   INSEG    CODE           ?PR?IPS200_WRITE_INDEX?ZF_DEVICE_IPS200
   *DEL*:           0000D4H   BYTE   INSEG    CODE           ?PR?IPS200_SET_REGION?ZF_DEVICE_IPS200
   *DEL*:           0002A5H   BYTE   INSEG    CODE           ?PR?IPS200_INIT?ZF_DEVICE_IPS200
   *DEL*:           000004H   BYTE   UNIT     XDATA          ?XD?IPS200_SET_REGION?ZF_DEVICE_IPS200
   *DEL*:           000002H   BYTE   UNIT     XDATA          ?XD?IPS200_CLEAR?ZF_DEVICE_IPS200
   *DEL*:           000002H   BYTE   UNIT     XDATA          ?XD?IPS200_DRAW_POINT?ZF_DEVICE_IPS200
   *DEL*:           000004H   BYTE   UNIT     XDATA          ?XD?IPS200_SHOW_CHAR?ZF_DEVICE_IPS200
   *DEL*:           000006H   BYTE   UNIT     XDATA          ?XD?IPS200_SHOW_STRING?ZF_DEVICE_IPS200
   *DEL*:           000005H   BYTE   UNIT     XDATA          ?XD?IPS200_SHOW_INT8?ZF_DEVICE_IPS200
   *DEL*:           000005H   BYTE   UNIT     XDATA          ?XD?IPS200_SHOW_UINT8?ZF_DEVICE_IPS200
   *DEL*:           000008H   BYTE   UNIT     XDATA          ?XD?IPS200_SHOW_INT16?ZF_DEVICE_IPS200
   *DEL*:           000008H   BYTE   UNIT     XDATA          ?XD?IPS200_SHOW_UINT16?ZF_DEVICE_IPS200
   *DEL*:           000028H   BYTE   UNIT     XDATA          ?XD?IPS200_SHOW_INT32?ZF_DEVICE_IPS200
   *DEL*:           00002BH   BYTE   UNIT     XDATA          ?XD?IPS200_SHOW_FLOAT?ZF_DEVICE_IPS200
   *DEL*:           00001CH   BYTE   UNIT     XDATA          ?XD?IPS200_SHOW_WAVE?ZF_DEVICE_IPS200
   *DEL*:           000015H   BYTE   UNIT     XDATA          ?XD?IPS200_SHOW_CHINESE?ZF_DEVICE_IPS200
   *DEL*:           00004BH   BYTE   INSEG    CODE           ?PR?IPS200PRO_PROGRESS_BAR_CREATE?ZF_DEVICE_IPS200PRO
   *DEL*:           000040H   BYTE   INSEG    CODE           ?PR?IPS200PRO_SET_CRC_STATE?ZF_DEVICE_IPS200PRO
   *DEL*:           00004BH   BYTE   INSEG    CODE           ?PR?IPS200PRO_TABLE_SELECT?ZF_DEVICE_IPS200PRO
   *DEL*:           000013H   BYTE   INSEG    CODE           ?PR?IPS200PRO_PAGE_HIDDEN?ZF_DEVICE_IPS200PRO
   *DEL*:           00003EH   BYTE   INSEG    CODE           ?PR?IPS200PRO_SET_DIRECTION?ZF_DEVICE_IPS200PRO
   *DEL*:           000067H   BYTE   INSEG    CODE           ?PR?IPS200PRO_PAGE_CREATE?ZF_DEVICE_IPS200PRO
   *DEL*:           00007BH   BYTE   INSEG    CODE           ?PR?IPS200PRO_WAVEFORM_ADD_VALUE?ZF_DEVICE_IPS200PRO
   *DEL*:           00004BH   BYTE   INSEG    CODE           ?PR?IPS200PRO_METER_CREATE?ZF_DEVICE_IPS200PRO
   *DEL*:           0000AAH   BYTE   INSEG    CODE           ?PR?IPS200PRO_LABEL_PRINTF?ZF_DEVICE_IPS200PRO
   *DEL*:           000047H   BYTE   INSEG    CODE           ?PR?IPS200PRO_WAVEFORM_LINE_STATE?ZF_DEVICE_IPS200PRO
   *DEL*:           0000E1H   BYTE   INSEG    CODE           ?PR?IPS200PRO_TABLE_CELL_PRINTF?ZF_DEVICE_IPS200PRO
   *DEL*:           0000FEH   BYTE   INSEG    CODE           ?PR?IPS200PRO_WRITE_PACKET?ZF_DEVICE_IPS200PRO
   *DEL*:           000080H   BYTE   INSEG    CODE           ?PR?IPS200PRO_SEND_BUFFER?ZF_DEVICE_IPS200PRO
   *DEL*:           000041H   BYTE   INSEG    CODE           ?PR?IPS200PRO_LABEL_MODE?ZF_DEVICE_IPS200PRO
   *DEL*:           00003FH   BYTE   INSEG    CODE           ?PR?IPS200PRO_PAGE_SWITCH?ZF_DEVICE_IPS200PRO
   *DEL*:           000020H   BYTE   INSEG    CODE           ?PR?IPS200PRO_CALENDAR_CREATE?ZF_DEVICE_IPS200PRO
   *DEL*:           00005BH   BYTE   INSEG    CODE           ?PR?IPS200PRO_CALENDAR_DISPLAY?ZF_DEVICE_IPS200PRO
   *DEL*:           000043H   BYTE   INSEG    CODE           ?PR?IPS200PRO_WAVEFORM_LINE_TYPE?ZF_DEVICE_IPS200PRO
   *DEL*:           000041H   BYTE   INSEG    CODE           ?PR?IPS200PRO_SET_HIDDEN?ZF_DEVICE_IPS200PRO
   *DEL*:           00004BH   BYTE   INSEG    CODE           ?PR?IPS200PRO_CONTAINER_CREATE?ZF_DEVICE_IPS200PRO
   *DEL*:           0000A8H   BYTE   INSEG    CODE           ?PR?IPS200PRO_IMAGE_DRAW_LINE?ZF_DEVICE_IPS200PRO
   *DEL*:           000061H   BYTE   INSEG    CODE           ?PR?IPS200PRO_LABEL_SHOW_STRING?ZF_DEVICE_IPS200PRO
   *DEL*:           000040H   BYTE   INSEG    CODE           ?PR?IPS200PRO_SET_OPTIMIZE?ZF_DEVICE_IPS200PRO
   *DEL*:           000047H   BYTE   INSEG    CODE           ?PR?IPS200PRO_SET_POSITION?ZF_DEVICE_IPS200PRO
   *DEL*:           00003EH   BYTE   INSEG    CODE           ?PR?IPS200PRO_SET_DEFAULT_FONT?ZF_DEVICE_IPS200PRO
   *DEL*:           000047H   BYTE   INSEG    CODE           ?PR?IPS200PRO_PAGE_SET_TITLE_POSITION_WIDTH?ZF_DEVICE_IPS2
                                                             -00PRO
   *DEL*:           000080H   BYTE   INSEG    CODE           ?PR?IPS200PRO_IMAGE_DRAW_RECTANGLE?ZF_DEVICE_IPS200PRO
   *DEL*:           0000D5H   BYTE   INSEG    CODE           ?PR?IPS200PRO_INIT?ZF_DEVICE_IPS200PRO
   *DEL*:           000047H   BYTE   INSEG    CODE           ?PR?IPS200PRO_CONTAINER_RADIUS?ZF_DEVICE_IPS200PRO
   *DEL*:           000031H   BYTE   INSEG    CODE           ?PR?IPS200PRO_WAIT_IDLE?ZF_DEVICE_IPS200PRO
   *DEL*:           00003EH   BYTE   INSEG    CODE           ?PR?IPS200PRO_SET_FORMAT?ZF_DEVICE_IPS200PRO
   *DEL*:           000044H   BYTE   INSEG    CODE           ?PR?IPS200PRO_SET_PARENT?ZF_DEVICE_IPS200PRO
   *DEL*:           00004BH   BYTE   INSEG    CODE           ?PR?IPS200PRO_PROGRESS_BAR_SET_VALUE?ZF_DEVICE_IPS200PRO
   *DEL*:           000037H   BYTE   INSEG    CODE           ?PR?IPS200PRO_GET_DATE?ZF_DEVICE_IPS200PRO
   *DEL*:           00004BH   BYTE   INSEG    CODE           ?PR?IPS200PRO_WAVEFORM_CREATE?ZF_DEVICE_IPS200PRO
   *DEL*:           000056H   BYTE   INSEG    CODE           ?PR?IPS200PRO_READ_PARAMETER?ZF_DEVICE_IPS200PRO
   *DEL*:           000083H   BYTE   INSEG    CODE           ?PR?IPS200PRO_RECEIVE_BUFFER?ZF_DEVICE_IPS200PRO
   *DEL*:           000056H   BYTE   INSEG    CODE           ?PR?IPS200PRO_SET_DATE?ZF_DEVICE_IPS200PRO
   *DEL*:           000041H   BYTE   INSEG    CODE           ?PR?IPS200PRO_METER_SET_VALUE?ZF_DEVICE_IPS200PRO
L251 LINKER/LOCATER V4.66.93.0                                                        01/24/2026  18:53:03  PAGE 14


   *DEL*:           000047H   BYTE   INSEG    CODE           ?PR?IPS200PRO_SET_COLOR?ZF_DEVICE_IPS200PRO
   *DEL*:           00003FH   BYTE   INSEG    CODE           ?PR?IPS200PRO_GET_INFORMATION?ZF_DEVICE_IPS200PRO
   *DEL*:           000039H   BYTE   INSEG    CODE           ?PR?IPS200PRO_DELETE_WIDGETS?ZF_DEVICE_IPS200PRO
   *DEL*:           000039H   BYTE   INSEG    CODE           ?PR?IPS200PRO_GET_TIME?ZF_DEVICE_IPS200PRO
   *DEL*:           000073H   BYTE   INSEG    CODE           ?PR?IPS200PRO_CREATE_WIDGETS?ZF_DEVICE_IPS200PRO
   *DEL*:           00003BH   BYTE   INSEG    CODE           ?PR?IPS200PRO_WAVEFORM_CLEAR?ZF_DEVICE_IPS200PRO
   *DEL*:           00004FH   BYTE   INSEG    CODE           ?PR?IPS200PRO_PAGE_SET_TITLE_NAME?ZF_DEVICE_IPS200PRO
   *DEL*:           00004BH   BYTE   INSEG    CODE           ?PR?IPS200PRO_LABEL_CREATE?ZF_DEVICE_IPS200PRO
   *DEL*:           000049H   BYTE   INSEG    CODE           ?PR?IPS200PRO_TABLE_SET_COL_WIDTH?ZF_DEVICE_IPS200PRO
   *DEL*:           000040H   BYTE   INSEG    CODE           ?PR?IPS200PRO_SET_BACKLIGHT?ZF_DEVICE_IPS200PRO
   *DEL*:           00004BH   BYTE   INSEG    CODE           ?PR?IPS200PRO_IMAGE_CREATE?ZF_DEVICE_IPS200PRO
   *DEL*:           000030H   BYTE   INSEG    CODE           ?PR?IPS200PRO_GET_FREE_STACK_SIZE?ZF_DEVICE_IPS200PRO
   *DEL*:           000068H   BYTE   INSEG    CODE           ?PR?IPS200PRO_SET_TIME?ZF_DEVICE_IPS200PRO
   *DEL*:           000149H   BYTE   INSEG    CODE           ?PR?IPS200PRO_IMAGE_DISPLAY?ZF_DEVICE_IPS200PRO
   *DEL*:           00004BH   BYTE   INSEG    CODE           ?PR?IPS200PRO_TABLE_CREATE?ZF_DEVICE_IPS200PRO
   *DEL*:           00004BH   BYTE   INSEG    CODE           ?PR?IPS200PRO_CLOCK_CREATE?ZF_DEVICE_IPS200PRO
   *DEL*:           00003FH   BYTE   INSEG    CODE           ?PR?IPS200PRO_SET_FONT?ZF_DEVICE_IPS200PRO
   *DEL*:           00000AH   BYTE   UNIT     XDATA          ?XD?IPS200PRO_SEND_BUFFER?ZF_DEVICE_IPS200PRO
   *DEL*:           000009H   BYTE   UNIT     XDATA          ?XD?IPS200PRO_RECEIVE_BUFFER?ZF_DEVICE_IPS200PRO
   *DEL*:           00000CH   BYTE   UNIT     XDATA          ?XD?IPS200PRO_WRITE_PACKET?ZF_DEVICE_IPS200PRO
   *DEL*:           000001H   BYTE   UNIT     XDATA          ?XD?IPS200PRO_READ_PARAMETER?ZF_DEVICE_IPS200PRO
   *DEL*:           00000CH   BYTE   UNIT     XDATA          ?XD?IPS200PRO_SET_DATE?ZF_DEVICE_IPS200PRO
   *DEL*:           00000CH   BYTE   UNIT     XDATA          ?XD?IPS200PRO_SET_TIME?ZF_DEVICE_IPS200PRO
   *DEL*:           00000CH   BYTE   UNIT     XDATA          ?XD?IPS200PRO_SET_PARENT?ZF_DEVICE_IPS200PRO
   *DEL*:           00000AH   BYTE   UNIT     XDATA          ?XD?IPS200PRO_SET_FORMAT?ZF_DEVICE_IPS200PRO
   *DEL*:           00000AH   BYTE   UNIT     XDATA          ?XD?IPS200PRO_SET_BACKLIGHT?ZF_DEVICE_IPS200PRO
   *DEL*:           00000AH   BYTE   UNIT     XDATA          ?XD?IPS200PRO_SET_DIRECTION?ZF_DEVICE_IPS200PRO
   *DEL*:           00000AH   BYTE   UNIT     XDATA          ?XD?IPS200PRO_SET_CRC_STATE?ZF_DEVICE_IPS200PRO
   *DEL*:           00000AH   BYTE   UNIT     XDATA          ?XD?IPS200PRO_SET_DEFAULT_FONT?ZF_DEVICE_IPS200PRO
   *DEL*:           00000AH   BYTE   UNIT     XDATA          ?XD?IPS200PRO_SET_OPTIMIZE?ZF_DEVICE_IPS200PRO
   *DEL*:           00000DH   BYTE   UNIT     XDATA          ?XD?IPS200PRO_GET_DATE?ZF_DEVICE_IPS200PRO
   *DEL*:           00000DH   BYTE   UNIT     XDATA          ?XD?IPS200PRO_GET_TIME?ZF_DEVICE_IPS200PRO
   *DEL*:           000011H   BYTE   UNIT     XDATA          ?XD?IPS200PRO_GET_INFORMATION?ZF_DEVICE_IPS200PRO
   *DEL*:           00000CH   BYTE   UNIT     XDATA          ?XD?IPS200PRO_GET_FREE_STACK_SIZE?ZF_DEVICE_IPS200PRO
   *DEL*:           000012H   BYTE   UNIT     XDATA          ?XD?IPS200PRO_CREATE_WIDGETS?ZF_DEVICE_IPS200PRO
   *DEL*:           000008H   BYTE   UNIT     XDATA          ?XD?IPS200PRO_DELETE_WIDGETS?ZF_DEVICE_IPS200PRO
   *DEL*:           00000AH   BYTE   UNIT     XDATA          ?XD?IPS200PRO_SET_FONT?ZF_DEVICE_IPS200PRO
   *DEL*:           00000CH   BYTE   UNIT     XDATA          ?XD?IPS200PRO_SET_COLOR?ZF_DEVICE_IPS200PRO
   *DEL*:           00000CH   BYTE   UNIT     XDATA          ?XD?IPS200PRO_SET_POSITION?ZF_DEVICE_IPS200PRO
   *DEL*:           00000AH   BYTE   UNIT     XDATA          ?XD?IPS200PRO_SET_HIDDEN?ZF_DEVICE_IPS200PRO
   *DEL*:           000001H   BYTE   UNIT     XDATA          ?XD?IPS200PRO_PAGE_CREATE?ZF_DEVICE_IPS200PRO
   *DEL*:           00000AH   BYTE   UNIT     XDATA          ?XD?IPS200PRO_PAGE_SWITCH?ZF_DEVICE_IPS200PRO
   *DEL*:           00000AH   BYTE   UNIT     XDATA          ?XD?IPS200PRO_PAGE_SET_TITLE_NAME?ZF_DEVICE_IPS200PRO
   *DEL*:           00000CH   BYTE   UNIT     XDATA          ?XD?IPS200PRO_PAGE_SET_TITLE_POSITION_WIDTH?ZF_DEVICE_IPS2
                                                             -00PRO
   *DEL*:           000036H   BYTE   UNIT     XDATA          ?XD?IPS200PRO_LABEL_PRINTF?ZF_DEVICE_IPS200PRO
   *DEL*:           00000AH   BYTE   UNIT     XDATA          ?XD?IPS200PRO_LABEL_SHOW_STRING?ZF_DEVICE_IPS200PRO
   *DEL*:           00000AH   BYTE   UNIT     XDATA          ?XD?IPS200PRO_LABEL_MODE?ZF_DEVICE_IPS200PRO
   *DEL*:           000041H   BYTE   UNIT     XDATA          ?XD?IPS200PRO_TABLE_CELL_PRINTF?ZF_DEVICE_IPS200PRO
   *DEL*:           00000CH   BYTE   UNIT     XDATA          ?XD?IPS200PRO_TABLE_SET_COL_WIDTH?ZF_DEVICE_IPS200PRO
   *DEL*:           00000CH   BYTE   UNIT     XDATA          ?XD?IPS200PRO_TABLE_SELECT?ZF_DEVICE_IPS200PRO
   *DEL*:           00000AH   BYTE   UNIT     XDATA          ?XD?IPS200PRO_METER_SET_VALUE?ZF_DEVICE_IPS200PRO
   *DEL*:           00000CH   BYTE   UNIT     XDATA          ?XD?IPS200PRO_PROGRESS_BAR_SET_VALUE?ZF_DEVICE_IPS200PRO
   *DEL*:           00000CH   BYTE   UNIT     XDATA          ?XD?IPS200PRO_CALENDAR_DISPLAY?ZF_DEVICE_IPS200PRO
   *DEL*:           00000EH   BYTE   UNIT     XDATA          ?XD?IPS200PRO_WAVEFORM_ADD_VALUE?ZF_DEVICE_IPS200PRO
   *DEL*:           00000CH   BYTE   UNIT     XDATA          ?XD?IPS200PRO_WAVEFORM_LINE_STATE?ZF_DEVICE_IPS200PRO
   *DEL*:           00000AH   BYTE   UNIT     XDATA          ?XD?IPS200PRO_WAVEFORM_LINE_TYPE?ZF_DEVICE_IPS200PRO
   *DEL*:           000008H   BYTE   UNIT     XDATA          ?XD?IPS200PRO_WAVEFORM_CLEAR?ZF_DEVICE_IPS200PRO
   *DEL*:           00001FH   BYTE   UNIT     XDATA          ?XD?IPS200PRO_IMAGE_DISPLAY?ZF_DEVICE_IPS200PRO
   *DEL*:           000010H   BYTE   UNIT     XDATA          ?XD?IPS200PRO_IMAGE_DRAW_LINE?ZF_DEVICE_IPS200PRO
   *DEL*:           000018H   BYTE   UNIT     XDATA          ?XD?IPS200PRO_IMAGE_DRAW_RECTANGLE?ZF_DEVICE_IPS200PRO
   *DEL*:           00000CH   BYTE   UNIT     XDATA          ?XD?IPS200PRO_CONTAINER_RADIUS?ZF_DEVICE_IPS200PRO
   *DEL*:           000005H   BYTE   UNIT     XDATA          ?XD?IPS200PRO_INIT?ZF_DEVICE_IPS200PRO
   *DEL*:           000129H   BYTE   INSEG    CODE           ?PR?TFT180_SET_REGION?ZF_DEVICE_TFT180
   *DEL*:           00035EH   BYTE   INSEG    CODE           ?PR?TFT180_INIT?ZF_DEVICE_TFT180
L251 LINKER/LOCATER V4.66.93.0                                                        01/24/2026  18:53:03  PAGE 15


   *DEL*:           00017EH   BYTE   INSEG    CODE           ?PR?TFT180_SHOW_FLOAT?ZF_DEVICE_TFT180
   *DEL*:           000063H   BYTE   INSEG    CODE           ?PR?TFT180_DRAW_POINT?ZF_DEVICE_TFT180
   *DEL*:           0000A5H   BYTE   INSEG    CODE           ?PR?TFT180_SHOW_STRING?ZF_DEVICE_TFT180
   *DEL*:           0000CEH   BYTE   INSEG    CODE           ?PR?TFT180_SHOW_CHAR?ZF_DEVICE_TFT180
   *DEL*:           0000CEH   BYTE   INSEG    CODE           ?PR?TFT180_SHOW_UINT16?ZF_DEVICE_TFT180
   *DEL*:           00000DH   BYTE   INSEG    CODE           ?PR?TFT180_SET_COLOR?ZF_DEVICE_TFT180
   *DEL*:           000102H   BYTE   INSEG    CODE           ?PR?TFT180_SHOW_INT32?ZF_DEVICE_TFT180
   *DEL*:           000119H   BYTE   INSEG    CODE           ?PR?TFT180_SHOW_INT16?ZF_DEVICE_TFT180
   *DEL*:           0001A6H   BYTE   INSEG    CODE           ?PR?TFT180_SHOW_WAVE?ZF_DEVICE_TFT180
   *DEL*:           000023H   BYTE   INSEG    CODE           ?PR?TFT180_SET_DIR?ZF_DEVICE_TFT180
   *DEL*:           000065H   BYTE   INSEG    CODE           ?PR?TFT180_CLEAR?ZF_DEVICE_TFT180
   *DEL*:           0000BAH   BYTE   INSEG    CODE           ?PR?TFT180_SHOW_UINT8?ZF_DEVICE_TFT180
   *DEL*:           0000E5H   BYTE   INSEG    CODE           ?PR?TFT180_SHOW_INT8?ZF_DEVICE_TFT180
   *DEL*:           000014H   BYTE   INSEG    CODE           ?PR?TFT180_WRITE_INDEX?ZF_DEVICE_TFT180
   *DEL*:           000004H   BYTE   UNIT     XDATA          ?XD?TFT180_SET_REGION?ZF_DEVICE_TFT180
   *DEL*:           000004H   BYTE   UNIT     XDATA          ?XD?TFT180_CLEAR?ZF_DEVICE_TFT180
   *DEL*:           000002H   BYTE   UNIT     XDATA          ?XD?TFT180_DRAW_POINT?ZF_DEVICE_TFT180
   *DEL*:           000004H   BYTE   UNIT     XDATA          ?XD?TFT180_SHOW_CHAR?ZF_DEVICE_TFT180
   *DEL*:           000006H   BYTE   UNIT     XDATA          ?XD?TFT180_SHOW_STRING?ZF_DEVICE_TFT180
   *DEL*:           000005H   BYTE   UNIT     XDATA          ?XD?TFT180_SHOW_INT8?ZF_DEVICE_TFT180
   *DEL*:           000005H   BYTE   UNIT     XDATA          ?XD?TFT180_SHOW_UINT8?ZF_DEVICE_TFT180
   *DEL*:           000008H   BYTE   UNIT     XDATA          ?XD?TFT180_SHOW_INT16?ZF_DEVICE_TFT180
   *DEL*:           000008H   BYTE   UNIT     XDATA          ?XD?TFT180_SHOW_UINT16?ZF_DEVICE_TFT180
   *DEL*:           000028H   BYTE   UNIT     XDATA          ?XD?TFT180_SHOW_INT32?ZF_DEVICE_TFT180
   *DEL*:           00002BH   BYTE   UNIT     XDATA          ?XD?TFT180_SHOW_FLOAT?ZF_DEVICE_TFT180
   *DEL*:           00001CH   BYTE   UNIT     XDATA          ?XD?TFT180_SHOW_WAVE?ZF_DEVICE_TFT180
   *DEL*:           00006EH   BYTE   INSEG    CODE           ?PR?TSL1401_SEND_DATA?ZF_DEVICE_TSL1401
   *DEL*:           00003AH   BYTE   INSEG    CODE           ?PR?TSL1401_INIT?ZF_DEVICE_TSL1401
   *DEL*:           000097H   BYTE   INSEG    CODE           ?PR?TSL1401_COLLECT_PIT_HANDLER?ZF_DEVICE_TSL1401
   *DEL*:           00000DH   BYTE   INSEG    CODE           ?PR?SET_TOF_TYPE?ZF_DEVICE_TYPE
   *DEL*:           00003AH   BYTE   INSEG    CODE           ?PR?SET_GPS_TYPE?ZF_DEVICE_TYPE
   *DEL*:           00003AH   BYTE   INSEG    CODE           ?PR?SET_WIRELESS_TYPE?ZF_DEVICE_TYPE
   *DEL*:           0000B5H   BYTE   INSEG    CODE           ?PR?WIRELESS_UART_SEND_BUFFER?ZF_DEVICE_WIRELESS_UART
   *DEL*:           00003FH   BYTE   INSEG    CODE           ?PR?WIRELESS_UART_SEND_STRING?ZF_DEVICE_WIRELESS_UART
   *DEL*:           000025H   BYTE   INSEG    CODE           ?PR?WIRELESS_UART_CALLBACK?ZF_DEVICE_WIRELESS_UART
   *DEL*:           000079H   BYTE   INSEG    CODE           ?PR?WIRELESS_UART_INIT?ZF_DEVICE_WIRELESS_UART
   *DEL*:           000044H   BYTE   INSEG    CODE           ?PR?WIRELESS_UART_SEND_BYTE?ZF_DEVICE_WIRELESS_UART
   *DEL*:           00005CH   BYTE   INSEG    CODE           ?PR?WIRELESS_UART_READ_BUFFER?ZF_DEVICE_WIRELESS_UART
   *DEL*:           000008H   BYTE   UNIT     XDATA          ?XD?WIRELESS_UART_SEND_BUFFER?ZF_DEVICE_WIRELESS_UART
   *DEL*:           000004H   BYTE   UNIT     XDATA          ?XD?WIRELESS_UART_SEND_STRING?ZF_DEVICE_WIRELESS_UART
   *DEL*:           000004H   BYTE   UNIT     XDATA          ?XD?WIRELESS_UART_READ_BUFFER?ZF_DEVICE_WIRELESS_UART
   *DEL*:           000001H   BYTE   UNIT     XDATA          ?XD?WIRELESS_UART_CALLBACK?ZF_DEVICE_WIRELESS_UART
   *DEL*:           000332H   BYTE   INSEG    CODE           ?PR?SEEKFREE_ASSISTANT_CAMERA_BOUNDARY_CONFIG?SEEKFREE_ASS
                                                             -ISTANT
   *DEL*:           0000CAH   BYTE   INSEG    CODE           ?PR?SEEKFREE_ASSISTANT_CAMERA_DOT_SEND?SEEKFREE_ASSISTANT
   *DEL*:           0000CAH   BYTE   INSEG    CODE           ?PR?SEEKFREE_ASSISTANT_OSCILLOSCOPE_SEND?SEEKFREE_ASSISTAN
                                                             -T
   *DEL*:           00002DH   BYTE   INSEG    CODE           ?PR?SEEKFREE_ASSISTANT_INIT?SEEKFREE_ASSISTANT
   *DEL*:           000017H   BYTE   INSEG    CODE           ?PR?SEEKFREE_ASSISTANT_SUM?SEEKFREE_ASSISTANT
   *DEL*:           000035H   BYTE   INSEG    CODE           ?PR?SEEKFREE_ASSISTANT_CAMERA_INFORMATION_CONFIG?SEEKFREE_
                                                             -ASSISTANT
   *DEL*:           00019CH   BYTE   INSEG    CODE           ?PR?SEEKFREE_ASSISTANT_DATA_ANALYSIS?SEEKFREE_ASSISTANT
   *DEL*:           0000F8H   BYTE   INSEG    CODE           ?PR?SEEKFREE_ASSISTANT_CAMERA_DATA_SEND?SEEKFREE_ASSISTANT
   *DEL*:           00003FH   BYTE   INSEG    CODE           ?PR?SEEKFREE_ASSISTANT_CAMERA_SEND?SEEKFREE_ASSISTANT
   *DEL*:           00000AH   BYTE   UNIT     XDATA          ?XD?SEEKFREE_ASSISTANT_CAMERA_DATA_SEND?SEEKFREE_ASSISTANT
   *DEL*:           000002H   BYTE   UNIT     XDATA          ?XD?SEEKFREE_ASSISTANT_CAMERA_INFORMATION_CONFIG?SEEKFREE_
                                                             -ASSISTANT
   *DEL*:           000024H   BYTE   UNIT     XDATA          ?XD?SEEKFREE_ASSISTANT_OSCILLOSCOPE_SEND?SEEKFREE_ASSISTAN
                                                             -T
   *DEL*:           000003H   BYTE   UNIT     XDATA          ?XD?SEEKFREE_ASSISTANT_CAMERA_DOT_SEND?SEEKFREE_ASSISTANT
   *DEL*:           000014H   BYTE   UNIT     XDATA          ?XD?SEEKFREE_ASSISTANT_CAMERA_BOUNDARY_CONFIG?SEEKFREE_ASS
                                                             -ISTANT
   *DEL*:           000085H   BYTE   UNIT     XDATA          ?XD?SEEKFREE_ASSISTANT_DATA_ANALYSIS?SEEKFREE_ASSISTANT
   *DEL*:           000000H.1 BIT    UNIT     BIT            ?BI?SEEKFREE_ASSISTANT_DATA_ANALYSIS?SEEKFREE_ASSISTANT
   *DEL*:           000041H   BYTE   INSEG    CODE           ?PR?SEEKFREE_ASSISTANT_INTERFACE_INIT?SEEKFREE_ASSISTANT_I
L251 LINKER/LOCATER V4.66.93.0                                                        01/24/2026  18:53:03  PAGE 16


                                                             -NTERFACE
   *DEL*:           000082H   BYTE   INSEG    CODE           ?PR?MOTOR_TEST?MOTOR
   *DEL*:           000028H   BYTE   INSEG    CODE           ?PR?MOTOR_FANSET?MOTOR
   *DEL*:           000081H   BYTE   INSEG    CODE           ?PR?KEY_READ?KEY
   *DEL*:           00002AH   BYTE   INSEG    CODE           ?PR?KEY_DISP?KEY
   *DEL*:           0000B7H   BYTE   INSEG    CODE           ?PR?ADC_TEST?ADC
   *DEL*:           00005EH   BYTE   INSEG    CODE           ?PR?ADC_MID_SAMPLE?ADC
   *DEL*:           000051H   BYTE   INSEG    CODE           ?PR?ADC_GETVAL_QUICK?ADC
   *DEL*:           000051H   BYTE   INSEG    CODE           ?PR?ADC_GETVAL_MID?ADC
   *DEL*:           00004EH   BYTE   INSEG    CODE           ?PR?SORT_SEVEN?ADC
   *DEL*:           000051H   BYTE   INSEG    CODE           ?PR?ADC_GETVAL_AVG?ADC
   *DEL*:           000053H   BYTE   INSEG    CODE           ?PR?ADC_GETVAL?ADC
   *DEL*:           00003EH   BYTE   INSEG    CODE           ?PR?ADC_SAMPLE_A?ADC
   *DEL*:           00007FH   BYTE   INSEG    CODE           ?PR?ADC_SAMPLE_B?ADC
   *DEL*:           000004H   BYTE   UNIT     XDATA          ?XD?ADC_MID_SAMPLE?ADC
   *DEL*:           000007H   BYTE   UNIT     XDATA          ?XD?ADC_SAMPLE_B?ADC
   *DEL*:           00000EH   BYTE   UNIT     XDATA          ?XD?ADC_SAMPLE_A?ADC
   *DEL*:           000001H   BYTE   INSEG    CODE           ?PR?UART_DISP?UART
   *DEL*:           000073H   BYTE   INSEG    CODE           ?PR?PD_GYRO_LOOP?PID
   *DEL*:           00010CH   BYTE   INSEG    CODE           ?PR?PD_DIRECTION_LOOP?PID
   *DEL*:           000045H   BYTE   INSEG    CODE           ?PR?PID_CLEAR?PID
   *DEL*:           000001H   BYTE   INSEG    CODE           ?PR?PD_CLEAR_HISTORY?PID
   *DEL*:           0000D2H   BYTE   INSEG    CODE           ?PR?PD_ANGLE_LOOP?PID
   *DEL*:           00002EH   BYTE   INSEG    CODE           ?PR?PID_SET_PARAM?PID
   *DEL*:           000008H   BYTE   UNIT     XDATA          ?XD?PID_SET_PARAM?PID
   *DEL*:           0000F2H   BYTE   INSEG    CODE           ?PR?POW?_?POW
   *DEL*:           000037H   BYTE   INSEG    CODE           ?PR?STRNCMP?_?STRNCMP
   *DEL*:           000030H   BYTE   INSEG    CODE           ?PR?STRNCPY?_?STRNCPY
   *DEL*:           00000EH   BYTE   INSEG    CODE           ?PR?STRLEN?_?STRLEN
   *DEL*:           00001FH   BYTE   INSEG    CODE           ?PR?STRCHR?_?STRCHR
   *DEL*:           00001AH   BYTE   INSEG    CODE           ?PR?MEMSET?_?MEMSET



OVERLAY MAP OF MODULE:   .\out_file\SEEKFREE (?C_START)


FUNCTION/MODULE                               XDATA_GROUP
--> CALLED FUNCTION/MODULE                    START  STOP
=========================================================
?C_C51STARTUP                                 ----- -----

*** NEW ROOT ********************************

?C_C51STARTUP?3                               ----- -----
  +--> main/main

main/main                                     ----- -----
  +--> _m/main
  +--> SPRINTF/SPRINTF

_m/main                                       ----- -----
  +--> clock_init/zf_common_clock
  +--> debug_init/zf_common_debug
  +--> key_init/key
  +--> Motor_Init/motor
  +--> Adc_All_Init/adc
  +--> Encoder_Init/encoder
  +--> imu_init/IMU
  +--> PRINTF/PRINTF
  +--> SDSD_init/control
  +--> pid_init/pid
  +--> pid_set_target/pid
  +--> pd_init/pid
  +--> pit_handler_1/main
L251 LINKER/LOCATER V4.66.93.0                                                        01/24/2026  18:53:03  PAGE 17


  +--> pit_handler_2/main
  +--> ?C?SLDIV/?C?SLDIV
  +--> pit_init/zf_driver_pit
  +--> Adc_Getval_Fast/adc
  +--> Normalization/normalization
  +--> get_control_mode/task
  +--> get_mode_name/task
  +--> system_delay_ms/zf_driver_delay

clock_init/zf_common_clock                    ----- -----
  +--> set_sys_clk/zf_common_clock
  +--> system_delay_init/zf_driver_delay
  +--> interrupt_global_enable/zf_common_interrupt

set_sys_clk/zf_common_clock                   ----- -----

system_delay_init/zf_driver_delay             ----- -----
  +--> ?C?SLDIV/?C?SLDIV

?C?SLDIV/?C?SLDIV                             ----- -----
  +--> ?C?ULIDIV/?C?ULDIV

?C?ULIDIV/?C?ULDIV                            ----- -----

interrupt_global_enable/zf_common_interr+     ----- -----
... upt

debug_init/zf_common_debug                    ----- -----
  +--> uart_init/zf_driver_uart
  +--> fifo_init/zf_common_fifo
  +--> uart_rx_interrupt/zf_driver_uart
  +--> debug_interrupr_handler/zf_common_debug

uart_init/zf_driver_uart                      063BH 0640H
  +--> uart_funciton_check/zf_driver_uart
  +--> debug_assert_handler/zf_common_debug
  +--> timer_funciton_check/zf_driver_timer
  +--> gpio_init/zf_driver_gpio
  +--> ?C?ULIDIV/?C?ULDIV
  +--> uart_dma_init/zf_driver_uart

uart_funciton_check/zf_driver_uart            ----- -----

debug_assert_handler/zf_common_debug          064DH 065CH
  +--> PRINTF/PRINTF
  +--> system_delay_ms/zf_driver_delay

PRINTF/PRINTF                                 065DH 0684H
  +--> OUT/PRINTF

OUT/PRINTF                                    ----- -----
  +--> PUTCH/PRINTF

PUTCH/PRINTF                                  ----- -----
  +--> putchar/zf_common_debug
  +--> OUT/PRINTF

putchar/zf_common_debug                       ----- -----
  +--> uart_write_byte/zf_driver_uart

uart_write_byte/zf_driver_uart                0685H 0685H
  +--> uart_write_buffer/zf_driver_uart

uart_write_buffer/zf_driver_uart              0686H 06CBH
  +--> memcpy?_/memcpy
L251 LINKER/LOCATER V4.66.93.0                                                        01/24/2026  18:53:03  PAGE 18



memcpy?_/memcpy                               ----- -----

system_delay_ms/zf_driver_delay               ----- -----
  +--> delay_cycles/zf_driver_delay

delay_cycles/zf_driver_delay                  ----- -----

timer_funciton_check/zf_driver_timer          ----- -----

gpio_init/zf_driver_gpio                      0649H 064BH
  +--> debug_assert_handler/zf_common_debug
  +--> gpio_set_impedance/zf_driver_gpio
  +--> gpio_set_dir/zf_driver_gpio
  +--> gpio_set_mode/zf_driver_gpio
  +--> gpio_set_level/zf_driver_gpio

gpio_set_impedance/zf_driver_gpio             ----- -----

gpio_set_dir/zf_driver_gpio                   ----- -----
  +--> debug_assert_handler/zf_common_debug

gpio_set_mode/zf_driver_gpio                  ----- -----

gpio_set_level/zf_driver_gpio                 ----- -----

uart_dma_init/zf_driver_uart                  ----- -----

fifo_init/zf_common_fifo                      063BH 0644H
  +--> debug_assert_handler/zf_common_debug

uart_rx_interrupt/zf_driver_uart              ----- -----

debug_interrupr_handler/zf_common_debug       063BH 063BH
  +--> uart_query_byte/zf_driver_uart
  +--> fifo_write_buffer/zf_common_fifo

uart_query_byte/zf_driver_uart                ----- -----
  +--> uart_rx_start_buff/zf_driver_uart

uart_rx_start_buff/zf_driver_uart             ----- -----

fifo_write_buffer/zf_common_fifo              063CH 0649H
  +--> debug_assert_handler/zf_common_debug
  +--> memcpy?_/memcpy
  +--> fifo_head_offset/zf_common_fifo

fifo_head_offset/zf_common_fifo               ----- -----

key_init/key                                  ----- -----
  +--> gpio_init/zf_driver_gpio

Motor_Init/motor                              ----- -----
  +--> gpio_init/zf_driver_gpio
  +--> pwm_init/zf_driver_pwm

pwm_init/zf_driver_pwm                        063BH 0648H
  +--> debug_assert_handler/zf_common_debug
  +--> gpio_init/zf_driver_gpio
  +--> ?C?ULIDIV/?C?ULDIV

Adc_All_Init/adc                              ----- -----
  +--> adc_init/zf_driver_adc

adc_init/zf_driver_adc                        ----- -----
L251 LINKER/LOCATER V4.66.93.0                                                        01/24/2026  18:53:03  PAGE 19



Encoder_Init/encoder                          ----- -----
  +--> encoder_dir_init/zf_driver_encoder

encoder_dir_init/zf_driver_encoder            063BH 063CH
  +--> timer_funciton_check/zf_driver_timer
  +--> debug_assert_handler/zf_common_debug
  +--> gpio_init/zf_driver_gpio

imu_init/IMU                                  ----- -----
  +--> imu660rb_init/zf_device_imu660rb
  +--> system_delay_ms/zf_driver_delay
  +--> imu_get_data/IMU
  +--> imu_quaternion_init/IMU

imu660rb_init/zf_device_imu660rb              ----- -----
  +--> system_delay_ms/zf_driver_delay
  +--> imu660rb_self_check/zf_device_imu660rb
  +--> PRINTF/PRINTF
  +--> imu660rb_write_register/zf_device_imu660rb

imu660rb_self_check/zf_device_imu660rb        ----- -----
  +--> imu660rb_read_register/zf_device_imu660rb
  +--> system_delay_ms/zf_driver_delay

imu660rb_read_register/zf_device_imu660r+     063BH 063BH
... b
  +--> imu660rb_simspi_r_reg_byte/zf_device_imu660rb

imu660rb_simspi_r_reg_byte/zf_device_imu+     ----- -----
... 660rb
  +--> imu660rb_simspi_wr_byte/zf_device_imu660rb

imu660rb_simspi_wr_byte/zf_device_imu660+     ----- -----
... rb

imu660rb_write_register/zf_device_imu660+     ----- -----
... rb
  +--> imu660rb_simspi_w_reg_byte/zf_device_imu660rb

imu660rb_simspi_w_reg_byte/zf_device_imu+     ----- -----
... 660rb
  +--> imu660rb_simspi_wr_byte/zf_device_imu660rb

imu_get_data/IMU                              ----- -----
  +--> imu660rb_get_acc/zf_device_imu660rb
  +--> imu660rb_get_gyro/zf_device_imu660rb
  +--> imu660rb_acc_transition/zf_device_imu660rb
  +--> imu660rb_gyro_transition/zf_device_imu660rb

imu660rb_get_acc/zf_device_imu660rb           063BH 0640H
  +--> imu660rb_read_registers/zf_device_imu660rb

imu660rb_read_registers/zf_device_imu660+     ----- -----
... rb
  +--> imu660rb_simspi_r_reg_bytes/zf_device_imu660rb

imu660rb_simspi_r_reg_bytes/zf_device_im+     0641H 0644H
... u660rb
  +--> imu660rb_simspi_wr_byte/zf_device_imu660rb

imu660rb_get_gyro/zf_device_imu660rb          063BH 0640H
  +--> imu660rb_read_registers/zf_device_imu660rb

imu660rb_acc_transition/zf_device_imu660+     ----- -----
L251 LINKER/LOCATER V4.66.93.0                                                        01/24/2026  18:53:03  PAGE 20


... rb

imu660rb_gyro_transition/zf_device_imu66+     ----- -----
... 0rb

imu_quaternion_init/IMU                       063BH 063EH
  +--> fast_inv_sqrt/IMU

fast_inv_sqrt/IMU                             064FH 0656H

SDSD_init/control                             063BH 0642H

pid_init/pid                                  063BH 0642H

pid_set_target/pid                            ----- -----

pd_init/pid                                   063BH 0646H

pit_handler_1/main                            ----- -----
  +--> motor_control_task/task

motor_control_task/task                       ----- -----
  +--> Encoder_Get_Filtered/encoder
  +--> get_control_mode/task
  +--> sdsd_control_with_sensor_check/task
  +--> pd_control_with_sensor_check/task
  +--> pid_only_control/task
  +--> motor_pid_control/pid

Encoder_Get_Filtered/encoder                  063BH 063EH
  +--> encoder_get_count/zf_driver_encoder
  +--> iir_lowpass/encoder
  +--> encoder_clear_count/zf_driver_encoder

encoder_get_count/zf_driver_encoder           ----- -----
  +--> gpio_get_level/zf_driver_gpio

gpio_get_level/zf_driver_gpio                 ----- -----

iir_lowpass/encoder                           063FH 0642H

encoder_clear_count/zf_driver_encoder         ----- -----

get_control_mode/task                         ----- -----

sdsd_control_with_sensor_check/task           ----- -----
  +--> sensor_check_valid/task
  +--> SDSD_calculate/control
  +--> pid_calc_position/pid

sensor_check_valid/task                       ----- -----

SDSD_calculate/control                        ----- -----
  +--> ?C?SLDIV/?C?SLDIV

pid_calc_position/pid                         ----- -----
  +--> constrain_float/pid

constrain_float/pid                           0641H 0644H

pd_control_with_sensor_check/task             063BH 063BH
  +--> sensor_check_valid/task
  +--> position_error_calc/task
  +--> pd_direction_gyro_loop/pid

L251 LINKER/LOCATER V4.66.93.0                                                        01/24/2026  18:53:03  PAGE 21


position_error_calc/task                      ----- -----

pd_direction_gyro_loop/pid                    ----- -----

pid_only_control/task                         ----- -----

motor_pid_control/pid                         063BH 0640H
  +--> pid_calc_increment/pid
  +--> Motor_LeftForward/motor
  +--> Motor_LeftBackward/motor
  +--> Motor_RightForward/motor
  +--> Motor_RightBackward/motor

pid_calc_increment/pid                        ----- -----
  +--> constrain_float/pid

Motor_LeftForward/motor                       ----- -----
  +--> gpio_set_level/zf_driver_gpio
  +--> pwm_set_duty/zf_driver_pwm

pwm_set_duty/zf_driver_pwm                    0641H 064CH
  +--> debug_assert_handler/zf_common_debug

Motor_LeftBackward/motor                      ----- -----
  +--> gpio_set_level/zf_driver_gpio
  +--> pwm_set_duty/zf_driver_pwm

Motor_RightForward/motor                      ----- -----
  +--> gpio_set_level/zf_driver_gpio
  +--> pwm_set_duty/zf_driver_pwm

Motor_RightBackward/motor                     ----- -----
  +--> gpio_set_level/zf_driver_gpio
  +--> pwm_set_duty/zf_driver_pwm

pit_handler_2/main                            ----- -----
  +--> imu_update_task/task

imu_update_task/task                          ----- -----
  +--> imu_update/IMU

imu_update/IMU                                ----- -----
  +--> imu_get_data/IMU
  +--> imu_quaternion_update/IMU
  +--> imu_quaternion_to_euler/IMU

imu_quaternion_update/IMU                     063BH 064EH
  +--> fast_inv_sqrt/IMU

imu_quaternion_to_euler/IMU                   063BH 0646H
  +--> my_atan2/IMU
  +--> my_asin/IMU
  +--> angle_normalize/IMU

my_atan2/IMU                                  0647H 064AH

my_asin/IMU                                   ----- -----

angle_normalize/IMU                           ----- -----

pit_init/zf_driver_pit                        ----- -----
  +--> ?C?ULIDIV/?C?ULDIV

Adc_Getval_Fast/adc                           ----- -----
  +--> adc_sample/adc
L251 LINKER/LOCATER V4.66.93.0                                                        01/24/2026  18:53:03  PAGE 22


  +--> limit/adc

adc_sample/adc                                063BH 0641H
  +--> adc_convert/zf_driver_adc

adc_convert/zf_driver_adc                     ----- -----

limit/adc                                     ----- -----

Normalization/normalization                   ----- -----

get_mode_name/task                            ----- -----

SPRINTF/SPRINTF                               063BH 0662H
  +--> OUT/SPRINTF

OUT/SPRINTF                                   ----- -----
  +--> PUTCH/SPRINTF

PUTCH/SPRINTF                                 ----- -----

*** NEW ROOT ********************************

DMA_UART1_IRQHandler/isr                      ----- -----
  +--> uart_rx_start_buff/zf_driver_uart

*** NEW ROOT ********************************

DMA_UART2_IRQHandler/isr                      ----- -----
  +--> uart_rx_start_buff/zf_driver_uart

*** NEW ROOT ********************************

DMA_UART3_IRQHandler/isr                      ----- -----
  +--> uart_rx_start_buff/zf_driver_uart

*** NEW ROOT ********************************

DMA_UART4_IRQHandler/isr                      ----- -----
  +--> uart_rx_start_buff/zf_driver_uart

*** NEW ROOT ********************************

TM0_IRQHandler/isr                            ----- -----

*** NEW ROOT ********************************

TM1_IRQHandler/isr                            ----- -----

*** NEW ROOT ********************************

TM2_IRQHandler/isr                            ----- -----

*** NEW ROOT ********************************

TM3_IRQHandler/isr                            ----- -----

*** NEW ROOT ********************************

TM4_IRQHandler/isr                            ----- -----

*** NEW ROOT ********************************

?C_C51STARTUP?2                               ----- -----

L251 LINKER/LOCATER V4.66.93.0                                                        01/24/2026  18:53:03  PAGE 23




PUBLIC SYMBOLS OF MODULE:  .\out_file\SEEKFREE (?C_START)


      VALUE       CLASS    TYPE      PUBLIC SYMBOL NAME
      =================================================
      00FF304AH   CODE     ---       ?C?BMOVEPP
      00FF3048H   CODE     ---       ?C?BMOVEPP8
      00FF243EH   CODE     NEAR LAB  ?C?CASTF
      000000FFH   NUMBER   ---       ?C?CODESEG
      00FF240BH   CODE     NEAR LAB  ?C?FCASTC
      00FF2406H   CODE     NEAR LAB  ?C?FCASTI
      00FF2401H   CODE     NEAR LAB  ?C?FCASTL
      00FF2C4BH   CODE     ---       ?C?FP2SERIES
      00FF21D4H   CODE     ---       ?C?FPADD
      00FF23AFH   CODE     ---       ?C?FPCMP
      00FF23ADH   CODE     ---       ?C?FPCMP3
      00FF2E13H   CODE     ---       ?C?FPCONVERT
      00FF232CH   CODE     ---       ?C?FPDIV
      00FF27A1H   CODE     ---       ?C?FPGETOPN2
      00FF228CH   CODE     ---       ?C?FPMUL
      00FF27DEH   CODE     ---       ?C?FPNANRESULT
      00FF23F3H   CODE     ---       ?C?FPNEG
      00FF27E6H   CODE     ---       ?C?FPOVERFLOW
      00FF27BAH   CODE     ---       ?C?FPRESULT
      00FF27D0H   CODE     ---       ?C?FPRESULT2
      00FF2ECBH   CODE     ---       ?C?FPROUND
      00FF2C54H   CODE     ---       ?C?FPSERIES
      00FF21D1H   CODE     ---       ?C?FPSUB
      00FF27E3H   CODE     ---       ?C?FPUNDERFLOW
      00FF2F3EH   CODE     ---       ?C?FTNPWR
      00FF6C55H   CODE     ---       ?C?INITHDATA
      00FF7AF6H   HCONST   WORD      ?C?INITHDATA_END
      00FF2FB8H   CODE     ---       ?C?LIMUL
      00FF2FA7H   CODE     ---       ?C?LMUL
      00FF283CH   CODE     ---       ?C?PRNFMT
      00FF2F75H   CODE     ---       ?C?SIDIV
      00FF3014H   CODE     NEAR LAB  ?C?SLDIV
      00FF0000H   CODE     ---       ?C?STARTUP
      00FF2FC3H   CODE     NEAR LAB  ?C?ULDIV
      00FF2FC1H   CODE     NEAR LAB  ?C?ULIDIV
      00000001H   NUMBER   ---       ?C?XDATASEG
      00FF0000H   CODE     ---       ?C_STARTUP
      00010639H   XDATA    BYTE      ?constrain_float?BYTE
      00010637H   XDATA    BYTE      ?fifo_init?BYTE
*DEL*:1FFFFFFCH   XDATA    BYTE      ?fifo_read_buffer?BYTE
      00010638H   XDATA    BYTE      ?fifo_write_buffer?BYTE
*DEL*:00000000H   XDATA    BYTE      ?get_two_points_azimuth?BYTE
*DEL*:1FFFFFF8H   XDATA    BYTE      ?get_two_points_distance?BYTE
*DEL*:1FFFFFFCH   XDATA    BYTE      ?iap_read_buff?BYTE
*DEL*:1FFFFFFCH   XDATA    BYTE      ?iap_write_buff?BYTE
      00010637H   XDATA    BYTE      ?iir_lowpass?BYTE
*DEL*:1FFFFFFCH   XDATA    BYTE      ?ips114_show_chinese?BYTE
*DEL*:1FFFFFFCH   XDATA    BYTE      ?ips114_show_float?BYTE
*DEL*:1FFFFFFCH   XDATA    BYTE      ?ips114_show_wave?BYTE
*DEL*:1FFFFFFCH   XDATA    BYTE      ?ips200_show_chinese?BYTE
*DEL*:1FFFFFFCH   XDATA    BYTE      ?ips200_show_float?BYTE
*DEL*:1FFFFFFCH   XDATA    BYTE      ?ips200_show_wave?BYTE
*DEL*:1FFFFFF8H   XDATA    BYTE      ?ips200pro_create_widgets?BYTE
*DEL*:1FFFFFF8H   XDATA    BYTE      ?ips200pro_image_display?BYTE
*DEL*:1FFFFFF7H   XDATA    BYTE      ?ips200pro_image_draw_line?BYTE
*DEL*:1FFFFFF7H   XDATA    BYTE      ?ips200pro_image_draw_rectangle?BYTE
*DEL*:00000028H   XDATA    BYTE      ?ips200pro_label_printf?BYTE
*DEL*:1FFFFFFCH   XDATA    BYTE      ?ips200pro_receive_buffer?BYTE
L251 LINKER/LOCATER V4.66.93.0                                                        01/24/2026  18:53:03  PAGE 24


*DEL*:1FFFFFFCH   XDATA    BYTE      ?ips200pro_send_buffer?BYTE
*DEL*:00000028H   XDATA    BYTE      ?ips200pro_table_cell_printf?BYTE
*DEL*:1FFFFFF7H   XDATA    BYTE      ?ips200pro_waveform_add_value?BYTE
*DEL*:1FFFFFF7H   XDATA    BYTE      ?ips200pro_write_packet?BYTE
      00010633H   XDATA    BYTE      ?pd_init?BYTE
      00010633H   XDATA    BYTE      ?pid_init?BYTE
*DEL*:1FFFFFF8H   XDATA    BYTE      ?pid_set_param?BYTE
      00010685H   XDATA    ---       ?printf?BYTE
      00010639H   XDATA    BYTE      ?pwm_init?BYTE
*DEL*:1FFFFFFEH   XDATA    BYTE      ?pwm_set_freq?BYTE
      00010633H   XDATA    BYTE      ?SDSD_init?BYTE
*DEL*:1FFFFFF8H   XDATA    BYTE      ?seekfree_assistant_camera_boundary_config?BYTE
*DEL*:1FFFFFFBH   XDATA    BYTE      ?seekfree_assistant_camera_data_send?BYTE
*DEL*:1FFFFFF8H   XDATA    BYTE      ?seekfree_assistant_camera_information_config?BYTE
*DEL*:1FFFFFFCH   XDATA    BYTE      ?soft_iic_init?BYTE
*DEL*:1FFFFFFCH   XDATA    BYTE      ?soft_iic_read_16bit_array?BYTE
*DEL*:1FFFFFFCH   XDATA    BYTE      ?soft_iic_read_16bit_registers?BYTE
*DEL*:1FFFFFFCH   XDATA    BYTE      ?soft_iic_read_8bit_array?BYTE
*DEL*:1FFFFFFCH   XDATA    BYTE      ?soft_iic_read_8bit_registers?BYTE
*DEL*:1FFFFFFCH   XDATA    BYTE      ?soft_iic_transfer_16bit_array?BYTE
*DEL*:1FFFFFFCH   XDATA    BYTE      ?soft_iic_transfer_8bit_array?BYTE
*DEL*:1FFFFFFCH   XDATA    BYTE      ?soft_iic_write_16bit_array?BYTE
*DEL*:1FFFFFFCH   XDATA    BYTE      ?soft_iic_write_16bit_registers?BYTE
*DEL*:1FFFFFFCH   XDATA    BYTE      ?soft_iic_write_8bit_array?BYTE
*DEL*:1FFFFFFCH   XDATA    BYTE      ?soft_iic_write_8bit_registers?BYTE
*DEL*:1FFFFFFCH   XDATA    BYTE      ?soft_spi_init?BYTE
*DEL*:1FFFFFFCH   XDATA    BYTE      ?soft_spi_read_16bit_array?BYTE
*DEL*:1FFFFFFCH   XDATA    BYTE      ?soft_spi_read_16bit_registers?BYTE
*DEL*:1FFFFFFCH   XDATA    BYTE      ?soft_spi_read_8bit_array?BYTE
*DEL*:1FFFFFFCH   XDATA    BYTE      ?soft_spi_read_8bit_registers?BYTE
*DEL*:1FFFFFFCH   XDATA    BYTE      ?soft_spi_transfer_16bit?BYTE
*DEL*:1FFFFFFCH   XDATA    BYTE      ?soft_spi_transfer_8bit?BYTE
*DEL*:1FFFFFFCH   XDATA    BYTE      ?soft_spi_write_16bit_array?BYTE
*DEL*:1FFFFFFCH   XDATA    BYTE      ?soft_spi_write_16bit_registers?BYTE
*DEL*:1FFFFFFCH   XDATA    BYTE      ?soft_spi_write_8bit_array?BYTE
*DEL*:1FFFFFFCH   XDATA    BYTE      ?soft_spi_write_8bit_registers?BYTE
*DEL*:1FFFFFFCH   XDATA    BYTE      ?spi_init?BYTE
*DEL*:1FFFFFFCH   XDATA    BYTE      ?spi_read_16bit_array?BYTE
*DEL*:1FFFFFFCH   XDATA    BYTE      ?spi_read_16bit_registers?BYTE
*DEL*:1FFFFFFCH   XDATA    BYTE      ?spi_read_8bit_array?BYTE
*DEL*:1FFFFFFBH   XDATA    BYTE      ?spi_read_8bit_registers?BYTE
*DEL*:1FFFFFFCH   XDATA    BYTE      ?spi_transfer_16bit?BYTE
*DEL*:1FFFFFFCH   XDATA    BYTE      ?spi_transfer_8bit?BYTE
*DEL*:1FFFFFFCH   XDATA    BYTE      ?spi_write_16bit_array?BYTE
*DEL*:1FFFFFFCH   XDATA    BYTE      ?spi_write_16bit_registers?BYTE
*DEL*:1FFFFFFCH   XDATA    BYTE      ?spi_write_8bit_array?BYTE
*DEL*:1FFFFFFBH   XDATA    BYTE      ?spi_write_8bit_registers?BYTE
      00010663H   XDATA    ---       ?sprintf?BYTE
*DEL*:1FFFFFFCH   XDATA    BYTE      ?tft180_show_float?BYTE
*DEL*:1FFFFFFCH   XDATA    BYTE      ?tft180_show_wave?BYTE
      00010637H   XDATA    BYTE      ?uart_init?BYTE
*DEL*:1FFFFFF8H   XDATA    BYTE      ?vsnprintf?BYTE
*DEL*:00000028H   XDATA    BYTE      ?zf_sprintf?BYTE
      00FF27F2H   CODE     ---       _chkfloat_?_
      00FF4596H   CODE     ---       _m
*SFR* 000000D0H.6 DATA     BIT       AC
*SFR* 000000E0H   DATA     BYTE      ACC
      00FF73E3H   CODE     ---       Adc_All_Init
*SFR* 000000BCH   DATA     BYTE      ADC_CONTR
      00FF72FCH   CODE     ---       adc_convert
*DEL*:00000000H   CODE     ---       Adc_Getval
*DEL*:00000000H   CODE     ---       Adc_Getval_Avg
      00FF6CDAH   CODE     ---       Adc_Getval_Fast
*DEL*:00000000H   CODE     ---       Adc_Getval_Mid
*DEL*:00000000H   CODE     ---       Adc_Getval_Quick
L251 LINKER/LOCATER V4.66.93.0                                                        01/24/2026  18:53:03  PAGE 25


      00FF6A69H   CODE     ---       adc_init
*DEL*:00000000H   CODE     ---       adc_mean_filter_convert
*DEL*:00000000H   CODE     ---       adc_mid_sample
      0001098CH   XDATA    ---       adc_normalized_list
*SFR* 000000BDH   DATA     BYTE      ADC_RES
*SFR* 000000BEH   DATA     BYTE      ADC_RESL
      00FF6429H   CODE     ---       adc_sample
*DEL*:00000000H   CODE     ---       adc_sample_a
*DEL*:00000000H   CODE     ---       adc_sample_b
*DEL*:00000000H   CODE     ---       Adc_Test
      00010894H   XDATA    ---       adc_val_list
*SFR* 000000DEH   DATA     BYTE      ADCCFG
      00FF709FH   CODE     ---       angle_normalize
      00FF3071H   CODE     ---       ascii_font_8x16
      00FF2781H   CODE     ---       asin?_
      00FF26AFH   CODE     ---       atan?_
*SFR* 000000EFH   DATA     BYTE      AUXINTIF
*SFR* 0000008EH   DATA     BYTE      AUXR
*SFR* 00000097H   DATA     BYTE      AUXR2
*SFR* 000000F0H   DATA     BYTE      B
*DEL*:00000000H   CODE     ---       ble6a20_callback
*DEL*:00000000H   CODE     ---       ble6a20_init
*DEL*:00000000H   CODE     ---       ble6a20_read_buffer
*DEL*:00000000H   CODE     ---       ble6a20_send_buffer
*DEL*:00000000H   CODE     ---       ble6a20_send_byte
*DEL*:00000000H   CODE     ---       ble6a20_send_string
      00010860H   XDATA    ---       buf
*SFR* 000000C8H.1 DATA     BIT       C_T2
*SFR* 000000F1H   DATA     BYTE      CANICR
*SFR* 000000FAH   DATA     BYTE      CCAP0H
*SFR* 000000EAH   DATA     BYTE      CCAP0L
*SFR* 000000FBH   DATA     BYTE      CCAP1H
*SFR* 000000EBH   DATA     BYTE      CCAP1L
*SFR* 000000FCH   DATA     BYTE      CCAP2H
*SFR* 000000ECH   DATA     BYTE      CCAP2L
*SFR* 000000FDH   DATA     BYTE      CCAP3H
*SFR* 000000EDH   DATA     BYTE      CCAP3L
*SFR* 000000FEH   DATA     BYTE      CCAP4H
*SFR* 000000EEH   DATA     BYTE      CCAP4L
*SFR* 000000DAH   DATA     BYTE      CCAPM0
*SFR* 000000DBH   DATA     BYTE      CCAPM1
*SFR* 000000DCH   DATA     BYTE      CCAPM2
*SFR* 000000DDH   DATA     BYTE      CCAPM3
*SFR* 000000DEH   DATA     BYTE      CCAPM4
*SFR* 000000D8H.0 DATA     BIT       CCF0
*SFR* 000000D8H.1 DATA     BIT       CCF1
*SFR* 000000D8H.2 DATA     BIT       CCF2
*SFR* 000000D8H.3 DATA     BIT       CCF3
*SFR* 000000D8H.4 DATA     BIT       CCF4
*SFR* 000000D8H   DATA     BYTE      CCON
*SFR* 00000090H.3 DATA     BIT       CEX0
*SFR* 00000090H.4 DATA     BIT       CEX1
*SFR* 00000090H.5 DATA     BIT       CEX2
*SFR* 00000090H.6 DATA     BIT       CEX3
*SFR* 00000090H.7 DATA     BIT       CEX4
*SFR* 000000D8H.7 DATA     BIT       CF
*SFR* 000000F9H   DATA     BYTE      CH
      00010893H   XDATA    BYTE      channel_index
      000108B2H   XDATA    ---       channel_list
*SFR* 000000EAH   DATA     BYTE      CKCON
*SFR* 000000E9H   DATA     BYTE      CL
      00FF68CBH   CODE     ---       clock_init
*SFR* 000000D9H   DATA     BYTE      CMOD
*SFR* 000000E6H   DATA     BYTE      CMPCR1
*SFR* 000000E7H   DATA     BYTE      CMPCR2
L251 LINKER/LOCATER V4.66.93.0                                                        01/24/2026  18:53:03  PAGE 26


      00010892H   XDATA    BYTE      cnt
      00FF0066H   CODE     ---       constrain_float
      00FF259FH   CODE     ---       cos?_
*SFR* 000000C8H.0 DATA     BIT       CP_RL2
*SFR* 000000D8H.6 DATA     BIT       CR
*SFR* 000000D0H.7 DATA     BIT       CY
      00FF699FH   CODE     ---       debug_assert_handler
      00FF6B2AH   CODE     ---       debug_init
      00FF718EH   CODE     ---       debug_interrupr_handler
*DEL*:00000000H   CODE     ---       debug_read_buffer
*DEL*:00000000H   CODE     ---       debug_send_buffer
      000106CCH   XDATA    ---       debug_uart_buffer
      0001070DH   XDATA    ---       debug_uart_fifo
      00010941H   XDATA    WORD      dl1a_distance_mm
      00010943H   XDATA    BYTE      dl1a_finsh_flag
*DEL*:00000000H   CODE     ---       dl1a_get_distance
*DEL*:00000000H   CODE     ---       dl1a_init
*DEL*:00000000H   CODE     ---       dl1a_int_handler
      0001094EH   XDATA    WORD      dl1b_distance_mm
      00010950H   XDATA    BYTE      dl1b_finsh_flag
*DEL*:00000000H   CODE     ---       dl1b_get_distance
*DEL*:00000000H   CODE     ---       dl1b_init
*DEL*:00000000H   CODE     ---       dl1b_int_handler
      00FF6306H   CODE     ---       DMA_UART1_IRQHandler
      00FF6599H   CODE     ---       DMA_UART2_IRQHandler
      00FF6612H   CODE     ---       DMA_UART3_IRQHandler
      00FF668BH   CODE     ---       DMA_UART4_IRQHandler
*SFR* 00000083H   DATA     BYTE      DPH
*SFR* 00000082H   DATA     BYTE      DPL
*SFR* 00000084H   DATA     BYTE      DPXL
*SFR* 000000A8H.7 DATA     BIT       EA
*SFR* 000000BAH.7 DATA     BIT       EAXFR
*SFR* 000000A8H.6 DATA     BIT       EC
*SFR* 00000090H.2 DATA     BIT       ECI
*DEL*:00000000H   CODE     ---       eeprom_trig
      00FF6C89H   CODE     ---       encoder_clear_count
      0001097EH   XDATA    INT       encoder_data_dir_L
      00010980H   XDATA    INT       encoder_data_dir_R
      00FF5D68H   CODE     ---       encoder_dir_init
      00FF685EH   CODE     ---       encoder_get_count
      00FF5EF8H   CODE     ---       Encoder_Get_Filtered
      00FF7235H   CODE     ---       Encoder_Init
*SFR* 000000A8H.4 DATA     BIT       ES
*SFR* 000000A8H.1 DATA     BIT       ET0
*SFR* 000000A8H.3 DATA     BIT       ET1
*SFR* 000000A8H.5 DATA     BIT       ET2
*SFR* 000000A8H.0 DATA     BIT       EX0
*SFR* 000000A8H.2 DATA     BIT       EX1
*SFR* 000000C8H.3 DATA     BIT       EXEN2
*SFR* 000000C8H.6 DATA     BIT       EXF2
      00FF2CB1H   CODE     ---       exp?_
*DEL*:00000000H   CODE     ---       extern_iap_write_buff
*SFR* 000000D0H.5 DATA     BIT       F0
      00FF610DH   CODE     ---       fast_inv_sqrt
*SFR* 00000098H.7 DATA     BIT       FE
*DEL*:00000000H   CODE     ---       fifo_clear
      00FF6704H   CODE     ---       fifo_init
*DEL*:00000000H   CODE     ---       fifo_read_buffer
*DEL*:00000000H   CODE     ---       fifo_used
      00FF3FDAH   CODE     ---       fifo_write_buffer
*DEL*:00000000H   CODE     ---       func_double_to_str
*DEL*:00000000H   CODE     ---       func_float_to_str
*DEL*:00000000H   CODE     ---       func_get_greatest_common_divisor
*DEL*:00000000H   CODE     ---       func_hex_to_str
*DEL*:00000000H   CODE     ---       func_int_to_str
L251 LINKER/LOCATER V4.66.93.0                                                        01/24/2026  18:53:03  PAGE 27


*DEL*:00000000H   CODE     ---       func_soft_delay
*DEL*:00000000H   CODE     ---       func_str_to_double
*DEL*:00000000H   CODE     ---       func_str_to_float
*DEL*:00000000H   CODE     ---       func_str_to_hex
*DEL*:00000000H   CODE     ---       func_str_to_int
*DEL*:00000000H   CODE     ---       func_str_to_uint
*DEL*:00000000H   CODE     ---       func_uint_to_str
      00FF0019H   CODE     ---       get_control_mode
      00FF7268H   CODE     ---       get_mode_name
*DEL*:00000000H   CODE     ---       get_two_points_azimuth
*DEL*:00000000H   CODE     ---       get_two_points_distance
      00FF59ADH   CODE     ---       gpio_get_level
      00FF6061H   CODE     ---       gpio_init
      00FF5B9EH   CODE     ---       gpio_set_impedance
      00FF4D9EH   CODE     ---       gpio_set_level
*DEL*:00000000H   CODE     ---       gpio_set_level_speed
*DEL*:00000000H   CODE     ---       gpio_toggle_level
*DEL*:00000000H   CODE     ---       gps_data_parse
      000103C6H   XDATA    INT       gps_gga_state
*DEL*:00000000H   CODE     ---       gps_init
      000103C8H   XDATA    INT       gps_rmc_state
      0001029AH   XDATA    ---       gps_tau1201
      00010219H   XDATA    BYTE      gps_tau1201_flag
      000109BDH   XDATA    INT       gps_type
*DEL*:00000000H   CODE     ---       gps_uart_callback
*SFR* 000000F6H   DATA     BYTE      IAP_ADDRE
*SFR* 000000C3H   DATA     BYTE      IAP_ADDRH
*SFR* 000000C4H   DATA     BYTE      IAP_ADDRL
*SFR* 000000C5H   DATA     BYTE      IAP_CMD
*SFR* 000000C7H   DATA     BYTE      IAP_CONTR
*SFR* 000000C2H   DATA     BYTE      IAP_DATA
*DEL*:00000000H   CODE     ---       iap_erase_page
*DEL*:00000000H   CODE     ---       iap_get_cmd_state
*DEL*:00000000H   CODE     ---       iap_idle
*DEL*:00000000H   CODE     ---       iap_init
*DEL*:00000000H   CODE     ---       iap_read_buff
*DEL*:00000000H   CODE     ---       iap_read_byte
*DEL*:00000000H   CODE     ---       iap_set_tps
*SFR* 000000F5H   DATA     BYTE      IAP_TPS
*SFR* 000000C6H   DATA     BYTE      IAP_TRIG
*DEL*:00000000H   CODE     ---       iap_write_buff
*DEL*:00000000H   CODE     ---       iap_write_byte
      00010910H   XDATA    INT       icm20602_acc_x
      00010912H   XDATA    INT       icm20602_acc_y
      00010914H   XDATA    INT       icm20602_acc_z
*DEL*:00000000H   CODE     ---       icm20602_get_acc
*DEL*:00000000H   CODE     ---       icm20602_get_gyro
      00010916H   XDATA    INT       icm20602_gyro_x
      00010918H   XDATA    INT       icm20602_gyro_y
      0001091AH   XDATA    INT       icm20602_gyro_z
*DEL*:00000000H   CODE     ---       icm20602_init
      0001091CH   XDATA    ---       icm20602_transition_factor
*SFR* 000000A8H   DATA     BYTE      IE
*SFR* 000000A8H   DATA     BYTE      IE0
*SFR* 00000088H.1 DATA     BIT       IE0_
*SFR* 000000B1H   DATA     BYTE      IE1
*SFR* 00000088H.3 DATA     BIT       IE1_
*SFR* 000000AFH   DATA     BYTE      IE2
      00FF73B7H   CODE     ---       iir_lowpass
      0001082CH   XDATA    ---       imu
      00010924H   XDATA    INT       imu660ra_acc_x
      00010926H   XDATA    INT       imu660ra_acc_y
      00010928H   XDATA    INT       imu660ra_acc_z
      00FF01CEH   CODE     ---       imu660ra_config_file
*DEL*:00000000H   CODE     ---       imu660ra_get_acc
L251 LINKER/LOCATER V4.66.93.0                                                        01/24/2026  18:53:03  PAGE 28


*DEL*:00000000H   CODE     ---       imu660ra_get_gyro
      0001092AH   XDATA    INT       imu660ra_gyro_x
      0001092CH   XDATA    INT       imu660ra_gyro_y
      0001092EH   XDATA    INT       imu660ra_gyro_z
*DEL*:00000000H   CODE     ---       imu660ra_init
      00010930H   XDATA    ---       imu660ra_transition_factor
      00FF757CH   CODE     ---       imu660rb_acc_transition
      0001096AH   XDATA    INT       imu660rb_acc_x
      0001096CH   XDATA    INT       imu660rb_acc_y
      0001096EH   XDATA    INT       imu660rb_acc_z
      00FF6D7BH   CODE     ---       imu660rb_get_acc
      00FF6D2BH   CODE     ---       imu660rb_get_gyro
      00FF756AH   CODE     ---       imu660rb_gyro_transition
      00010970H   XDATA    INT       imu660rb_gyro_x
      00010972H   XDATA    INT       imu660rb_gyro_y
      00010974H   XDATA    INT       imu660rb_gyro_z
      00FF6935H   CODE     ---       imu660rb_init
      000108DAH   XDATA    INT       imu963ra_acc_x
      000108DCH   XDATA    INT       imu963ra_acc_y
      000108DEH   XDATA    INT       imu963ra_acc_z
*DEL*:00000000H   CODE     ---       imu963ra_get_acc
*DEL*:00000000H   CODE     ---       imu963ra_get_gyro
*DEL*:00000000H   CODE     ---       imu963ra_get_mag
      000108E6H   XDATA    INT       imu963ra_gyro_x
      000108E8H   XDATA    INT       imu963ra_gyro_y
      000108EAH   XDATA    INT       imu963ra_gyro_z
*DEL*:00000000H   CODE     ---       imu963ra_init
      000108E0H   XDATA    INT       imu963ra_mag_x
      000108E2H   XDATA    INT       imu963ra_mag_y
      000108E4H   XDATA    INT       imu963ra_mag_z
      000108ECH   XDATA    ---       imu963ra_transition_factor
      00FF6520H   CODE     ---       imu_get_data
      00FF0026H   CODE     ---       imu_init
      00FF4BF3H   CODE     ---       imu_quaternion_init
      00FF4A1BH   CODE     ---       imu_quaternion_to_euler
      00FF3661H   CODE     ---       imu_quaternion_update
      0001099EH   XDATA    BYTE      imu_state
      00FF019EH   CODE     ---       imu_update
      00FF008EH   CODE     ---       imu_update_task
*SFR* 000000B0H.2 DATA     BIT       INT0
      000108C8H   XDATA    ---       int0_irq_handler
*SFR* 000000B0H.3 DATA     BIT       INT1
      000108CCH   XDATA    ---       int1_irq_handler
      000108D0H   XDATA    ---       int2_irq_handler
      000108D4H   XDATA    ---       int3_irq_handler
      000108D8H   XDATA    ---       int4_irq_handler
*SFR* 0000008FH   DATA     BYTE      INTCLKO
*DEL*:00000000H   CODE     ---       interrupt_global_disable
      00FF001EH   CODE     ---       interrupt_global_enable
*DEL*:00000000H   CODE     ---       interrupt_set_priority
*SFR* 000000B8H   DATA     BYTE      IP
*SFR* 000000B5H   DATA     BYTE      IP2
*SFR* 000000B6H   DATA     BYTE      IP2H
*SFR* 000000DFH   DATA     BYTE      IP3
*SFR* 000000EEH   DATA     BYTE      IP3H
*SFR* 000000B7H   DATA     BYTE      IPH
*SFR* 000000B7H   DATA     BYTE      IPH0
*SFR* 000000B8H   DATA     BYTE      IPL0
      000109A9H   XDATA    WORD      ips114_bgcolor
*DEL*:00000000H   CODE     ---       ips114_clear
      000109ABH   XDATA    INT       ips114_display_dir
*DEL*:00000000H   CODE     ---       ips114_draw_point
*DEL*:00000000H   CODE     ---       ips114_init
      000109A7H   XDATA    WORD      ips114_pencolor
*DEL*:00000000H   CODE     ---       ips114_set_color
L251 LINKER/LOCATER V4.66.93.0                                                        01/24/2026  18:53:03  PAGE 29


*DEL*:00000000H   CODE     ---       ips114_set_dir
*DEL*:00000000H   CODE     ---       ips114_show_char
*DEL*:00000000H   CODE     ---       ips114_show_chinese
*DEL*:00000000H   CODE     ---       ips114_show_float
*DEL*:00000000H   CODE     ---       ips114_show_int16
*DEL*:00000000H   CODE     ---       ips114_show_int32
*DEL*:00000000H   CODE     ---       ips114_show_int8
*DEL*:00000000H   CODE     ---       ips114_show_string
*DEL*:00000000H   CODE     ---       ips114_show_uint16
*DEL*:00000000H   CODE     ---       ips114_show_uint8
*DEL*:00000000H   CODE     ---       ips114_show_wave
      000109ADH   XDATA    BYTE      ips114_x_max
      000109AEH   XDATA    BYTE      ips114_y_max
      00010984H   XDATA    WORD      ips200_bgcolor
*DEL*:00000000H   CODE     ---       ips200_clear
      00010986H   XDATA    INT       ips200_display_dir
*DEL*:00000000H   CODE     ---       ips200_draw_point
*DEL*:00000000H   CODE     ---       ips200_init
      00010982H   XDATA    WORD      ips200_pencolor
*DEL*:00000000H   CODE     ---       ips200_set_color
*DEL*:00000000H   CODE     ---       ips200_set_dir
*DEL*:00000000H   CODE     ---       ips200_show_char
*DEL*:00000000H   CODE     ---       ips200_show_chinese
*DEL*:00000000H   CODE     ---       ips200_show_float
*DEL*:00000000H   CODE     ---       ips200_show_int16
*DEL*:00000000H   CODE     ---       ips200_show_int32
*DEL*:00000000H   CODE     ---       ips200_show_int8
*DEL*:00000000H   CODE     ---       ips200_show_string
*DEL*:00000000H   CODE     ---       ips200_show_uint16
*DEL*:00000000H   CODE     ---       ips200_show_uint8
*DEL*:00000000H   CODE     ---       ips200_show_wave
      00010988H   XDATA    WORD      ips200_x_max
      0001098AH   XDATA    WORD      ips200_y_max
*DEL*:00000000H   CODE     ---       ips200pro_calendar_create
*DEL*:00000000H   CODE     ---       ips200pro_calendar_display
*DEL*:00000000H   CODE     ---       ips200pro_clock_create
*DEL*:00000000H   CODE     ---       ips200pro_container_create
*DEL*:00000000H   CODE     ---       ips200pro_container_radius
*DEL*:00000000H   CODE     ---       ips200pro_create_widgets
*DEL*:00000000H   CODE     ---       ips200pro_delete_widgets
*DEL*:00000000H   CODE     ---       ips200pro_get_date
*DEL*:00000000H   CODE     ---       ips200pro_get_free_stack_size
*DEL*:00000000H   CODE     ---       ips200pro_get_information
*DEL*:00000000H   CODE     ---       ips200pro_get_time
*DEL*:00000000H   CODE     ---       ips200pro_image_create
*DEL*:00000000H   CODE     ---       ips200pro_image_display
*DEL*:00000000H   CODE     ---       ips200pro_image_draw_line
*DEL*:00000000H   CODE     ---       ips200pro_image_draw_rectangle
      00010806H   XDATA    ---       ips200pro_information
*DEL*:00000000H   CODE     ---       ips200pro_init
*DEL*:00000000H   CODE     ---       ips200pro_label_create
*DEL*:00000000H   CODE     ---       ips200pro_label_mode
*DEL*:00000000H   CODE     ---       ips200pro_label_printf
*DEL*:00000000H   CODE     ---       ips200pro_label_show_string
*DEL*:00000000H   CODE     ---       ips200pro_meter_create
*DEL*:00000000H   CODE     ---       ips200pro_meter_set_value
*DEL*:00000000H   CODE     ---       ips200pro_page_create
*DEL*:00000000H   CODE     ---       ips200pro_page_hidden
*DEL*:00000000H   CODE     ---       ips200pro_page_set_title_name
*DEL*:00000000H   CODE     ---       ips200pro_page_set_title_position_width
*DEL*:00000000H   CODE     ---       ips200pro_page_switch
*DEL*:00000000H   CODE     ---       ips200pro_progress_bar_create
*DEL*:00000000H   CODE     ---       ips200pro_progress_bar_set_value
*DEL*:00000000H   CODE     ---       ips200pro_read_parameter
*DEL*:00000000H   CODE     ---       ips200pro_receive_buffer
L251 LINKER/LOCATER V4.66.93.0                                                        01/24/2026  18:53:03  PAGE 30


*DEL*:00000000H   CODE     ---       ips200pro_send_buffer
*DEL*:00000000H   CODE     ---       ips200pro_set_backlight
*DEL*:00000000H   CODE     ---       ips200pro_set_color
*DEL*:00000000H   CODE     ---       ips200pro_set_crc_state
*DEL*:00000000H   CODE     ---       ips200pro_set_date
*DEL*:00000000H   CODE     ---       ips200pro_set_default_font
*DEL*:00000000H   CODE     ---       ips200pro_set_direction
*DEL*:00000000H   CODE     ---       ips200pro_set_font
*DEL*:00000000H   CODE     ---       ips200pro_set_format
*DEL*:00000000H   CODE     ---       ips200pro_set_hidden
*DEL*:00000000H   CODE     ---       ips200pro_set_optimize
*DEL*:00000000H   CODE     ---       ips200pro_set_parent
*DEL*:00000000H   CODE     ---       ips200pro_set_position
*DEL*:00000000H   CODE     ---       ips200pro_set_time
*DEL*:00000000H   CODE     ---       ips200pro_table_cell_printf
*DEL*:00000000H   CODE     ---       ips200pro_table_create
*DEL*:00000000H   CODE     ---       ips200pro_table_select
*DEL*:00000000H   CODE     ---       ips200pro_table_set_col_width
      0001080FH   XDATA    ---       ips200pro_time
*DEL*:00000000H   CODE     ---       ips200pro_waveform_add_value
*DEL*:00000000H   CODE     ---       ips200pro_waveform_clear
*DEL*:00000000H   CODE     ---       ips200pro_waveform_create
*DEL*:00000000H   CODE     ---       ips200pro_waveform_line_state
*DEL*:00000000H   CODE     ---       ips200pro_waveform_line_type
*DEL*:00000000H   CODE     ---       ips200pro_write_packet
*SFR* 0000009DH   DATA     BYTE      IRCBAND
*SFR* 0000009FH   DATA     BYTE      IRTRIM
*SFR* 00000088H.0 DATA     BIT       IT0
*SFR* 00000088H.2 DATA     BIT       IT1
*DEL*:00000000H   CODE     ---       Key_Disp
      000109D2H   XDATA    BYTE      key_down
      00FF7118H   CODE     ---       key_init
      000109D3H   XDATA    BYTE      key_old
*DEL*:00000000H   CODE     ---       Key_Read
      000109D1H   XDATA    BYTE      key_up
      000109D4H   XDATA    BYTE      key_val
      0001099AH   XDATA    FLOAT     left_target
      00FF7154H   CODE     ---       limit
*SFR* 000000F9H   DATA     BYTE      LINICR
      00FF2D40H   CODE     NEAR LAB  log?_
      00FF74D1H   CODE     ---       MAIN
      0001089EH   XDATA    ---       max_min_adc
      00FF74ACH   CODE     ---       memcpy?_
*DEL*:00000000H   CODE     ---       memset?_
      00FF6B84H   CODE     ---       motor_control_task
*DEL*:00000000H   CODE     ---       Motor_FanSet
      00FF6779H   CODE     ---       Motor_Init
      00FF7485H   CODE     ---       Motor_LeftBackward
      00FF7436H   CODE     ---       Motor_LeftForward
      00FF5C83H   CODE     ---       motor_pid_control
      00FF745EH   CODE     ---       Motor_RightBackward
      00FF740EH   CODE     ---       Motor_RightForward
*DEL*:00000000H   CODE     ---       Motor_Test
      00FF61B8H   CODE     ---       Normalization
*SFR* 000000D0H.2 DATA     BIT       OV
*SFR* 000000D0H.0 DATA     BIT       P
*SFR* 00000080H   DATA     BYTE      P0
*SFR* 00000094H   DATA     BYTE      P0M0
*SFR* 00000093H   DATA     BYTE      P0M1
*SFR* 00000090H   DATA     BYTE      P1
*SFR* 00000092H   DATA     BYTE      P1M0
*SFR* 00000091H   DATA     BYTE      P1M1
*SFR* 000000A0H   DATA     BYTE      P2
*SFR* 000000A0H.0 DATA     BIT       P20
*SFR* 000000A0H.1 DATA     BIT       P21
L251 LINKER/LOCATER V4.66.93.0                                                        01/24/2026  18:53:03  PAGE 31


*SFR* 000000A0H.2 DATA     BIT       P22
*SFR* 00000096H   DATA     BYTE      P2M0
*SFR* 00000095H   DATA     BYTE      P2M1
*SFR* 000000B0H   DATA     BYTE      P3
*SFR* 000000B2H   DATA     BYTE      P3M0
*SFR* 000000B1H   DATA     BYTE      P3M1
*SFR* 000000C0H   DATA     BYTE      P4
*SFR* 000000C0H.0 DATA     BIT       P40
*SFR* 000000C0H.1 DATA     BIT       P41
*SFR* 000000C0H.2 DATA     BIT       P42
*SFR* 000000C0H.3 DATA     BIT       P43
*SFR* 000000B4H   DATA     BYTE      P4M0
*SFR* 000000B3H   DATA     BYTE      P4M1
*SFR* 000000C8H   DATA     BYTE      P5
*SFR* 000000CAH   DATA     BYTE      P5M0
*SFR* 000000C9H   DATA     BYTE      P5M1
*SFR* 000000E8H   DATA     BYTE      P6
*SFR* 000000CCH   DATA     BYTE      P6M0
*SFR* 000000CBH   DATA     BYTE      P6M1
*SFR* 000000F8H   DATA     BYTE      P7
*SFR* 000000E2H   DATA     BYTE      P7M0
*SFR* 000000E1H   DATA     BYTE      P7M1
*SFR* 000000A2H   DATA     BYTE      P_SW1
*SFR* 000000BAH   DATA     BYTE      P_SW2
*SFR* 000000BBH   DATA     BYTE      P_SW3
*SFR* 00000087H   DATA     BYTE      PCON
      00010507H   XDATA    ---       pd_angle
*DEL*:00000000H   CODE     ---       pd_angle_loop
*DEL*:00000000H   CODE     ---       pd_clear_history
      00FF71FFH   CODE     ---       pd_control_with_sensor_check
      000105E7H   XDATA    ---       pd_direction
      00FF569AH   CODE     ---       pd_direction_gyro_loop
*DEL*:00000000H   CODE     ---       pd_direction_loop
      000105D7H   XDATA    ---       pd_gyro
*DEL*:00000000H   CODE     ---       pd_gyro_loop
      00FF6EEAH   CODE     ---       pd_init
      00FF5337H   CODE     ---       pid_calc_increment
      00FF51FCH   CODE     ---       pid_calc_position
*DEL*:00000000H   CODE     ---       pid_clear
      00FF6262H   CODE     ---       pid_init
      00010597H   XDATA    ---       pid_motor_left
      00010557H   XDATA    ---       pid_motor_right
      00FF0096H   CODE     ---       pid_only_control
      00010517H   XDATA    ---       pid_SDSD
*DEL*:00000000H   CODE     ---       pid_set_param
      00FF75BBH   CODE     ---       pid_set_target
      00FF009EH   CODE     ---       pit_handler_1
      00FF01A7H   CODE     ---       pit_handler_2
      00FF50A1H   CODE     ---       pit_init
      00FF7557H   CODE     ---       position_error_calc
*DEL*:00000000H   CODE     ---       pow?_
*SFR* 000000B8H.6 DATA     BIT       PPC
      00FF247BH   CODE     NEAR LAB  printf
*SFR* 000000B8H.4 DATA     BIT       PS
*SFR* 000000D0H   DATA     BYTE      PSW
*SFR* 000000D1H   DATA     BYTE      PSW1
*SFR* 000000B8H.1 DATA     BIT       PT0
*SFR* 000000B8H.3 DATA     BIT       PT1
*SFR* 000000B8H.5 DATA     BIT       PT2
      00FF75ADH   CODE     ---       putchar
      00FF8136H   HCONST   ---       PWM_ARR_ADDR
      00FF813EH   HCONST   ---       PWM_CCER_ADDR
      00FF814EH   HCONST   ---       PWM_CCMR_ADDR
      00FF8116H   HCONST   ---       PWM_CCR_ADDR
      00FF3C09H   CODE     ---       pwm_init
L251 LINKER/LOCATER V4.66.93.0                                                        01/24/2026  18:53:03  PAGE 32


      00FF810EH   HCONST   ---       PWM_PSCR_ADDR
      00FF5581H   CODE     ---       pwm_set_duty
*DEL*:00000000H   CODE     ---       pwm_set_freq
*SFR* 000000B8H.0 DATA     BIT       PX0
*SFR* 000000B8H.2 DATA     BIT       PX1
*SFR* 00000098H.2 DATA     BIT       RB8
*SFR* 000000CBH   DATA     BYTE      RCAP2H
*SFR* 000000CAH   DATA     BYTE      RCAP2L
*SFR* 000000C8H.5 DATA     BIT       RCLK
*SFR* 000000B0H.7 DATA     BIT       RD
*SFR* 00000098H.4 DATA     BIT       REN
      00010904H   XDATA    FLOAT     res
*SFR* 00000098H.0 DATA     BIT       RI
      00010996H   XDATA    FLOAT     right_target
*SFR* 000000D0H.3 DATA     BIT       RS0
*SFR* 000000D0H.4 DATA     BIT       RS1
*SFR* 000000FFH   DATA     BYTE      RSTCFG
*SFR* 000000B0H.0 DATA     BIT       RXD
*SFR* 0000009BH   DATA     BYTE      S2BUF
*SFR* 0000009AH   DATA     BYTE      S2CON
*SFR* 0000009AH.1 DATA     BIT       S2TI
*SFR* 000000ACH   DATA     BYTE      S3CON
*SFR* 000000FDH   DATA     BYTE      S4CON
*SFR* 000000A9H   DATA     BYTE      SADDR
*SFR* 000000B9H   DATA     BYTE      SADEN
*SFR* 00000099H   DATA     BYTE      SBUF
*SFR* 00000098H   DATA     BYTE      SCON
      000108F8H   XDATA    ---       SDSD
      00FF57A6H   CODE     ---       SDSD_calculate
      00FF732CH   CODE     ---       sdsd_control_with_sensor_check
      00FF735CH   CODE     ---       SDSD_init
*DEL*:00000000H   CODE     ---       seekfree_assistant_camera_boundary_config
*DEL*:00000000H   CODE     ---       seekfree_assistant_camera_data_send
*DEL*:00000000H   CODE     ---       seekfree_assistant_camera_dot_send
*DEL*:00000000H   CODE     ---       seekfree_assistant_camera_information_config
*DEL*:00000000H   CODE     ---       seekfree_assistant_camera_send
*DEL*:00000000H   CODE     ---       seekfree_assistant_data_analysis
*DEL*:00000000H   CODE     ---       seekfree_assistant_init
*DEL*:00000000H   CODE     ---       seekfree_assistant_interface_init
      000103D2H   XDATA    ---       seekfree_assistant_oscilloscope_data
*DEL*:00000000H   CODE     ---       seekfree_assistant_oscilloscope_send
      00010415H   XDATA    ---       seekfree_assistant_parameter
      0001040DH   XDATA    ---       seekfree_assistant_parameter_update_flag
      000109CDH   XDATA    ---       seekfree_assistant_receive_callback
      000109CFH   XDATA    ---       seekfree_assistant_transfer_callback
      00FF6DCBH   CODE     ---       sensor_check_valid
*DEL*:00000000H   CODE     ---       set_gps_type
      00FF58ACH   CODE     ---       set_sys_clk
*DEL*:00000000H   CODE     ---       set_tof_type
*DEL*:00000000H   CODE     ---       set_wireless_type
      00FF25BCH   CODE     ---       sin?_
*SFR* 00000098H.7 DATA     BIT       SM0
*SFR* 00000098H.6 DATA     BIT       SM1
*SFR* 00000098H.5 DATA     BIT       SM2
      00FF71C7H   CODE     ---       soft_iic_delay
*DEL*:00000000H   CODE     ---       soft_iic_init
*DEL*:00000000H   CODE     ---       soft_iic_read_16bit
*DEL*:00000000H   CODE     ---       soft_iic_read_16bit_array
*DEL*:00000000H   CODE     ---       soft_iic_read_16bit_register
*DEL*:00000000H   CODE     ---       soft_iic_read_16bit_registers
*DEL*:00000000H   CODE     ---       soft_iic_read_8bit
*DEL*:00000000H   CODE     ---       soft_iic_read_8bit_array
*DEL*:00000000H   CODE     ---       soft_iic_read_8bit_register
*DEL*:00000000H   CODE     ---       soft_iic_read_8bit_registers
      00FF5FADH   CODE     ---       soft_iic_read_data
L251 LINKER/LOCATER V4.66.93.0                                                        01/24/2026  18:53:03  PAGE 33


*DEL*:00000000H   CODE     ---       soft_iic_sccb_read_register
*DEL*:00000000H   CODE     ---       soft_iic_sccb_write_register
      00FF67EEH   CODE     ---       soft_iic_send_ack
      00FF639DH   CODE     ---       soft_iic_send_data
      00FF6BDDH   CODE     ---       soft_iic_start
      00FF6A07H   CODE     ---       soft_iic_stop
*DEL*:00000000H   CODE     ---       soft_iic_transfer_16bit_array
*DEL*:00000000H   CODE     ---       soft_iic_transfer_8bit_array
      00FF64A7H   CODE     ---       soft_iic_wait_ack
*DEL*:00000000H   CODE     ---       soft_iic_write_16bit
*DEL*:00000000H   CODE     ---       soft_iic_write_16bit_array
*DEL*:00000000H   CODE     ---       soft_iic_write_16bit_register
*DEL*:00000000H   CODE     ---       soft_iic_write_16bit_registers
*DEL*:00000000H   CODE     ---       soft_iic_write_8bit
*DEL*:00000000H   CODE     ---       soft_iic_write_8bit_array
*DEL*:00000000H   CODE     ---       soft_iic_write_8bit_register
*DEL*:00000000H   CODE     ---       soft_iic_write_8bit_registers
*DEL*:00000000H   CODE     ---       soft_spi_delay
*DEL*:00000000H   CODE     ---       soft_spi_init
*DEL*:00000000H   CODE     ---       soft_spi_read_16bit
*DEL*:00000000H   CODE     ---       soft_spi_read_16bit_array
*DEL*:00000000H   CODE     ---       soft_spi_read_16bit_register
*DEL*:00000000H   CODE     ---       soft_spi_read_16bit_registers
*DEL*:00000000H   CODE     ---       soft_spi_read_8bit
*DEL*:00000000H   CODE     ---       soft_spi_read_8bit_array
*DEL*:00000000H   CODE     ---       soft_spi_read_8bit_register
*DEL*:00000000H   CODE     ---       soft_spi_read_8bit_registers
*DEL*:00000000H   CODE     ---       soft_spi_transfer_16bit
*DEL*:00000000H   CODE     ---       soft_spi_transfer_8bit
*DEL*:00000000H   CODE     ---       soft_spi_write_16bit
*DEL*:00000000H   CODE     ---       soft_spi_write_16bit_array
*DEL*:00000000H   CODE     ---       soft_spi_write_16bit_register
*DEL*:00000000H   CODE     ---       soft_spi_write_16bit_registers
*DEL*:00000000H   CODE     ---       soft_spi_write_8bit
*DEL*:00000000H   CODE     ---       soft_spi_write_8bit_array
*DEL*:00000000H   CODE     ---       soft_spi_write_8bit_register
*DEL*:00000000H   CODE     ---       soft_spi_write_8bit_registers
*DEL*:00000000H   CODE     ---       sort_seven
*SFR* 00000081H   DATA     BYTE      SP
*SFR* 000000CEH   DATA     BYTE      SPCTL
*SFR* 000000CFH   DATA     BYTE      SPDAT
*SFR* 000000BEH   DATA     BYTE      SPH
*DEL*:00000000H   CODE     ---       spi_init
*DEL*:00000000H   CODE     ---       spi_read_16bit
*DEL*:00000000H   CODE     ---       spi_read_16bit_array
*DEL*:00000000H   CODE     ---       spi_read_16bit_register
*DEL*:00000000H   CODE     ---       spi_read_16bit_registers
*DEL*:00000000H   CODE     ---       spi_read_8bit
*DEL*:00000000H   CODE     ---       spi_read_8bit_array
*DEL*:00000000H   CODE     ---       spi_read_8bit_register
*DEL*:00000000H   CODE     ---       spi_read_8bit_registers
*DEL*:00000000H   CODE     ---       spi_read_dat
*DEL*:00000000H   CODE     ---       spi_transfer_16bit
*DEL*:00000000H   CODE     ---       spi_transfer_8bit
*DEL*:00000000H   CODE     ---       spi_write_16bit
*DEL*:00000000H   CODE     ---       spi_write_16bit_array
*DEL*:00000000H   CODE     ---       spi_write_16bit_register
*DEL*:00000000H   CODE     ---       spi_write_16bit_registers
*DEL*:00000000H   CODE     ---       spi_write_8bit
*DEL*:00000000H   CODE     ---       spi_write_8bit_array
*DEL*:00000000H   CODE     ---       spi_write_8bit_register
*DEL*:00000000H   CODE     ---       spi_write_8bit_registers
*DEL*:00000000H   CODE     ---       spi_write_dat
      00FF24A7H   CODE     NEAR LAB  sprintf
*SFR* 000000CDH   DATA     BYTE      SPSTAT
L251 LINKER/LOCATER V4.66.93.0                                                        01/24/2026  18:53:03  PAGE 34


      00FF24C7H   CODE     ---       sqrt?_
*DEL*:00000000H   CODE     ---       strchr?_
*DEL*:00000000H   CODE     ---       strlen?_
*DEL*:00000000H   CODE     ---       strncmp?_
*DEL*:00000000H   CODE     ---       strncpy?_
      00010908H   XDATA    LONG      sub
      0001090CH   XDATA    LONG      sum
      000109C5H   XDATA    LONG      system_clock
      00FF6EA6H   CODE     ---       system_delay_init
      00FF7516H   CODE     ---       system_delay_ms
*DEL*:00000000H   CODE     ---       system_delay_us
*SFR* 000000B0H.4 DATA     BIT       T0
*SFR* 000000B0H.5 DATA     BIT       T1
*SFR* 00000090H.0 DATA     BIT       T2
*SFR* 000000C8H   DATA     BYTE      T2CON
*SFR* 00000090H.1 DATA     BIT       T2EX
*SFR* 000000D6H   DATA     BYTE      T2H
*SFR* 000000D7H   DATA     BYTE      T2L
*SFR* 000000C9H   DATA     BYTE      T2MOD
*SFR* 000000D4H   DATA     BYTE      T3H
*SFR* 000000D5H   DATA     BYTE      T3L
*SFR* 000000D2H   DATA     BYTE      T4H
*SFR* 000000D3H   DATA     BYTE      T4L
*SFR* 000000DDH   DATA     BYTE      T4T3M
      00FF25E9H   CODE     ---       TAN?_
*SFR* 00000098H.3 DATA     BIT       TB8
*SFR* 000000C8H.4 DATA     BIT       TCLK
*SFR* 00000088H   DATA     BYTE      TCON
*SFR* 00000088H.5 DATA     BIT       TF0
*SFR* 00000088H.7 DATA     BIT       TF1
*SFR* 000000C8H.7 DATA     BIT       TF2
      000109B1H   XDATA    WORD      tft180_bgcolor
*DEL*:00000000H   CODE     ---       tft180_clear
      000109B3H   XDATA    INT       tft180_display_dir
*DEL*:00000000H   CODE     ---       tft180_draw_point
*DEL*:00000000H   CODE     ---       tft180_init
      000109AFH   XDATA    WORD      tft180_pencolor
*DEL*:00000000H   CODE     ---       tft180_set_color
*DEL*:00000000H   CODE     ---       tft180_set_dir
*DEL*:00000000H   CODE     ---       tft180_show_char
*DEL*:00000000H   CODE     ---       tft180_show_float
*DEL*:00000000H   CODE     ---       tft180_show_int16
*DEL*:00000000H   CODE     ---       tft180_show_int32
*DEL*:00000000H   CODE     ---       tft180_show_int8
*DEL*:00000000H   CODE     ---       tft180_show_string
*DEL*:00000000H   CODE     ---       tft180_show_uint16
*DEL*:00000000H   CODE     ---       tft180_show_uint8
*DEL*:00000000H   CODE     ---       tft180_show_wave
      000109B5H   XDATA    BYTE      tft180_x_max
      000109B6H   XDATA    BYTE      tft180_y_max
*SFR* 0000008CH   DATA     BYTE      TH0
*SFR* 0000008DH   DATA     BYTE      TH1
*SFR* 000000CDH   DATA     BYTE      TH2
*SFR* 00000098H.1 DATA     BIT       TI
      000108C6H   XDATA    ---       tim0_irq_handler
      000108BCH   XDATA    ---       tim11_irq_handler
      000108CAH   XDATA    ---       tim1_irq_handler
      000108CEH   XDATA    ---       tim2_irq_handler
      000108D2H   XDATA    ---       tim3_irq_handler
      000108D6H   XDATA    ---       tim4_irq_handler
      00FF729AH   CODE     ---       timer_funciton_check
*SFR* 0000008AH   DATA     BYTE      TL0
*SFR* 0000008BH   DATA     BYTE      TL1
*SFR* 000000CCH   DATA     BYTE      TL2
      00FF6F69H   CODE     ---       TM0_IRQHandler
L251 LINKER/LOCATER V4.66.93.0                                                        01/24/2026  18:53:03  PAGE 35


      00FF6FA7H   CODE     ---       TM1_IRQHandler
      00FF6FE5H   CODE     ---       TM2_IRQHandler
      00FF7023H   CODE     ---       TM3_IRQHandler
      00FF7061H   CODE     ---       TM4_IRQHandler
*SFR* 00000089H   DATA     BYTE      TMOD
      000109B7H   XDATA    ---       tof_module_exti_handler
      000109BBH   XDATA    INT       tof_type
*SFR* 00000088H.4 DATA     BIT       TR0
*SFR* 00000088H.6 DATA     BIT       TR1
*SFR* 000000C8H.2 DATA     BIT       TR2
*DEL*:00000000H   CODE     ---       tsl1401_collect_pit_handler
      00010001H   XDATA    ---       tsl1401_data
      00010000H   XDATA    BYTE      tsl1401_finish_flag
*DEL*:00000000H   CODE     ---       tsl1401_init
*DEL*:00000000H   CODE     ---       tsl1401_send_data
*SFR* 000000B0H.1 DATA     BIT       TXD
      000108BEH   XDATA    ---       uart1_irq_handler
      000108C0H   XDATA    ---       uart2_irq_handler
      000108C2H   XDATA    ---       uart3_irq_handler
      000108C4H   XDATA    ---       uart4_irq_handler
*DEL*:00000000H   CODE     ---       Uart_Disp
      00FF5E41H   CODE     ---       uart_dma_init
      00FF72CBH   CODE     ---       uart_funciton_check
      00FF4825H   CODE     ---       uart_init
      00FF6E17H   CODE     ---       uart_query_byte
*DEL*:00000000H   CODE     ---       uart_read_byte
      00010966H   XDATA    ---       uart_rx_buff
      00FF70DCH   CODE     ---       uart_rx_interrupt
      00FF6ACAH   CODE     ---       uart_rx_start_buff
      00FF5465H   CODE     ---       uart_write_buffer
      00FF7544H   CODE     ---       uart_write_byte
*DEL*:00000000H   CODE     ---       uart_write_string
*SFR* 000000F4H   DATA     BYTE      USBCON
*SFR* 000000A6H   DATA     BYTE      VRTRIM
*DEL*:00000000H   CODE     ---       vsnprintf
*SFR* 000000C1H   DATA     BYTE      WDT_CONTR
*SFR* 000000A6H   DATA     BYTE      WDTRST
      000109B9H   XDATA    INT       wireless_type
*DEL*:00000000H   CODE     ---       wireless_uart_callback
*DEL*:00000000H   CODE     ---       wireless_uart_init
*DEL*:00000000H   CODE     ---       wireless_uart_read_buffer
*DEL*:00000000H   CODE     ---       wireless_uart_send_buffer
*DEL*:00000000H   CODE     ---       wireless_uart_send_byte
*DEL*:00000000H   CODE     ---       wireless_uart_send_string
*SFR* 000000B0H.6 DATA     BIT       WR
*SFR* 000000E9H   DATA     BYTE      WTST
*DEL*:00000000H   CODE     ---       zf_sprintf



SYMBOL TABLE OF MODULE:  .\out_file\SEEKFREE (?C_START)

      VALUE       REP       CLASS    TYPE      SYMBOL NAME
      ====================================================
      ---         MODULE    ---      ---       ?C_START
      00FF0000H   PUBLIC    CODE     ---       ?C?STARTUP
      00FF0000H   PUBLIC    CODE     ---       ?C_STARTUP
      000000D0H.6 SFRSYM    DATA     BIT       AC
      000000E0H   SFRSYM    DATA     BYTE      ACC
      000000F0H   SFRSYM    DATA     BYTE      B
      000000FAH   SFRSYM    DATA     BYTE      CCAP0H
      000000EAH   SFRSYM    DATA     BYTE      CCAP0L
      000000FBH   SFRSYM    DATA     BYTE      CCAP1H
      000000EBH   SFRSYM    DATA     BYTE      CCAP1L
      000000FCH   SFRSYM    DATA     BYTE      CCAP2H
L251 LINKER/LOCATER V4.66.93.0                                                        01/24/2026  18:53:03  PAGE 36


      000000ECH   SFRSYM    DATA     BYTE      CCAP2L
      000000FDH   SFRSYM    DATA     BYTE      CCAP3H
      000000EDH   SFRSYM    DATA     BYTE      CCAP3L
      000000FEH   SFRSYM    DATA     BYTE      CCAP4H
      000000EEH   SFRSYM    DATA     BYTE      CCAP4L
      000000DAH   SFRSYM    DATA     BYTE      CCAPM0
      000000DBH   SFRSYM    DATA     BYTE      CCAPM1
      000000DCH   SFRSYM    DATA     BYTE      CCAPM2
      000000DDH   SFRSYM    DATA     BYTE      CCAPM3
      000000DEH   SFRSYM    DATA     BYTE      CCAPM4
      000000D8H.0 SFRSYM    DATA     BIT       CCF0
      000000D8H.1 SFRSYM    DATA     BIT       CCF1
      000000D8H.2 SFRSYM    DATA     BIT       CCF2
      000000D8H.3 SFRSYM    DATA     BIT       CCF3
      000000D8H.4 SFRSYM    DATA     BIT       CCF4
      000000D8H   SFRSYM    DATA     BYTE      CCON
      00000090H.3 SFRSYM    DATA     BIT       CEX0
      00000090H.4 SFRSYM    DATA     BIT       CEX1
      00000090H.5 SFRSYM    DATA     BIT       CEX2
      00000090H.6 SFRSYM    DATA     BIT       CEX3
      00000090H.7 SFRSYM    DATA     BIT       CEX4
      000000D8H.7 SFRSYM    DATA     BIT       CF
      000000F9H   SFRSYM    DATA     BYTE      CH
      000000E9H   SFRSYM    DATA     BYTE      CL
      000000D9H   SFRSYM    DATA     BYTE      CMOD
      000000C8H.0 SFRSYM    DATA     BIT       CP_RL2
      000000D8H.6 SFRSYM    DATA     BIT       CR
      000000D0H.7 SFRSYM    DATA     BIT       CY
      000000C8H.1 SFRSYM    DATA     BIT       C_T2
      00000083H   SFRSYM    DATA     BYTE      DPH
      00000082H   SFRSYM    DATA     BYTE      DPL
      00000084H   SFRSYM    DATA     BYTE      DPXL
      000000A8H.7 SFRSYM    DATA     BIT       EA
      000000A8H.6 SFRSYM    DATA     BIT       EC
      00000090H.2 SFRSYM    DATA     BIT       ECI
      000000A8H.4 SFRSYM    DATA     BIT       ES
      000000A8H.1 SFRSYM    DATA     BIT       ET0
      000000A8H.3 SFRSYM    DATA     BIT       ET1
      000000A8H.5 SFRSYM    DATA     BIT       ET2
      000000A8H.0 SFRSYM    DATA     BIT       EX0
      000000A8H.2 SFRSYM    DATA     BIT       EX1
      000000C8H.3 SFRSYM    DATA     BIT       EXEN2
      000000C8H.6 SFRSYM    DATA     BIT       EXF2
      000000D0H.5 SFRSYM    DATA     BIT       F0
      00000098H.7 SFRSYM    DATA     BIT       FE
      000000A8H   SFRSYM    DATA     BYTE      IE0
      00000088H.1 SFRSYM    DATA     BIT       IE0_
      000000B1H   SFRSYM    DATA     BYTE      IE1
      00000088H.3 SFRSYM    DATA     BIT       IE1_
      000000B0H.2 SFRSYM    DATA     BIT       INT0
      000000B0H.3 SFRSYM    DATA     BIT       INT1
      000000B7H   SFRSYM    DATA     BYTE      IPH0
      000000B8H   SFRSYM    DATA     BYTE      IPL0
      00000088H.0 SFRSYM    DATA     BIT       IT0
      00000088H.2 SFRSYM    DATA     BIT       IT1
      000000D0H.2 SFRSYM    DATA     BIT       OV
      000000D0H.0 SFRSYM    DATA     BIT       P
      00000080H   SFRSYM    DATA     BYTE      P0
      00000090H   SFRSYM    DATA     BYTE      P1
      000000A0H   SFRSYM    DATA     BYTE      P2
      000000B0H   SFRSYM    DATA     BYTE      P3
      00000087H   SFRSYM    DATA     BYTE      PCON
      000000B8H.6 SFRSYM    DATA     BIT       PPC
      000000B8H.4 SFRSYM    DATA     BIT       PS
      000000D0H   SFRSYM    DATA     BYTE      PSW
L251 LINKER/LOCATER V4.66.93.0                                                        01/24/2026  18:53:03  PAGE 37


      000000D1H   SFRSYM    DATA     BYTE      PSW1
      000000B8H.1 SFRSYM    DATA     BIT       PT0
      000000B8H.3 SFRSYM    DATA     BIT       PT1
      000000B8H.5 SFRSYM    DATA     BIT       PT2
      000000B8H.0 SFRSYM    DATA     BIT       PX0
      000000B8H.2 SFRSYM    DATA     BIT       PX1
      00000098H.2 SFRSYM    DATA     BIT       RB8
      000000CBH   SFRSYM    DATA     BYTE      RCAP2H
      000000CAH   SFRSYM    DATA     BYTE      RCAP2L
      000000C8H.5 SFRSYM    DATA     BIT       RCLK
      000000B0H.7 SFRSYM    DATA     BIT       RD
      00000098H.4 SFRSYM    DATA     BIT       REN
      00000098H.0 SFRSYM    DATA     BIT       RI
      000000D0H.3 SFRSYM    DATA     BIT       RS0
      000000D0H.4 SFRSYM    DATA     BIT       RS1
      000000B0H.0 SFRSYM    DATA     BIT       RXD
      000000A9H   SFRSYM    DATA     BYTE      SADDR
      000000B9H   SFRSYM    DATA     BYTE      SADEN
      00000099H   SFRSYM    DATA     BYTE      SBUF
      00000098H   SFRSYM    DATA     BYTE      SCON
      00000098H.7 SFRSYM    DATA     BIT       SM0
      00000098H.6 SFRSYM    DATA     BIT       SM1
      00000098H.5 SFRSYM    DATA     BIT       SM2
      00000081H   SFRSYM    DATA     BYTE      SP
      000000BEH   SFRSYM    DATA     BYTE      SPH
      000000B0H.4 SFRSYM    DATA     BIT       T0
      000000B0H.5 SFRSYM    DATA     BIT       T1
      00000090H.0 SFRSYM    DATA     BIT       T2
      000000C8H   SFRSYM    DATA     BYTE      T2CON
      00000090H.1 SFRSYM    DATA     BIT       T2EX
      000000C9H   SFRSYM    DATA     BYTE      T2MOD
      00000098H.3 SFRSYM    DATA     BIT       TB8
      000000C8H.4 SFRSYM    DATA     BIT       TCLK
      00000088H   SFRSYM    DATA     BYTE      TCON
      00000088H.5 SFRSYM    DATA     BIT       TF0
      00000088H.7 SFRSYM    DATA     BIT       TF1
      000000C8H.7 SFRSYM    DATA     BIT       TF2
      0000008CH   SFRSYM    DATA     BYTE      TH0
      0000008DH   SFRSYM    DATA     BYTE      TH1
      000000CDH   SFRSYM    DATA     BYTE      TH2
      00000098H.1 SFRSYM    DATA     BIT       TI
      0000008AH   SFRSYM    DATA     BYTE      TL0
      0000008BH   SFRSYM    DATA     BYTE      TL1
      000000CCH   SFRSYM    DATA     BYTE      TL2
      00000089H   SFRSYM    DATA     BYTE      TMOD
      00000088H.4 SFRSYM    DATA     BIT       TR0
      00000088H.6 SFRSYM    DATA     BIT       TR1
      000000C8H.2 SFRSYM    DATA     BIT       TR2
      000000B0H.1 SFRSYM    DATA     BIT       TXD
      000000A6H   SFRSYM    DATA     BYTE      WDTRST
      000000B0H.6 SFRSYM    DATA     BIT       WR
      00000800H   SYMBOL    NUMBER   ---       EDATALEN
      00FF6C3CH   SYMBOL    CODE     ---       EDATALOOP
      00000001H   SYMBOL    NUMBER   ---       EDF
      00000001H   SYMBOL    NUMBER   ---       EMAP
      00000000H   SYMBOL    NUMBER   ---       HDATALEN
      00010000H   SYMBOL    NUMBER   ---       HDATASTART
      00000000H   SYMBOL    NUMBER   ---       IBPSTACK
      00000100H   SYMBOL    NUMBER   ---       IBPSTACKTOP
      00000001H   SYMBOL    NUMBER   ---       INTR
      00000001H   SYMBOL    NUMBER   ---       PAGM
      00000003H   SYMBOL    NUMBER   ---       RDRG
      00000001H   SYMBOL    NUMBER   ---       SRCM
      00000800H   SYMBOL    NUMBER   ---       STACKSIZE
      00FF6C34H   SYMBOL    CODE     ---       STARTUP1
L251 LINKER/LOCATER V4.66.93.0                                                        01/24/2026  18:53:03  PAGE 38


      00000003H   SYMBOL    NUMBER   ---       WSA
      00000003H   SYMBOL    NUMBER   ---       WSB
      00000001H   SYMBOL    NUMBER   ---       XALE
      00000000H   SYMBOL    NUMBER   ---       XBPSTACK
      00010000H   SYMBOL    NUMBER   ---       XBPSTACKTOP
      00008000H   SYMBOL    NUMBER   ---       XDATALEN
      00FF6C4BH   SYMBOL    CODE     ---       XDATALOOP
      00010000H   SYMBOL    NUMBER   ---       XDATASTART

      00FF0000H   BLOCK     CODE     NEAR LAB  LVL=0
      00FF0000H   LINE      CODE     ---       #183
      ---         BLOCKEND  ---      ---       LVL=0

      00FF6C34H   BLOCK     CODE     NEAR LAB  LVL=0
      00FF6C34H   LINE      CODE     ---       #188
      00FF6C37H   LINE      CODE     ---       #191
      00FF6C3BH   LINE      CODE     ---       #192
      00FF6C3CH   LINE      CODE     ---       #193
      00FF6C3FH   LINE      CODE     ---       #194
      00FF6C41H   LINE      CODE     ---       #195
      00FF6C43H   LINE      CODE     ---       #199
      00FF6C46H   LINE      CODE     ---       #200
      00FF6C4AH   LINE      CODE     ---       #201
      00FF6C4BH   LINE      CODE     ---       #202
      00FF6C4CH   LINE      CODE     ---       #203
      00FF6C4DH   LINE      CODE     ---       #204
      00FF6C4FH   LINE      CODE     ---       #205
      00FF6C51H   LINE      CODE     ---       #235
      ---         BLOCKEND  ---      ---       LVL=0

      00FF6C86H   BLOCK     CODE     NEAR LAB  LVL=0
      00FF6C86H   LINE      CODE     ---       #238
      ---         BLOCKEND  ---      ---       LVL=0

      ---         MODULE    ---      ---       stc32g_isr

      00FF019BH   BLOCK     CODE     NEAR LAB  LVL=0
      00FF019BH   LINE      CODE     ---       #3
      ---         BLOCKEND  ---      ---       LVL=0

      00FF01ABH   BLOCK     CODE     NEAR LAB  LVL=0
      00FF01ABH   LINE      CODE     ---       #6
      ---         BLOCKEND  ---      ---       LVL=0

      00FF01BBH   BLOCK     CODE     NEAR LAB  LVL=0
      00FF01BBH   LINE      CODE     ---       #9
      ---         BLOCKEND  ---      ---       LVL=0

      00FF01CBH   BLOCK     CODE     NEAR LAB  LVL=0
      00FF01CBH   LINE      CODE     ---       #12
      ---         BLOCKEND  ---      ---       LVL=0

      ---         MODULE    ---      ---       zf_common_clock
      00FF68CBH   PUBLIC    CODE     ---       clock_init
      00FF58ACH   PUBLIC    CODE     ---       set_sys_clk
      000109C5H   PUBLIC    XDATA    LONG      system_clock
      00000094H   SFRSYM    DATA     BYTE      P0M0
      000000D0H   SFRSYM    DATA     BYTE      PSW
      000000BAH.7 SFRSYM    DATA     BIT       EAXFR
      0000009DH   SFRSYM    DATA     BYTE      IRCBAND
      00000097H   SFRSYM    DATA     BYTE      AUXR2
      000000EAH   SFRSYM    DATA     BYTE      CKCON
      000000EFH   SFRSYM    DATA     BYTE      AUXINTIF
      000000FDH   SFRSYM    DATA     BYTE      S4CON
      000000ACH   SFRSYM    DATA     BYTE      S3CON
L251 LINKER/LOCATER V4.66.93.0                                                        01/24/2026  18:53:03  PAGE 39


      0000009AH   SFRSYM    DATA     BYTE      S2CON
      000000A6H   SFRSYM    DATA     BYTE      VRTRIM
      000000B7H   SFRSYM    DATA     BYTE      IPH
      000000CDH   SFRSYM    DATA     BYTE      SPSTAT
      000000DDH   SFRSYM    DATA     BYTE      T4T3M
      0000009FH   SFRSYM    DATA     BYTE      IRTRIM
      000000C1H   SFRSYM    DATA     BYTE      WDT_CONTR
      000000E9H   SFRSYM    DATA     BYTE      WTST
      000000DFH   SFRSYM    DATA     BYTE      IP3
      000000F4H   SFRSYM    DATA     BYTE      USBCON
      000000B5H   SFRSYM    DATA     BYTE      IP2
      000000FFH   SFRSYM    DATA     BYTE      RSTCFG
      000000C7H   SFRSYM    DATA     BYTE      IAP_CONTR
      000000F9H   SFRSYM    DATA     BYTE      LINICR
      0000008EH   SFRSYM    DATA     BYTE      AUXR
      000000AFH   SFRSYM    DATA     BYTE      IE2
      00000088H   SFRSYM    DATA     BYTE      TCON
      00000089H   SFRSYM    DATA     BYTE      TMOD
      00000098H   SFRSYM    DATA     BYTE      SCON
      000000F1H   SFRSYM    DATA     BYTE      CANICR
      00000087H   SFRSYM    DATA     BYTE      PCON
      000000BCH   SFRSYM    DATA     BYTE      ADC_CONTR
      000000E7H   SFRSYM    DATA     BYTE      CMPCR2
      000000E6H   SFRSYM    DATA     BYTE      CMPCR1
      000000DEH   SFRSYM    DATA     BYTE      ADCCFG
      000000B8H   SFRSYM    DATA     BYTE      IP
      0000008FH   SFRSYM    DATA     BYTE      INTCLKO
      000000EEH   SFRSYM    DATA     BYTE      IP3H
      000000B6H   SFRSYM    DATA     BYTE      IP2H
      000000A8H   SFRSYM    DATA     BYTE      IE
      000000BBH   SFRSYM    DATA     BYTE      P_SW3
      000000BAH   SFRSYM    DATA     BYTE      P_SW2
      000000A2H   SFRSYM    DATA     BYTE      P_SW1
      000000CEH   SFRSYM    DATA     BYTE      SPCTL
      000000F8H   SFRSYM    DATA     BYTE      P7
      000000E1H   SFRSYM    DATA     BYTE      P7M1
      000000E8H   SFRSYM    DATA     BYTE      P6
      000000C8H   SFRSYM    DATA     BYTE      P5
      000000CBH   SFRSYM    DATA     BYTE      P6M1
      000000E2H   SFRSYM    DATA     BYTE      P7M0
      000000C0H   SFRSYM    DATA     BYTE      P4
      000000C9H   SFRSYM    DATA     BYTE      P5M1
      000000CCH   SFRSYM    DATA     BYTE      P6M0
      000000B0H   SFRSYM    DATA     BYTE      P3
      000000B3H   SFRSYM    DATA     BYTE      P4M1
      000000CAH   SFRSYM    DATA     BYTE      P5M0
      000000A0H   SFRSYM    DATA     BYTE      P2
      000000B1H   SFRSYM    DATA     BYTE      P3M1
      000000B4H   SFRSYM    DATA     BYTE      P4M0
      00000090H   SFRSYM    DATA     BYTE      P1
      00000095H   SFRSYM    DATA     BYTE      P2M1
      000000B2H   SFRSYM    DATA     BYTE      P3M0
      00000080H   SFRSYM    DATA     BYTE      P0
      00000091H   SFRSYM    DATA     BYTE      P1M1
      00000096H   SFRSYM    DATA     BYTE      P2M0
      00000092H   SFRSYM    DATA     BYTE      P1M0
      00000093H   SFRSYM    DATA     BYTE      P0M1

      00FF58ACH   BLOCK     CODE     ---       LVL=0
      DR0         REGSYM    ---      DWORD     sys_clk
      00FF58ACH   LINE      CODE     ---       #54
      00FF58AEH   LINE      CODE     ---       #57
      00FF58B1H   LINE      CODE     ---       #59
      00FF58F0H   LINE      CODE     ---       #61
      00FF58F0H   LINE      CODE     ---       #63
L251 LINKER/LOCATER V4.66.93.0                                                        01/24/2026  18:53:03  PAGE 40


      00FF58FDH   LINE      CODE     ---       #64
      00FF5901H   LINE      CODE     ---       #65
      00FF5901H   LINE      CODE     ---       #66
      00FF5901H   LINE      CODE     ---       #67
      00FF5901H   LINE      CODE     ---       #68
      00FF5904H   LINE      CODE     ---       #70
      00FF5904H   LINE      CODE     ---       #72
      00FF5911H   LINE      CODE     ---       #73
      00FF5915H   LINE      CODE     ---       #74
      00FF5915H   LINE      CODE     ---       #75
      00FF5915H   LINE      CODE     ---       #76
      00FF5915H   LINE      CODE     ---       #77
      00FF5917H   LINE      CODE     ---       #79
      00FF5917H   LINE      CODE     ---       #81
      00FF5924H   LINE      CODE     ---       #82
      00FF5928H   LINE      CODE     ---       #83
      00FF5928H   LINE      CODE     ---       #84
      00FF5928H   LINE      CODE     ---       #85
      00FF5928H   LINE      CODE     ---       #86
      00FF592AH   LINE      CODE     ---       #88
      00FF592AH   LINE      CODE     ---       #90
      00FF5937H   LINE      CODE     ---       #91
      00FF593BH   LINE      CODE     ---       #92
      00FF593BH   LINE      CODE     ---       #93
      00FF593BH   LINE      CODE     ---       #94
      00FF593BH   LINE      CODE     ---       #95
      00FF593DH   LINE      CODE     ---       #97
      00FF593DH   LINE      CODE     ---       #99
      00FF594AH   LINE      CODE     ---       #100
      00FF594EH   LINE      CODE     ---       #101
      00FF594EH   LINE      CODE     ---       #102
      00FF594EH   LINE      CODE     ---       #103
      00FF594EH   LINE      CODE     ---       #104
      00FF5950H   LINE      CODE     ---       #106
      00FF5950H   LINE      CODE     ---       #108
      00FF595DH   LINE      CODE     ---       #109
      00FF596AH   LINE      CODE     ---       #110
      00FF5973H   LINE      CODE     ---       #111
      00FF5976H   LINE      CODE     ---       #112
      00FF5976H   LINE      CODE     ---       #113
      00FF5978H   LINE      CODE     ---       #115
      00FF5978H   LINE      CODE     ---       #116
      00FF5980H   LINE      CODE     ---       #118
      00FF598DH   LINE      CODE     ---       #119
      00FF599AH   LINE      CODE     ---       #120
      00FF59A3H   LINE      CODE     ---       #121
      00FF59A6H   LINE      CODE     ---       #122
      00FF59AAH   LINE      CODE     ---       #123
      00FF59AAH   LINE      CODE     ---       #124
      00FF59AAH   LINE      CODE     ---       #126
      00FF59ACH   LINE      CODE     ---       #127
      ---         BLOCKEND  ---      ---       LVL=0

      00FF68CBH   BLOCK     CODE     ---       LVL=0
      DR0         REGSYM    ---      DWORD     clock
      00FF68CBH   LINE      CODE     ---       #132
      00FF68CBH   LINE      CODE     ---       #134
      00FF68CEH   LINE      CODE     ---       #135
      00FF68D1H   LINE      CODE     ---       #136
      00FF68D4H   LINE      CODE     ---       #137
      00FF68D7H   LINE      CODE     ---       #147
      00FF68E4H   LINE      CODE     ---       #153
      00FF68E7H   LINE      CODE     ---       #156
      00FF68EAH   LINE      CODE     ---       #157
      00FF68EDH   LINE      CODE     ---       #158
L251 LINKER/LOCATER V4.66.93.0                                                        01/24/2026  18:53:03  PAGE 41


      00FF68F0H   LINE      CODE     ---       #159
      00FF68F3H   LINE      CODE     ---       #160
      00FF68F6H   LINE      CODE     ---       #161
      00FF68F9H   LINE      CODE     ---       #162
      00FF68FCH   LINE      CODE     ---       #163
      00FF68FFH   LINE      CODE     ---       #164
      00FF6902H   LINE      CODE     ---       #165
      00FF6905H   LINE      CODE     ---       #166
      00FF6908H   LINE      CODE     ---       #167
      00FF690BH   LINE      CODE     ---       #168
      00FF690EH   LINE      CODE     ---       #169
      00FF6911H   LINE      CODE     ---       #170
      00FF6914H   LINE      CODE     ---       #171
      00FF6917H   LINE      CODE     ---       #173
      00FF691AH   LINE      CODE     ---       #174
      00FF691DH   LINE      CODE     ---       #175
      00FF6920H   LINE      CODE     ---       #176
      00FF6923H   LINE      CODE     ---       #177
      00FF6926H   LINE      CODE     ---       #178
      00FF6929H   LINE      CODE     ---       #179
      00FF692CH   LINE      CODE     ---       #180
      00FF692FH   LINE      CODE     ---       #181
      00FF6932H   LINE      CODE     ---       #183
      ---         BLOCKEND  ---      ---       LVL=0

      ---         MODULE    ---      ---       zf_common_debug
      00FF718EH   PUBLIC    CODE     ---       debug_interrupr_handler
      00FF6B2AH   PUBLIC    CODE     ---       debug_init
      00FF699FH   PUBLIC    CODE     ---       debug_assert_handler
      00FF75ADH   PUBLIC    CODE     ---       putchar
      000106CCH   PUBLIC    XDATA    ---       debug_uart_buffer
      0001070DH   PUBLIC    XDATA    ---       debug_uart_fifo
      000000D0H   SFRSYM    DATA     BYTE      PSW
      0000009DH   SFRSYM    DATA     BYTE      IRCBAND
      00000097H   SFRSYM    DATA     BYTE      AUXR2
      000000EFH   SFRSYM    DATA     BYTE      AUXINTIF
      000000FDH   SFRSYM    DATA     BYTE      S4CON
      000000ACH   SFRSYM    DATA     BYTE      S3CON
      0000009AH   SFRSYM    DATA     BYTE      S2CON
      000000B7H   SFRSYM    DATA     BYTE      IPH
      000000CDH   SFRSYM    DATA     BYTE      SPSTAT
      000000DDH   SFRSYM    DATA     BYTE      T4T3M
      000000C1H   SFRSYM    DATA     BYTE      WDT_CONTR
      000000DFH   SFRSYM    DATA     BYTE      IP3
      000000F4H   SFRSYM    DATA     BYTE      USBCON
      000000B5H   SFRSYM    DATA     BYTE      IP2
      000000FFH   SFRSYM    DATA     BYTE      RSTCFG
      000000C7H   SFRSYM    DATA     BYTE      IAP_CONTR
      000000F9H   SFRSYM    DATA     BYTE      LINICR
      0000008EH   SFRSYM    DATA     BYTE      AUXR
      000000AFH   SFRSYM    DATA     BYTE      IE2
      00000088H   SFRSYM    DATA     BYTE      TCON
      00000089H   SFRSYM    DATA     BYTE      TMOD
      00000098H   SFRSYM    DATA     BYTE      SCON
      000000F1H   SFRSYM    DATA     BYTE      CANICR
      00000087H   SFRSYM    DATA     BYTE      PCON
      000000BCH   SFRSYM    DATA     BYTE      ADC_CONTR
      000000E7H   SFRSYM    DATA     BYTE      CMPCR2
      000000E6H   SFRSYM    DATA     BYTE      CMPCR1
      000000DEH   SFRSYM    DATA     BYTE      ADCCFG
      000000B8H   SFRSYM    DATA     BYTE      IP
      0000008FH   SFRSYM    DATA     BYTE      INTCLKO
      000000EEH   SFRSYM    DATA     BYTE      IP3H
      000000B6H   SFRSYM    DATA     BYTE      IP2H
      000000A8H   SFRSYM    DATA     BYTE      IE
L251 LINKER/LOCATER V4.66.93.0                                                        01/24/2026  18:53:03  PAGE 42


      000000BBH   SFRSYM    DATA     BYTE      P_SW3
      000000BAH   SFRSYM    DATA     BYTE      P_SW2
      000000A2H   SFRSYM    DATA     BYTE      P_SW1
      000000CEH   SFRSYM    DATA     BYTE      SPCTL
      000000F8H   SFRSYM    DATA     BYTE      P7
      000000E8H   SFRSYM    DATA     BYTE      P6
      000000C8H   SFRSYM    DATA     BYTE      P5
      000000C0H   SFRSYM    DATA     BYTE      P4
      000000B0H   SFRSYM    DATA     BYTE      P3
      000000A0H   SFRSYM    DATA     BYTE      P2
      00000090H   SFRSYM    DATA     BYTE      P1
      00000080H   SFRSYM    DATA     BYTE      P0
      00FF8621H   SYMBOL    HCONST   ---       ?tpl?0001
      0001070CH   SYMBOL    XDATA    BYTE      zf_debug_assert_enable
      00010724H   SYMBOL    XDATA    BYTE      zf_debug_init_flag
      REG=2       REGSYM    ---      ---       buff
      DR12        REGSYM    ---      DWORD     len
      REG=2       REGSYM    ---      ---       buff

      00FF718EH   BLOCK     CODE     ---       LVL=0
      0001063BH   SYMBOL    XDATA    BYTE      dat
      00FF718EH   LINE      CODE     ---       #281
      00FF7192H   LINE      CODE     ---       #283
      00FF7198H   LINE      CODE     ---       #285
      00FF71A5H   LINE      CODE     ---       #286
      00FF71C6H   LINE      CODE     ---       #287
      ---         BLOCKEND  ---      ---       LVL=0

      00FF75ADH   BLOCK     CODE     ---       LVL=0
      R15         REGSYM    ---      CHAR      c
      00FF75ADH   LINE      CODE     ---       #303
      00FF75B1H   LINE      CODE     ---       #305
      00FF75B6H   LINE      CODE     ---       #307
      00FF75B8H   LINE      CODE     ---       #308
      ---         BLOCKEND  ---      ---       LVL=0

      00FF699FH   BLOCK     CODE     ---       LVL=0
      0001064DH   SYMBOL    XDATA    BYTE      pass
      REG=3       REGSYM    ---      ---       file
      0001064EH   SYMBOL    XDATA    INT       line
      00FF69ADH   BLOCK     CODE     NEAR LAB  LVL=1
      00010650H   SYMBOL    XDATA    ---       log_str
      ---         BLOCKEND  ---      ---       LVL=1
      00FF699FH   LINE      CODE     ---       #346
      00FF69ADH   LINE      CODE     ---       #347
      00FF69ADH   LINE      CODE     ---       #348
      00FF69C2H   LINE      CODE     ---       #350
      00FF69C4H   LINE      CODE     ---       #366
      00FF69F7H   LINE      CODE     ---       #369
      00FF69FEH   LINE      CODE     ---       #370
      00FF6A04H   LINE      CODE     ---       #371
      ---         BLOCKEND  ---      ---       LVL=0

      00FF6B2AH   BLOCK     CODE     ---       LVL=0
      00FF6B2AH   LINE      CODE     ---       #453
      00FF6B2AH   LINE      CODE     ---       #454
      00FF6B2AH   LINE      CODE     ---       #455
      00FF6B2AH   LINE      CODE     ---       #461
      00FF6B45H   LINE      CODE     ---       #468
      00FF6B72H   LINE      CODE     ---       #469
      00FF6B79H   LINE      CODE     ---       #472
      00FF6B79H   LINE      CODE     ---       #474
      00FF6B83H   LINE      CODE     ---       #475
      00FF6B83H   LINE      CODE     ---       #476
      00FF6B83H   LINE      CODE     ---       #478
L251 LINKER/LOCATER V4.66.93.0                                                        01/24/2026  18:53:03  PAGE 43


      00FF6B83H   LINE      CODE     ---       #480
      00FF6B83H   LINE      CODE     ---       #482
      00FF6B83H   LINE      CODE     ---       #484
      00FF6B83H   LINE      CODE     ---       #486
      00FF6B83H   LINE      CODE     ---       #487
      ---         BLOCKEND  ---      ---       LVL=0

      ---         MODULE    ---      ---       zf_common_fifo
      00FF3FDAH   PUBLIC    CODE     ---       fifo_write_buffer
      00FF6704H   PUBLIC    CODE     ---       fifo_init
      00010638H   PUBLIC    XDATA    BYTE      ?fifo_write_buffer?BYTE
      00010637H   PUBLIC    XDATA    BYTE      ?fifo_init?BYTE
      000000D0H   SFRSYM    DATA     BYTE      PSW
      0000009DH   SFRSYM    DATA     BYTE      IRCBAND
      00000097H   SFRSYM    DATA     BYTE      AUXR2
      000000EFH   SFRSYM    DATA     BYTE      AUXINTIF
      000000FDH   SFRSYM    DATA     BYTE      S4CON
      000000ACH   SFRSYM    DATA     BYTE      S3CON
      0000009AH   SFRSYM    DATA     BYTE      S2CON
      000000B7H   SFRSYM    DATA     BYTE      IPH
      000000CDH   SFRSYM    DATA     BYTE      SPSTAT
      000000DDH   SFRSYM    DATA     BYTE      T4T3M
      000000C1H   SFRSYM    DATA     BYTE      WDT_CONTR
      000000DFH   SFRSYM    DATA     BYTE      IP3
      000000F4H   SFRSYM    DATA     BYTE      USBCON
      000000B5H   SFRSYM    DATA     BYTE      IP2
      000000FFH   SFRSYM    DATA     BYTE      RSTCFG
      000000C7H   SFRSYM    DATA     BYTE      IAP_CONTR
      000000F9H   SFRSYM    DATA     BYTE      LINICR
      0000008EH   SFRSYM    DATA     BYTE      AUXR
      000000AFH   SFRSYM    DATA     BYTE      IE2
      00000088H   SFRSYM    DATA     BYTE      TCON
      00000089H   SFRSYM    DATA     BYTE      TMOD
      00000098H   SFRSYM    DATA     BYTE      SCON
      000000F1H   SFRSYM    DATA     BYTE      CANICR
      00000087H   SFRSYM    DATA     BYTE      PCON
      000000BCH   SFRSYM    DATA     BYTE      ADC_CONTR
      000000E7H   SFRSYM    DATA     BYTE      CMPCR2
      000000E6H   SFRSYM    DATA     BYTE      CMPCR1
      000000DEH   SFRSYM    DATA     BYTE      ADCCFG
      000000B8H   SFRSYM    DATA     BYTE      IP
      0000008FH   SFRSYM    DATA     BYTE      INTCLKO
      000000EEH   SFRSYM    DATA     BYTE      IP3H
      000000B6H   SFRSYM    DATA     BYTE      IP2H
      000000A8H   SFRSYM    DATA     BYTE      IE
      000000BBH   SFRSYM    DATA     BYTE      P_SW3
      000000BAH   SFRSYM    DATA     BYTE      P_SW2
      000000A2H   SFRSYM    DATA     BYTE      P_SW1
      000000CEH   SFRSYM    DATA     BYTE      SPCTL
      000000F8H   SFRSYM    DATA     BYTE      P7
      000000E8H   SFRSYM    DATA     BYTE      P6
      000000C8H   SFRSYM    DATA     BYTE      P5
      000000C0H   SFRSYM    DATA     BYTE      P4
      000000B0H   SFRSYM    DATA     BYTE      P3
      000000A0H   SFRSYM    DATA     BYTE      P2
      00000090H   SFRSYM    DATA     BYTE      P1
      00000080H   SFRSYM    DATA     BYTE      P0
      00FF6E60H   SYMBOL    CODE     ---       fifo_head_offset

      00FF6E60H   BLOCK     CODE     ---       LVL=0
      REG=7       REGSYM    ---      ---       fifo
      DR24        REGSYM    ---      DWORD     offset
      00FF6E60H   LINE      CODE     ---       #51
      00FF6E64H   LINE      CODE     ---       #53
      00FF6E71H   LINE      CODE     ---       #55
L251 LINKER/LOCATER V4.66.93.0                                                        01/24/2026  18:53:03  PAGE 44


      00FF6E73H   LINE      CODE     ---       #57
      00FF6E91H   LINE      CODE     ---       #58
      00FF6EA5H   LINE      CODE     ---       #59
      ---         BLOCKEND  ---      ---       LVL=0
      REG=7       REGSYM    ---      ---       fifo
      DR24        REGSYM    ---      DWORD     offset
      REG=3       REGSYM    ---      ---       fifo
      REG=3       REGSYM    ---      ---       fifo

      00FF3FDAH   BLOCK     CODE     ---       LVL=0
      REG=3       REGSYM    ---      ---       fifo
      0001063CH   SYMBOL    XDATA    ---       dat
      00010640H   SYMBOL    XDATA    DWORD     length
      00FF3FE8H   BLOCK     CODE     NEAR LAB  LVL=1
      00010644H   SYMBOL    XDATA    INT       return_state
      00010646H   SYMBOL    XDATA    DWORD     temp_length
      ---         BLOCKEND  ---      ---       LVL=1
      00FF3FDAH   LINE      CODE     ---       #178
      00FF3FE8H   LINE      CODE     ---       #179
      00FF3FE8H   LINE      CODE     ---       #180
      00FF3FF0H   LINE      CODE     ---       #181
      00FF3FFCH   LINE      CODE     ---       #182
      00FF4016H   LINE      CODE     ---       #184
      00FF4016H   LINE      CODE     ---       #186
      00FF4026H   LINE      CODE     ---       #188
      00FF402AH   LINE      CODE     ---       #189
      00FF402CH   LINE      CODE     ---       #190
      00FF402CH   LINE      CODE     ---       #191
      00FF4037H   LINE      CODE     ---       #193
      00FF4041H   LINE      CODE     ---       #194
      00FF4044H   LINE      CODE     ---       #195
      00FF4044H   LINE      CODE     ---       #196
      00FF4049H   LINE      CODE     ---       #198
      00FF4062H   LINE      CODE     ---       #200
      00FF407EH   LINE      CODE     ---       #202
      00FF4085H   LINE      CODE     ---       #204
      00FF409BH   LINE      CODE     ---       #206
      00FF409BH   LINE      CODE     ---       #208
      00FF40B5H   LINE      CODE     ---       #211
      00FF40C4H   LINE      CODE     ---       #212
      00FF40EDH   LINE      CODE     ---       #216
      00FF40EDH   LINE      CODE     ---       #217
      00FF40F0H   LINE      CODE     ---       #218
      00FF40F0H   LINE      CODE     ---       #220
      00FF411AH   LINE      CODE     ---       #223
      00FF4129H   LINE      CODE     ---       #224
      00FF415DH   LINE      CODE     ---       #228
      00FF415DH   LINE      CODE     ---       #229
      00FF415FH   LINE      CODE     ---       #230
      00FF415FH   LINE      CODE     ---       #232
      00FF418DH   LINE      CODE     ---       #235
      00FF419CH   LINE      CODE     ---       #236
      00FF41E7H   LINE      CODE     ---       #240
      00FF41FFH   LINE      CODE     ---       #241
      00FF41FFH   LINE      CODE     ---       #242
      00FF41FFH   LINE      CODE     ---       #243
      00FF4202H   LINE      CODE     ---       #246
      00FF4215H   LINE      CODE     ---       #248
      00FF4215H   LINE      CODE     ---       #250
      00FF423BH   LINE      CODE     ---       #253
      00FF4247H   LINE      CODE     ---       #254
      00FF4249H   LINE      CODE     ---       #255
      00FF4249H   LINE      CODE     ---       #257
      00FF4273H   LINE      CODE     ---       #260
      00FF427FH   LINE      CODE     ---       #261
L251 LINKER/LOCATER V4.66.93.0                                                        01/24/2026  18:53:03  PAGE 45


      00FF4281H   LINE      CODE     ---       #262
      00FF4281H   LINE      CODE     ---       #264
      00FF42AFH   LINE      CODE     ---       #267
      00FF42BEH   LINE      CODE     ---       #268
      00FF42BEH   LINE      CODE     ---       #269
      00FF42BEH   LINE      CODE     ---       #270
      00FF42BEH   LINE      CODE     ---       #272
      00FF42DEH   LINE      CODE     ---       #273
      00FF42E0H   LINE      CODE     ---       #276
      00FF42EAH   LINE      CODE     ---       #277
      00FF42EAH   LINE      CODE     ---       #278
      00FF42F2H   LINE      CODE     ---       #279
      00FF42F2H   LINE      CODE     ---       #281
      00FF42F8H   LINE      CODE     ---       #282
      ---         BLOCKEND  ---      ---       LVL=0
      REG=3       REGSYM    ---      ---       fifo

      00FF6704H   BLOCK     CODE     ---       LVL=0
      REG=3       REGSYM    ---      ---       fifo
      0001063BH   SYMBOL    XDATA    INT       type
      0001063DH   SYMBOL    XDATA    ---       buffer_addr
      00010641H   SYMBOL    XDATA    DWORD     siz
      00FF6704H   LINE      CODE     ---       #549
      00FF670EH   LINE      CODE     ---       #551
      00FF6728H   LINE      CODE     ---       #552
      00FF6728H   LINE      CODE     ---       #554
      00FF673AH   LINE      CODE     ---       #555
      00FF673EH   LINE      CODE     ---       #556
      00FF6748H   LINE      CODE     ---       #557
      00FF6752H   LINE      CODE     ---       #558
      00FF675AH   LINE      CODE     ---       #559
      00FF676CH   LINE      CODE     ---       #560
      00FF6774H   LINE      CODE     ---       #561
      00FF6774H   LINE      CODE     ---       #562
      00FF6776H   LINE      CODE     ---       #563
      ---         BLOCKEND  ---      ---       LVL=0

      ---         MODULE    ---      ---       zf_common_font
      00FF3071H   PUBLIC    CODE     ---       ascii_font_8x16
      000000D0H   SFRSYM    DATA     BYTE      PSW
      0000009DH   SFRSYM    DATA     BYTE      IRCBAND
      00000097H   SFRSYM    DATA     BYTE      AUXR2
      000000EFH   SFRSYM    DATA     BYTE      AUXINTIF
      000000FDH   SFRSYM    DATA     BYTE      S4CON
      000000ACH   SFRSYM    DATA     BYTE      S3CON
      0000009AH   SFRSYM    DATA     BYTE      S2CON
      000000B7H   SFRSYM    DATA     BYTE      IPH
      000000CDH   SFRSYM    DATA     BYTE      SPSTAT
      000000DDH   SFRSYM    DATA     BYTE      T4T3M
      000000C1H   SFRSYM    DATA     BYTE      WDT_CONTR
      000000DFH   SFRSYM    DATA     BYTE      IP3
      000000F4H   SFRSYM    DATA     BYTE      USBCON
      000000B5H   SFRSYM    DATA     BYTE      IP2
      000000FFH   SFRSYM    DATA     BYTE      RSTCFG
      000000C7H   SFRSYM    DATA     BYTE      IAP_CONTR
      000000F9H   SFRSYM    DATA     BYTE      LINICR
      0000008EH   SFRSYM    DATA     BYTE      AUXR
      000000AFH   SFRSYM    DATA     BYTE      IE2
      00000088H   SFRSYM    DATA     BYTE      TCON
      00000089H   SFRSYM    DATA     BYTE      TMOD
      00000098H   SFRSYM    DATA     BYTE      SCON
      000000F1H   SFRSYM    DATA     BYTE      CANICR
      00000087H   SFRSYM    DATA     BYTE      PCON
      000000BCH   SFRSYM    DATA     BYTE      ADC_CONTR
      000000E7H   SFRSYM    DATA     BYTE      CMPCR2
L251 LINKER/LOCATER V4.66.93.0                                                        01/24/2026  18:53:03  PAGE 46


      000000E6H   SFRSYM    DATA     BYTE      CMPCR1
      000000DEH   SFRSYM    DATA     BYTE      ADCCFG
      000000B8H   SFRSYM    DATA     BYTE      IP
      0000008FH   SFRSYM    DATA     BYTE      INTCLKO
      000000EEH   SFRSYM    DATA     BYTE      IP3H
      000000B6H   SFRSYM    DATA     BYTE      IP2H
      000000A8H   SFRSYM    DATA     BYTE      IE
      000000BBH   SFRSYM    DATA     BYTE      P_SW3
      000000BAH   SFRSYM    DATA     BYTE      P_SW2
      000000A2H   SFRSYM    DATA     BYTE      P_SW1
      000000CEH   SFRSYM    DATA     BYTE      SPCTL
      000000F8H   SFRSYM    DATA     BYTE      P7
      000000E8H   SFRSYM    DATA     BYTE      P6
      000000C8H   SFRSYM    DATA     BYTE      P5
      000000C0H   SFRSYM    DATA     BYTE      P4
      000000B0H   SFRSYM    DATA     BYTE      P3
      000000A0H   SFRSYM    DATA     BYTE      P2
      00000090H   SFRSYM    DATA     BYTE      P1
      00000080H   SFRSYM    DATA     BYTE      P0

      ---         MODULE    ---      ---       zf_common_function
      000000D0H   SFRSYM    DATA     BYTE      PSW
      0000009DH   SFRSYM    DATA     BYTE      IRCBAND
      00000097H   SFRSYM    DATA     BYTE      AUXR2
      000000EFH   SFRSYM    DATA     BYTE      AUXINTIF
      000000FDH   SFRSYM    DATA     BYTE      S4CON
      000000ACH   SFRSYM    DATA     BYTE      S3CON
      0000009AH   SFRSYM    DATA     BYTE      S2CON
      000000B7H   SFRSYM    DATA     BYTE      IPH
      000000CDH   SFRSYM    DATA     BYTE      SPSTAT
      000000DDH   SFRSYM    DATA     BYTE      T4T3M
      000000C1H   SFRSYM    DATA     BYTE      WDT_CONTR
      000000DFH   SFRSYM    DATA     BYTE      IP3
      000000F4H   SFRSYM    DATA     BYTE      USBCON
      000000B5H   SFRSYM    DATA     BYTE      IP2
      000000FFH   SFRSYM    DATA     BYTE      RSTCFG
      000000C7H   SFRSYM    DATA     BYTE      IAP_CONTR
      000000F9H   SFRSYM    DATA     BYTE      LINICR
      0000008EH   SFRSYM    DATA     BYTE      AUXR
      000000AFH   SFRSYM    DATA     BYTE      IE2
      00000088H   SFRSYM    DATA     BYTE      TCON
      00000089H   SFRSYM    DATA     BYTE      TMOD
      00000098H   SFRSYM    DATA     BYTE      SCON
      000000F1H   SFRSYM    DATA     BYTE      CANICR
      00000087H   SFRSYM    DATA     BYTE      PCON
      000000BCH   SFRSYM    DATA     BYTE      ADC_CONTR
      000000E7H   SFRSYM    DATA     BYTE      CMPCR2
      000000E6H   SFRSYM    DATA     BYTE      CMPCR1
      000000DEH   SFRSYM    DATA     BYTE      ADCCFG
      000000B8H   SFRSYM    DATA     BYTE      IP
      0000008FH   SFRSYM    DATA     BYTE      INTCLKO
      000000EEH   SFRSYM    DATA     BYTE      IP3H
      000000B6H   SFRSYM    DATA     BYTE      IP2H
      000000A8H   SFRSYM    DATA     BYTE      IE
      000000BBH   SFRSYM    DATA     BYTE      P_SW3
      000000BAH   SFRSYM    DATA     BYTE      P_SW2
      000000A2H   SFRSYM    DATA     BYTE      P_SW1
      000000CEH   SFRSYM    DATA     BYTE      SPCTL
      000000F8H   SFRSYM    DATA     BYTE      P7
      000000E8H   SFRSYM    DATA     BYTE      P6
      000000C8H   SFRSYM    DATA     BYTE      P5
      000000C0H   SFRSYM    DATA     BYTE      P4
      000000B0H   SFRSYM    DATA     BYTE      P3
      000000A0H   SFRSYM    DATA     BYTE      P2
      00000090H   SFRSYM    DATA     BYTE      P1
L251 LINKER/LOCATER V4.66.93.0                                                        01/24/2026  18:53:03  PAGE 47


      00000080H   SFRSYM    DATA     BYTE      P0
      00FF8320H   SYMBOL    HCONST   ---       ?tpl?0001
      00FF8330H   SYMBOL    HCONST   ---       ?tpl?0002
      DR8         REGSYM    ---      DWORD     num1
      DR28        REGSYM    ---      DWORD     num2
      REG=3       REGSYM    ---      ---       str
      REG=3       REGSYM    ---      ---       str
      REG=3       REGSYM    ---      ---       str
      REG=3       REGSYM    ---      ---       str
      REG=3       REGSYM    ---      ---       str
      REG=3       REGSYM    ---      ---       str
      REG=3       REGSYM    ---      ---       str
      REG=3       REGSYM    ---      ---       str
      REG=3       REGSYM    ---      ---       str
      REG=3       REGSYM    ---      ---       str
      DR24        REGSYM    ---      DWORD     dat
      REG=7       REGSYM    ---      ---       p
      R10         REGSYM    ---      BYTE      neg_type
      DR20        REGSYM    ---      LONG      neg_dat
      DR24        REGSYM    ---      DWORD     pos_dat
      R14         REGSYM    ---      BYTE      temp_data
      R15         REGSYM    ---      BYTE      valid_num
      REG=7       REGSYM    ---      ---       d_buff
      DR24        REGSYM    ---      DWORD     len
      DR4         REGSYM    ---      DWORD     i
      R3          REGSYM    ---      CHAR      temp_data
      REG=4       REGSYM    ---      ---       buffer
      DR28        REGSYM    ---      DWORD     siz
      REG=5       REGSYM    ---      ---       format
      REG=6       REGSYM    ---      ---       args
      REG=0       REGSYM    ---      ---       ptr
      WR8         REGSYM    ---      INT       num
      REG=4       REGSYM    ---      ---       str
      R10         REGSYM    ---      CHAR      t
      REG=3       REGSYM    ---      ---       buff

      ---         MODULE    ---      ---       zf_common_typedef
      000108BCH   PUBLIC    XDATA    ---       tim11_irq_handler
      000108BEH   PUBLIC    XDATA    ---       uart1_irq_handler
      000108C0H   PUBLIC    XDATA    ---       uart2_irq_handler
      000108C2H   PUBLIC    XDATA    ---       uart3_irq_handler
      000108C4H   PUBLIC    XDATA    ---       uart4_irq_handler
      000108C6H   PUBLIC    XDATA    ---       tim0_irq_handler
      000108C8H   PUBLIC    XDATA    ---       int0_irq_handler
      000108CAH   PUBLIC    XDATA    ---       tim1_irq_handler
      000108CCH   PUBLIC    XDATA    ---       int1_irq_handler
      000108CEH   PUBLIC    XDATA    ---       tim2_irq_handler
      000108D0H   PUBLIC    XDATA    ---       int2_irq_handler
      000108D2H   PUBLIC    XDATA    ---       tim3_irq_handler
      000108D4H   PUBLIC    XDATA    ---       int3_irq_handler
      000108D6H   PUBLIC    XDATA    ---       tim4_irq_handler
      000108D8H   PUBLIC    XDATA    ---       int4_irq_handler
      000000D0H   SFRSYM    DATA     BYTE      PSW
      0000009DH   SFRSYM    DATA     BYTE      IRCBAND
      00000097H   SFRSYM    DATA     BYTE      AUXR2
      000000EFH   SFRSYM    DATA     BYTE      AUXINTIF
      000000FDH   SFRSYM    DATA     BYTE      S4CON
      000000ACH   SFRSYM    DATA     BYTE      S3CON
      0000009AH   SFRSYM    DATA     BYTE      S2CON
      000000B7H   SFRSYM    DATA     BYTE      IPH
      000000CDH   SFRSYM    DATA     BYTE      SPSTAT
      000000DDH   SFRSYM    DATA     BYTE      T4T3M
      000000C1H   SFRSYM    DATA     BYTE      WDT_CONTR
      000000DFH   SFRSYM    DATA     BYTE      IP3
      000000F4H   SFRSYM    DATA     BYTE      USBCON
L251 LINKER/LOCATER V4.66.93.0                                                        01/24/2026  18:53:03  PAGE 48


      000000B5H   SFRSYM    DATA     BYTE      IP2
      000000FFH   SFRSYM    DATA     BYTE      RSTCFG
      000000C7H   SFRSYM    DATA     BYTE      IAP_CONTR
      000000F9H   SFRSYM    DATA     BYTE      LINICR
      0000008EH   SFRSYM    DATA     BYTE      AUXR
      000000AFH   SFRSYM    DATA     BYTE      IE2
      00000088H   SFRSYM    DATA     BYTE      TCON
      00000089H   SFRSYM    DATA     BYTE      TMOD
      00000098H   SFRSYM    DATA     BYTE      SCON
      000000F1H   SFRSYM    DATA     BYTE      CANICR
      00000087H   SFRSYM    DATA     BYTE      PCON
      000000BCH   SFRSYM    DATA     BYTE      ADC_CONTR
      000000E7H   SFRSYM    DATA     BYTE      CMPCR2
      000000E6H   SFRSYM    DATA     BYTE      CMPCR1
      000000DEH   SFRSYM    DATA     BYTE      ADCCFG
      000000B8H   SFRSYM    DATA     BYTE      IP
      0000008FH   SFRSYM    DATA     BYTE      INTCLKO
      000000EEH   SFRSYM    DATA     BYTE      IP3H
      000000B6H   SFRSYM    DATA     BYTE      IP2H
      000000A8H   SFRSYM    DATA     BYTE      IE
      000000BBH   SFRSYM    DATA     BYTE      P_SW3
      000000BAH   SFRSYM    DATA     BYTE      P_SW2
      000000A2H   SFRSYM    DATA     BYTE      P_SW1
      000000CEH   SFRSYM    DATA     BYTE      SPCTL
      000000F8H   SFRSYM    DATA     BYTE      P7
      000000E8H   SFRSYM    DATA     BYTE      P6
      000000C8H   SFRSYM    DATA     BYTE      P5
      000000C0H   SFRSYM    DATA     BYTE      P4
      000000B0H   SFRSYM    DATA     BYTE      P3
      000000A0H   SFRSYM    DATA     BYTE      P2
      00000090H   SFRSYM    DATA     BYTE      P1
      00000080H   SFRSYM    DATA     BYTE      P0

      ---         MODULE    ---      ---       zf_common_interrupt
      00FF001EH   PUBLIC    CODE     ---       interrupt_global_enable
      000000D0H   SFRSYM    DATA     BYTE      PSW
      0000009DH   SFRSYM    DATA     BYTE      IRCBAND
      00000097H   SFRSYM    DATA     BYTE      AUXR2
      000000EFH   SFRSYM    DATA     BYTE      AUXINTIF
      000000FDH   SFRSYM    DATA     BYTE      S4CON
      000000ACH   SFRSYM    DATA     BYTE      S3CON
      0000009AH   SFRSYM    DATA     BYTE      S2CON
      000000B7H   SFRSYM    DATA     BYTE      IPH
      000000CDH   SFRSYM    DATA     BYTE      SPSTAT
      000000DDH   SFRSYM    DATA     BYTE      T4T3M
      000000C1H   SFRSYM    DATA     BYTE      WDT_CONTR
      000000DFH   SFRSYM    DATA     BYTE      IP3
      000000F4H   SFRSYM    DATA     BYTE      USBCON
      000000B5H   SFRSYM    DATA     BYTE      IP2
      000000FFH   SFRSYM    DATA     BYTE      RSTCFG
      000000C7H   SFRSYM    DATA     BYTE      IAP_CONTR
      000000F9H   SFRSYM    DATA     BYTE      LINICR
      0000008EH   SFRSYM    DATA     BYTE      AUXR
      000000AFH   SFRSYM    DATA     BYTE      IE2
      00000088H   SFRSYM    DATA     BYTE      TCON
      00000089H   SFRSYM    DATA     BYTE      TMOD
      00000098H   SFRSYM    DATA     BYTE      SCON
      000000F1H   SFRSYM    DATA     BYTE      CANICR
      00000087H   SFRSYM    DATA     BYTE      PCON
      000000BCH   SFRSYM    DATA     BYTE      ADC_CONTR
      000000E7H   SFRSYM    DATA     BYTE      CMPCR2
      000000E6H   SFRSYM    DATA     BYTE      CMPCR1
      000000DEH   SFRSYM    DATA     BYTE      ADCCFG
      000000B8H   SFRSYM    DATA     BYTE      IP
      0000008FH   SFRSYM    DATA     BYTE      INTCLKO
L251 LINKER/LOCATER V4.66.93.0                                                        01/24/2026  18:53:03  PAGE 49


      000000EEH   SFRSYM    DATA     BYTE      IP3H
      000000B6H   SFRSYM    DATA     BYTE      IP2H
      000000A8H   SFRSYM    DATA     BYTE      IE
      000000BBH   SFRSYM    DATA     BYTE      P_SW3
      000000BAH   SFRSYM    DATA     BYTE      P_SW2
      000000A2H   SFRSYM    DATA     BYTE      P_SW1
      000000CEH   SFRSYM    DATA     BYTE      SPCTL
      000000F8H   SFRSYM    DATA     BYTE      P7
      000000A8H.7 SFRSYM    DATA     BIT       EA
      000000E8H   SFRSYM    DATA     BYTE      P6
      000000C8H   SFRSYM    DATA     BYTE      P5
      000000C0H   SFRSYM    DATA     BYTE      P4
      000000B0H   SFRSYM    DATA     BYTE      P3
      000000A0H   SFRSYM    DATA     BYTE      P2
      00000090H   SFRSYM    DATA     BYTE      P1
      00000080H   SFRSYM    DATA     BYTE      P0
      WR4         REGSYM    ---      INT       irqn
      R3          REGSYM    ---      BYTE      priority

      00FF001EH   BLOCK     CODE     ---       LVL=0
      00FF001EH   LINE      CODE     ---       #88
      00FF001EH   LINE      CODE     ---       #90
      00FF0020H   LINE      CODE     ---       #91
      ---         BLOCKEND  ---      ---       LVL=0

      ---         MODULE    ---      ---       zf_driver_adc
      00FF72FCH   PUBLIC    CODE     ---       adc_convert
      00FF6A69H   PUBLIC    CODE     ---       adc_init
      00000094H   SFRSYM    DATA     BYTE      P0M0
      000000D0H   SFRSYM    DATA     BYTE      PSW
      0000009DH   SFRSYM    DATA     BYTE      IRCBAND
      00000097H   SFRSYM    DATA     BYTE      AUXR2
      000000EFH   SFRSYM    DATA     BYTE      AUXINTIF
      000000FDH   SFRSYM    DATA     BYTE      S4CON
      000000ACH   SFRSYM    DATA     BYTE      S3CON
      0000009AH   SFRSYM    DATA     BYTE      S2CON
      000000B7H   SFRSYM    DATA     BYTE      IPH
      000000CDH   SFRSYM    DATA     BYTE      SPSTAT
      000000BEH   SFRSYM    DATA     BYTE      ADC_RESL
      000000DDH   SFRSYM    DATA     BYTE      T4T3M
      000000C1H   SFRSYM    DATA     BYTE      WDT_CONTR
      000000DFH   SFRSYM    DATA     BYTE      IP3
      000000F4H   SFRSYM    DATA     BYTE      USBCON
      000000B5H   SFRSYM    DATA     BYTE      IP2
      000000FFH   SFRSYM    DATA     BYTE      RSTCFG
      000000C7H   SFRSYM    DATA     BYTE      IAP_CONTR
      000000F9H   SFRSYM    DATA     BYTE      LINICR
      0000008EH   SFRSYM    DATA     BYTE      AUXR
      000000AFH   SFRSYM    DATA     BYTE      IE2
      00000088H   SFRSYM    DATA     BYTE      TCON
      00000089H   SFRSYM    DATA     BYTE      TMOD
      00000098H   SFRSYM    DATA     BYTE      SCON
      000000F1H   SFRSYM    DATA     BYTE      CANICR
      00000087H   SFRSYM    DATA     BYTE      PCON
      000000BCH   SFRSYM    DATA     BYTE      ADC_CONTR
      000000E7H   SFRSYM    DATA     BYTE      CMPCR2
      000000E6H   SFRSYM    DATA     BYTE      CMPCR1
      000000DEH   SFRSYM    DATA     BYTE      ADCCFG
      000000B8H   SFRSYM    DATA     BYTE      IP
      0000008FH   SFRSYM    DATA     BYTE      INTCLKO
      000000EEH   SFRSYM    DATA     BYTE      IP3H
      000000B6H   SFRSYM    DATA     BYTE      IP2H
      000000BDH   SFRSYM    DATA     BYTE      ADC_RES
      000000A8H   SFRSYM    DATA     BYTE      IE
      000000BBH   SFRSYM    DATA     BYTE      P_SW3
L251 LINKER/LOCATER V4.66.93.0                                                        01/24/2026  18:53:03  PAGE 50


      000000BAH   SFRSYM    DATA     BYTE      P_SW2
      000000A2H   SFRSYM    DATA     BYTE      P_SW1
      000000CEH   SFRSYM    DATA     BYTE      SPCTL
      000000F8H   SFRSYM    DATA     BYTE      P7
      000000E8H   SFRSYM    DATA     BYTE      P6
      000000C8H   SFRSYM    DATA     BYTE      P5
      000000C0H   SFRSYM    DATA     BYTE      P4
      000000B0H   SFRSYM    DATA     BYTE      P3
      000000A0H   SFRSYM    DATA     BYTE      P2
      00000090H   SFRSYM    DATA     BYTE      P1
      00000080H   SFRSYM    DATA     BYTE      P0
      00000091H   SFRSYM    DATA     BYTE      P1M1
      00000092H   SFRSYM    DATA     BYTE      P1M0
      00000093H   SFRSYM    DATA     BYTE      P0M1
      000109DCH   SYMBOL    XDATA    BYTE      adc_resolution
      WR14        REGSYM    ---      INT       ch
      R13         REGSYM    ---      BYTE      count
      R12         REGSYM    ---      BYTE      i

      00FF72FCH   BLOCK     CODE     ---       LVL=0
      WR6         REGSYM    ---      INT       ch
      WR6         REGSYM    ---      WORD      adc_value
      00FF72FCH   LINE      CODE     ---       #75
      00FF72FCH   LINE      CODE     ---       #76
      00FF72FCH   LINE      CODE     ---       #79
      00FF72FFH   LINE      CODE     ---       #80
      00FF7303H   LINE      CODE     ---       #82
      00FF7306H   LINE      CODE     ---       #84
      00FF730BH   LINE      CODE     ---       #86
      00FF730EH   LINE      CODE     ---       #88
      00FF7310H   LINE      CODE     ---       #89
      00FF7314H   LINE      CODE     ---       #90
      00FF731AH   LINE      CODE     ---       #92
      00FF731DH   LINE      CODE     ---       #93
      00FF7320H   LINE      CODE     ---       #95
      00FF732BH   LINE      CODE     ---       #98
      00FF732BH   LINE      CODE     ---       #99
      ---         BLOCKEND  ---      ---       LVL=0

      00FF6A69H   BLOCK     CODE     ---       LVL=0
      WR4         REGSYM    ---      INT       ch
      WR2         REGSYM    ---      INT       resolution
      00FF6A69H   LINE      CODE     ---       #108
      00FF6A6DH   LINE      CODE     ---       #110
      00FF6A70H   LINE      CODE     ---       #112
      00FF6A73H   LINE      CODE     ---       #113
      00FF6A79H   LINE      CODE     ---       #115
      00FF6A85H   LINE      CODE     ---       #118
      00FF6A9AH   LINE      CODE     ---       #119
      00FF6A9EH   LINE      CODE     ---       #120
      00FF6AA0H   LINE      CODE     ---       #121
      00FF6AA4H   LINE      CODE     ---       #124
      00FF6AB9H   LINE      CODE     ---       #125
      00FF6ABDH   LINE      CODE     ---       #126
      00FF6ABDH   LINE      CODE     ---       #128
      00FF6AC0H   LINE      CODE     ---       #130
      00FF6AC3H   LINE      CODE     ---       #132
      00FF6AC9H   LINE      CODE     ---       #133
      ---         BLOCKEND  ---      ---       LVL=0

      ---         MODULE    ---      ---       zf_driver_delay
      00FF6EA6H   PUBLIC    CODE     ---       system_delay_init
      00FF7516H   PUBLIC    CODE     ---       system_delay_ms
      000000D0H   SFRSYM    DATA     BYTE      PSW
      0000009DH   SFRSYM    DATA     BYTE      IRCBAND
L251 LINKER/LOCATER V4.66.93.0                                                        01/24/2026  18:53:03  PAGE 51


      00000097H   SFRSYM    DATA     BYTE      AUXR2
      000000EFH   SFRSYM    DATA     BYTE      AUXINTIF
      000000FDH   SFRSYM    DATA     BYTE      S4CON
      000000ACH   SFRSYM    DATA     BYTE      S3CON
      0000009AH   SFRSYM    DATA     BYTE      S2CON
      000000B7H   SFRSYM    DATA     BYTE      IPH
      000000CDH   SFRSYM    DATA     BYTE      SPSTAT
      000000DDH   SFRSYM    DATA     BYTE      T4T3M
      000000C1H   SFRSYM    DATA     BYTE      WDT_CONTR
      000000DFH   SFRSYM    DATA     BYTE      IP3
      000000F4H   SFRSYM    DATA     BYTE      USBCON
      000000B5H   SFRSYM    DATA     BYTE      IP2
      000000FFH   SFRSYM    DATA     BYTE      RSTCFG
      000000C7H   SFRSYM    DATA     BYTE      IAP_CONTR
      000000F9H   SFRSYM    DATA     BYTE      LINICR
      0000008EH   SFRSYM    DATA     BYTE      AUXR
      000000AFH   SFRSYM    DATA     BYTE      IE2
      00000088H   SFRSYM    DATA     BYTE      TCON
      00000089H   SFRSYM    DATA     BYTE      TMOD
      00000098H   SFRSYM    DATA     BYTE      SCON
      000000F1H   SFRSYM    DATA     BYTE      CANICR
      00000087H   SFRSYM    DATA     BYTE      PCON
      000000BCH   SFRSYM    DATA     BYTE      ADC_CONTR
      000000E7H   SFRSYM    DATA     BYTE      CMPCR2
      000000E6H   SFRSYM    DATA     BYTE      CMPCR1
      000000DEH   SFRSYM    DATA     BYTE      ADCCFG
      000000B8H   SFRSYM    DATA     BYTE      IP
      0000008FH   SFRSYM    DATA     BYTE      INTCLKO
      000000EEH   SFRSYM    DATA     BYTE      IP3H
      000000B6H   SFRSYM    DATA     BYTE      IP2H
      000000A8H   SFRSYM    DATA     BYTE      IE
      000000BBH   SFRSYM    DATA     BYTE      P_SW3
      000000BAH   SFRSYM    DATA     BYTE      P_SW2
      000000A2H   SFRSYM    DATA     BYTE      P_SW1
      000000CEH   SFRSYM    DATA     BYTE      SPCTL
      000000F8H   SFRSYM    DATA     BYTE      P7
      000000E8H   SFRSYM    DATA     BYTE      P6
      000000C8H   SFRSYM    DATA     BYTE      P5
      000000C0H   SFRSYM    DATA     BYTE      P4
      000000B0H   SFRSYM    DATA     BYTE      P3
      000000A0H   SFRSYM    DATA     BYTE      P2
      00000090H   SFRSYM    DATA     BYTE      P1
      00000080H   SFRSYM    DATA     BYTE      P0
      00FF000EH   SYMBOL    CODE     ---       delay_cycles
      000109C9H   SYMBOL    XDATA    WORD      zf_delay_1ms
      000109CBH   SYMBOL    XDATA    WORD      zf_delay_1us

      00FF000EH   BLOCK     CODE     ---       LVL=0
      WR6         REGSYM    ---      WORD      cycles
      00FF000EH   LINE      CODE     ---       #44
      00FF000EH   LINE      CODE     ---       #47
      00FF000EH   LINE      CODE     ---       #50
      00FF0018H   LINE      CODE     ---       #51
      ---         BLOCKEND  ---      ---       LVL=0

      00FF6EA6H   BLOCK     CODE     ---       LVL=0
      00FF6EA6H   LINE      CODE     ---       #59
      00FF6EA6H   LINE      CODE     ---       #61
      00FF6EBFH   LINE      CODE     ---       #62
      00FF6ED2H   LINE      CODE     ---       #63
      00FF6EE9H   LINE      CODE     ---       #64
      ---         BLOCKEND  ---      ---       LVL=0

      00FF7516H   BLOCK     CODE     ---       LVL=0
      WR14        REGSYM    ---      WORD      ms
L251 LINKER/LOCATER V4.66.93.0                                                        01/24/2026  18:53:03  PAGE 52


      00FF7516H   LINE      CODE     ---       #72
      00FF751AH   LINE      CODE     ---       #74
      00FF751AH   LINE      CODE     ---       #76
      00FF7523H   LINE      CODE     ---       #77
      00FF752BH   LINE      CODE     ---       #78
      ---         BLOCKEND  ---      ---       LVL=0
      WR14        REGSYM    ---      WORD      us

      ---         MODULE    ---      ---       zf_driver_eeprom
      000000D0H   SFRSYM    DATA     BYTE      PSW
      0000009DH   SFRSYM    DATA     BYTE      IRCBAND
      00000097H   SFRSYM    DATA     BYTE      AUXR2
      000000C6H   SFRSYM    DATA     BYTE      IAP_TRIG
      000000EFH   SFRSYM    DATA     BYTE      AUXINTIF
      000000FDH   SFRSYM    DATA     BYTE      S4CON
      000000ACH   SFRSYM    DATA     BYTE      S3CON
      0000009AH   SFRSYM    DATA     BYTE      S2CON
      000000B7H   SFRSYM    DATA     BYTE      IPH
      000000CDH   SFRSYM    DATA     BYTE      SPSTAT
      000000DDH   SFRSYM    DATA     BYTE      T4T3M
      000000C1H   SFRSYM    DATA     BYTE      WDT_CONTR
      000000C2H   SFRSYM    DATA     BYTE      IAP_DATA
      000000DFH   SFRSYM    DATA     BYTE      IP3
      000000F4H   SFRSYM    DATA     BYTE      USBCON
      000000B5H   SFRSYM    DATA     BYTE      IP2
      000000FFH   SFRSYM    DATA     BYTE      RSTCFG
      000000C7H   SFRSYM    DATA     BYTE      IAP_CONTR
      000000F9H   SFRSYM    DATA     BYTE      LINICR
      0000008EH   SFRSYM    DATA     BYTE      AUXR
      000000AFH   SFRSYM    DATA     BYTE      IE2
      00000088H   SFRSYM    DATA     BYTE      TCON
      00000089H   SFRSYM    DATA     BYTE      TMOD
      00000098H   SFRSYM    DATA     BYTE      SCON
      000000F5H   SFRSYM    DATA     BYTE      IAP_TPS
      000000F1H   SFRSYM    DATA     BYTE      CANICR
      00000087H   SFRSYM    DATA     BYTE      PCON
      000000BCH   SFRSYM    DATA     BYTE      ADC_CONTR
      000000E7H   SFRSYM    DATA     BYTE      CMPCR2
      000000E6H   SFRSYM    DATA     BYTE      CMPCR1
      000000C4H   SFRSYM    DATA     BYTE      IAP_ADDRL
      000000C3H   SFRSYM    DATA     BYTE      IAP_ADDRH
      000000F6H   SFRSYM    DATA     BYTE      IAP_ADDRE
      000000DEH   SFRSYM    DATA     BYTE      ADCCFG
      000000B8H   SFRSYM    DATA     BYTE      IP
      0000008FH   SFRSYM    DATA     BYTE      INTCLKO
      000000EEH   SFRSYM    DATA     BYTE      IP3H
      000000B6H   SFRSYM    DATA     BYTE      IP2H
      000000C5H   SFRSYM    DATA     BYTE      IAP_CMD
      000000A8H   SFRSYM    DATA     BYTE      IE
      000000BBH   SFRSYM    DATA     BYTE      P_SW3
      000000BAH   SFRSYM    DATA     BYTE      P_SW2
      000000A2H   SFRSYM    DATA     BYTE      P_SW1
      000000CEH   SFRSYM    DATA     BYTE      SPCTL
      000000F8H   SFRSYM    DATA     BYTE      P7
      000000A8H.7 SFRSYM    DATA     BIT       EA
      000000E8H   SFRSYM    DATA     BYTE      P6
      000000C8H   SFRSYM    DATA     BYTE      P5
      000000C0H   SFRSYM    DATA     BYTE      P4
      000000B0H   SFRSYM    DATA     BYTE      P3
      000000A0H   SFRSYM    DATA     BYTE      P2
      00000090H   SFRSYM    DATA     BYTE      P1
      00000080H   SFRSYM    DATA     BYTE      P0
      00FF7AF8H   SYMBOL    HCONST   ---       ?tpl?0001
      R7          REGSYM    ---      BYTE      write_time
      DR4         REGSYM    ---      DWORD     addr
L251 LINKER/LOCATER V4.66.93.0                                                        01/24/2026  18:53:03  PAGE 53


      R11         REGSYM    ---      BYTE      temp
      DR4         REGSYM    ---      DWORD     addr
      R15         REGSYM    ---      BYTE      byte
      REG=3       REGSYM    ---      ---       buf
      REG=3       REGSYM    ---      ---       buf
      DR0         REGSYM    ---      DWORD     addr
      REG=3       REGSYM    ---      ---       buf

      ---         MODULE    ---      ---       zf_driver_encoder
      00FF685EH   PUBLIC    CODE     ---       encoder_get_count
      00FF5D68H   PUBLIC    CODE     ---       encoder_dir_init
      00FF6C89H   PUBLIC    CODE     ---       encoder_clear_count
      000000D0H   SFRSYM    DATA     BYTE      PSW
      0000009DH   SFRSYM    DATA     BYTE      IRCBAND
      00000097H   SFRSYM    DATA     BYTE      AUXR2
      000000EFH   SFRSYM    DATA     BYTE      AUXINTIF
      000000FDH   SFRSYM    DATA     BYTE      S4CON
      000000ACH   SFRSYM    DATA     BYTE      S3CON
      0000009AH   SFRSYM    DATA     BYTE      S2CON
      000000B7H   SFRSYM    DATA     BYTE      IPH
      000000CDH   SFRSYM    DATA     BYTE      SPSTAT
      000000DDH   SFRSYM    DATA     BYTE      T4T3M
      000000C1H   SFRSYM    DATA     BYTE      WDT_CONTR
      00000088H.6 SFRSYM    DATA     BIT       TR1
      00000088H.4 SFRSYM    DATA     BIT       TR0
      000000D3H   SFRSYM    DATA     BYTE      T4L
      000000D5H   SFRSYM    DATA     BYTE      T3L
      000000D7H   SFRSYM    DATA     BYTE      T2L
      0000008BH   SFRSYM    DATA     BYTE      TL1
      0000008AH   SFRSYM    DATA     BYTE      TL0
      000000D2H   SFRSYM    DATA     BYTE      T4H
      000000D4H   SFRSYM    DATA     BYTE      T3H
      000000D6H   SFRSYM    DATA     BYTE      T2H
      0000008DH   SFRSYM    DATA     BYTE      TH1
      0000008CH   SFRSYM    DATA     BYTE      TH0
      000000DFH   SFRSYM    DATA     BYTE      IP3
      000000F4H   SFRSYM    DATA     BYTE      USBCON
      000000B5H   SFRSYM    DATA     BYTE      IP2
      000000FFH   SFRSYM    DATA     BYTE      RSTCFG
      000000C7H   SFRSYM    DATA     BYTE      IAP_CONTR
      000000F9H   SFRSYM    DATA     BYTE      LINICR
      0000008EH   SFRSYM    DATA     BYTE      AUXR
      000000AFH   SFRSYM    DATA     BYTE      IE2
      00000088H   SFRSYM    DATA     BYTE      TCON
      00000089H   SFRSYM    DATA     BYTE      TMOD
      00000098H   SFRSYM    DATA     BYTE      SCON
      000000F1H   SFRSYM    DATA     BYTE      CANICR
      00000087H   SFRSYM    DATA     BYTE      PCON
      000000BCH   SFRSYM    DATA     BYTE      ADC_CONTR
      000000E7H   SFRSYM    DATA     BYTE      CMPCR2
      000000E6H   SFRSYM    DATA     BYTE      CMPCR1
      000000DEH   SFRSYM    DATA     BYTE      ADCCFG
      000000B8H   SFRSYM    DATA     BYTE      IP
      0000008FH   SFRSYM    DATA     BYTE      INTCLKO
      000000EEH   SFRSYM    DATA     BYTE      IP3H
      000000B6H   SFRSYM    DATA     BYTE      IP2H
      000000A8H   SFRSYM    DATA     BYTE      IE
      000000BBH   SFRSYM    DATA     BYTE      P_SW3
      000000BAH   SFRSYM    DATA     BYTE      P_SW2
      000000A2H   SFRSYM    DATA     BYTE      P_SW1
      000000CEH   SFRSYM    DATA     BYTE      SPCTL
      000000F8H   SFRSYM    DATA     BYTE      P7
      000000E8H   SFRSYM    DATA     BYTE      P6
      000000C8H   SFRSYM    DATA     BYTE      P5
      000000C0H   SFRSYM    DATA     BYTE      P4
L251 LINKER/LOCATER V4.66.93.0                                                        01/24/2026  18:53:03  PAGE 54


      000000B0H   SFRSYM    DATA     BYTE      P3
      000000A0H   SFRSYM    DATA     BYTE      P2
      00000090H   SFRSYM    DATA     BYTE      P1
      00000080H   SFRSYM    DATA     BYTE      P0
      000109BFH   SYMBOL    XDATA    ---       encoder_dir_pin

      00FF685EH   BLOCK     CODE     ---       LVL=0
      WR2         REGSYM    ---      INT       encoder_n
      00FF6862H   BLOCK     CODE     NEAR LAB  LVL=1
      WR14        REGSYM    ---      INT       dat
      ---         BLOCKEND  ---      ---       LVL=1
      00FF685EH   LINE      CODE     ---       #47
      00FF6862H   LINE      CODE     ---       #48
      00FF6862H   LINE      CODE     ---       #49
      00FF6864H   LINE      CODE     ---       #50
      00FF6878H   LINE      CODE     ---       #52
      00FF6878H   LINE      CODE     ---       #54
      00FF687EH   LINE      CODE     ---       #55
      00FF6880H   LINE      CODE     ---       #56
      00FF6882H   LINE      CODE     ---       #58
      00FF6882H   LINE      CODE     ---       #60
      00FF6888H   LINE      CODE     ---       #61
      00FF688AH   LINE      CODE     ---       #62
      00FF688CH   LINE      CODE     ---       #64
      00FF688CH   LINE      CODE     ---       #66
      00FF6892H   LINE      CODE     ---       #67
      00FF6894H   LINE      CODE     ---       #68
      00FF6896H   LINE      CODE     ---       #70
      00FF6896H   LINE      CODE     ---       #72
      00FF689CH   LINE      CODE     ---       #73
      00FF689EH   LINE      CODE     ---       #74
      00FF68A0H   LINE      CODE     ---       #76
      00FF68A0H   LINE      CODE     ---       #78
      00FF68A6H   LINE      CODE     ---       #79
      00FF68ACH   LINE      CODE     ---       #80
      00FF68ACH   LINE      CODE     ---       #82
      00FF68ACH   LINE      CODE     ---       #83
      00FF68C0H   LINE      CODE     ---       #85
      00FF68C6H   LINE      CODE     ---       #86
      00FF68C6H   LINE      CODE     ---       #87
      00FF68C8H   LINE      CODE     ---       #88
      ---         BLOCKEND  ---      ---       LVL=0

      00FF6C89H   BLOCK     CODE     ---       LVL=0
      WR6         REGSYM    ---      INT       encoder_n
      00FF6C89H   LINE      CODE     ---       #97
      00FF6C89H   LINE      CODE     ---       #99
      00FF6C9DH   LINE      CODE     ---       #101
      00FF6C9DH   LINE      CODE     ---       #103
      00FF6C9FH   LINE      CODE     ---       #104
      00FF6CA2H   LINE      CODE     ---       #105
      00FF6CA5H   LINE      CODE     ---       #106
      00FF6CA7H   LINE      CODE     ---       #107
      00FF6CA8H   LINE      CODE     ---       #109
      00FF6CA8H   LINE      CODE     ---       #111
      00FF6CAAH   LINE      CODE     ---       #112
      00FF6CADH   LINE      CODE     ---       #113
      00FF6CB0H   LINE      CODE     ---       #114
      00FF6CB2H   LINE      CODE     ---       #115
      00FF6CB3H   LINE      CODE     ---       #117
      00FF6CB3H   LINE      CODE     ---       #119
      00FF6CB6H   LINE      CODE     ---       #120
      00FF6CB9H   LINE      CODE     ---       #121
      00FF6CBCH   LINE      CODE     ---       #122
      00FF6CBFH   LINE      CODE     ---       #123
L251 LINKER/LOCATER V4.66.93.0                                                        01/24/2026  18:53:03  PAGE 55


      00FF6CC0H   LINE      CODE     ---       #125
      00FF6CC0H   LINE      CODE     ---       #127
      00FF6CC3H   LINE      CODE     ---       #128
      00FF6CC6H   LINE      CODE     ---       #129
      00FF6CC9H   LINE      CODE     ---       #130
      00FF6CCCH   LINE      CODE     ---       #131
      00FF6CCDH   LINE      CODE     ---       #133
      00FF6CCDH   LINE      CODE     ---       #135
      00FF6CD0H   LINE      CODE     ---       #136
      00FF6CD3H   LINE      CODE     ---       #137
      00FF6CD6H   LINE      CODE     ---       #138
      00FF6CD9H   LINE      CODE     ---       #139
      00FF6CD9H   LINE      CODE     ---       #141
      00FF6CD9H   LINE      CODE     ---       #142
      ---         BLOCKEND  ---      ---       LVL=0

      00FF5D68H   BLOCK     CODE     ---       LVL=0
      WR14        REGSYM    ---      INT       encoder_n
      WR12        REGSYM    ---      INT       dir_pin
      0001063BH   SYMBOL    XDATA    INT       lsb_pin
      00FF5D68H   LINE      CODE     ---       #154
      00FF5D74H   LINE      CODE     ---       #160
      00FF5D8AH   LINE      CODE     ---       #161
      00FF5DA4H   LINE      CODE     ---       #162
      00FF5DC4H   LINE      CODE     ---       #164
      00FF5DD0H   LINE      CODE     ---       #165
      00FF5DE2H   LINE      CODE     ---       #166
      00FF5DF1H   LINE      CODE     ---       #167
      00FF5E05H   LINE      CODE     ---       #169
      00FF5E05H   LINE      CODE     ---       #171
      00FF5E08H   LINE      CODE     ---       #172
      00FF5E0BH   LINE      CODE     ---       #173
      00FF5E0EH   LINE      CODE     ---       #174
      00FF5E10H   LINE      CODE     ---       #175
      00FF5E12H   LINE      CODE     ---       #177
      00FF5E12H   LINE      CODE     ---       #179
      00FF5E15H   LINE      CODE     ---       #180
      00FF5E18H   LINE      CODE     ---       #181
      00FF5E1BH   LINE      CODE     ---       #182
      00FF5E1DH   LINE      CODE     ---       #183
      00FF5E1FH   LINE      CODE     ---       #185
      00FF5E1FH   LINE      CODE     ---       #187
      00FF5E22H   LINE      CODE     ---       #188
      00FF5E25H   LINE      CODE     ---       #189
      00FF5E28H   LINE      CODE     ---       #190
      00FF5E2AH   LINE      CODE     ---       #192
      00FF5E2AH   LINE      CODE     ---       #194
      00FF5E2DH   LINE      CODE     ---       #195
      00FF5E30H   LINE      CODE     ---       #196
      00FF5E33H   LINE      CODE     ---       #197
      00FF5E35H   LINE      CODE     ---       #199
      00FF5E35H   LINE      CODE     ---       #201
      00FF5E38H   LINE      CODE     ---       #202
      00FF5E3BH   LINE      CODE     ---       #203
      00FF5E3EH   LINE      CODE     ---       #204
      00FF5E3EH   LINE      CODE     ---       #206
      00FF5E3EH   LINE      CODE     ---       #207
      ---         BLOCKEND  ---      ---       LVL=0

      ---         MODULE    ---      ---       zf_driver_exti
      000000D0H   SFRSYM    DATA     BYTE      PSW
      0000009DH   SFRSYM    DATA     BYTE      IRCBAND
      00000097H   SFRSYM    DATA     BYTE      AUXR2
      000000EFH   SFRSYM    DATA     BYTE      AUXINTIF
      000000FDH   SFRSYM    DATA     BYTE      S4CON
L251 LINKER/LOCATER V4.66.93.0                                                        01/24/2026  18:53:03  PAGE 56


      000000ACH   SFRSYM    DATA     BYTE      S3CON
      0000009AH   SFRSYM    DATA     BYTE      S2CON
      000000B7H   SFRSYM    DATA     BYTE      IPH
      000000CDH   SFRSYM    DATA     BYTE      SPSTAT
      000000DDH   SFRSYM    DATA     BYTE      T4T3M
      000000C1H   SFRSYM    DATA     BYTE      WDT_CONTR
      000000DFH   SFRSYM    DATA     BYTE      IP3
      000000F4H   SFRSYM    DATA     BYTE      USBCON
      000000B5H   SFRSYM    DATA     BYTE      IP2
      000000FFH   SFRSYM    DATA     BYTE      RSTCFG
      000000C7H   SFRSYM    DATA     BYTE      IAP_CONTR
      000000F9H   SFRSYM    DATA     BYTE      LINICR
      0000008EH   SFRSYM    DATA     BYTE      AUXR
      000000AFH   SFRSYM    DATA     BYTE      IE2
      00000088H   SFRSYM    DATA     BYTE      TCON
      00000089H   SFRSYM    DATA     BYTE      TMOD
      00000098H   SFRSYM    DATA     BYTE      SCON
      000000F1H   SFRSYM    DATA     BYTE      CANICR
      00000087H   SFRSYM    DATA     BYTE      PCON
      000000BCH   SFRSYM    DATA     BYTE      ADC_CONTR
      000000E7H   SFRSYM    DATA     BYTE      CMPCR2
      000000E6H   SFRSYM    DATA     BYTE      CMPCR1
      000000DEH   SFRSYM    DATA     BYTE      ADCCFG
      000000B8H   SFRSYM    DATA     BYTE      IP
      0000008FH   SFRSYM    DATA     BYTE      INTCLKO
      000000EEH   SFRSYM    DATA     BYTE      IP3H
      000000B6H   SFRSYM    DATA     BYTE      IP2H
      000000A8H   SFRSYM    DATA     BYTE      IE
      000000BBH   SFRSYM    DATA     BYTE      P_SW3
      000000BAH   SFRSYM    DATA     BYTE      P_SW2
      000000A2H   SFRSYM    DATA     BYTE      P_SW1
      000000CEH   SFRSYM    DATA     BYTE      SPCTL
      000000F8H   SFRSYM    DATA     BYTE      P7
      000000E8H   SFRSYM    DATA     BYTE      P6
      000000C8H   SFRSYM    DATA     BYTE      P5
      000000C0H   SFRSYM    DATA     BYTE      P4
      000000B0H   SFRSYM    DATA     BYTE      P3
      000000A0H   SFRSYM    DATA     BYTE      P2
      00000090H   SFRSYM    DATA     BYTE      P1
      00000080H   SFRSYM    DATA     BYTE      P0

      ---         MODULE    ---      ---       zf_driver_gpio
      00FF6061H   PUBLIC    CODE     ---       gpio_init
      00FF59ADH   PUBLIC    CODE     ---       gpio_get_level
      00FF4D9EH   PUBLIC    CODE     ---       gpio_set_level
      00FF5B9EH   PUBLIC    CODE     ---       gpio_set_impedance
      00000094H   SFRSYM    DATA     BYTE      P0M0
      000000D0H   SFRSYM    DATA     BYTE      PSW
      0000009DH   SFRSYM    DATA     BYTE      IRCBAND
      00000097H   SFRSYM    DATA     BYTE      AUXR2
      000000EFH   SFRSYM    DATA     BYTE      AUXINTIF
      000000FDH   SFRSYM    DATA     BYTE      S4CON
      000000ACH   SFRSYM    DATA     BYTE      S3CON
      0000009AH   SFRSYM    DATA     BYTE      S2CON
      000000B7H   SFRSYM    DATA     BYTE      IPH
      000000CDH   SFRSYM    DATA     BYTE      SPSTAT
      000000DDH   SFRSYM    DATA     BYTE      T4T3M
      000000C1H   SFRSYM    DATA     BYTE      WDT_CONTR
      000000DFH   SFRSYM    DATA     BYTE      IP3
      000000F4H   SFRSYM    DATA     BYTE      USBCON
      000000B5H   SFRSYM    DATA     BYTE      IP2
      000000FFH   SFRSYM    DATA     BYTE      RSTCFG
      000000C7H   SFRSYM    DATA     BYTE      IAP_CONTR
      000000F9H   SFRSYM    DATA     BYTE      LINICR
      0000008EH   SFRSYM    DATA     BYTE      AUXR
L251 LINKER/LOCATER V4.66.93.0                                                        01/24/2026  18:53:03  PAGE 57


      000000AFH   SFRSYM    DATA     BYTE      IE2
      00000088H   SFRSYM    DATA     BYTE      TCON
      00000089H   SFRSYM    DATA     BYTE      TMOD
      00000098H   SFRSYM    DATA     BYTE      SCON
      000000F1H   SFRSYM    DATA     BYTE      CANICR
      00000087H   SFRSYM    DATA     BYTE      PCON
      000000BCH   SFRSYM    DATA     BYTE      ADC_CONTR
      000000E7H   SFRSYM    DATA     BYTE      CMPCR2
      000000E6H   SFRSYM    DATA     BYTE      CMPCR1
      000000DEH   SFRSYM    DATA     BYTE      ADCCFG
      000000B8H   SFRSYM    DATA     BYTE      IP
      0000008FH   SFRSYM    DATA     BYTE      INTCLKO
      000000EEH   SFRSYM    DATA     BYTE      IP3H
      000000B6H   SFRSYM    DATA     BYTE      IP2H
      000000A8H   SFRSYM    DATA     BYTE      IE
      000000BBH   SFRSYM    DATA     BYTE      P_SW3
      000000BAH   SFRSYM    DATA     BYTE      P_SW2
      000000A2H   SFRSYM    DATA     BYTE      P_SW1
      000000CEH   SFRSYM    DATA     BYTE      SPCTL
      000000F8H   SFRSYM    DATA     BYTE      P7
      000000E1H   SFRSYM    DATA     BYTE      P7M1
      000000E8H   SFRSYM    DATA     BYTE      P6
      000000C8H   SFRSYM    DATA     BYTE      P5
      000000CBH   SFRSYM    DATA     BYTE      P6M1
      000000E2H   SFRSYM    DATA     BYTE      P7M0
      000000C0H   SFRSYM    DATA     BYTE      P4
      000000C9H   SFRSYM    DATA     BYTE      P5M1
      000000CCH   SFRSYM    DATA     BYTE      P6M0
      000000B0H   SFRSYM    DATA     BYTE      P3
      000000B3H   SFRSYM    DATA     BYTE      P4M1
      000000CAH   SFRSYM    DATA     BYTE      P5M0
      000000A0H   SFRSYM    DATA     BYTE      P2
      000000B1H   SFRSYM    DATA     BYTE      P3M1
      000000B4H   SFRSYM    DATA     BYTE      P4M0
      00000090H   SFRSYM    DATA     BYTE      P1
      00000095H   SFRSYM    DATA     BYTE      P2M1
      000000B2H   SFRSYM    DATA     BYTE      P3M0
      00000080H   SFRSYM    DATA     BYTE      P0
      00000091H   SFRSYM    DATA     BYTE      P1M1
      00000096H   SFRSYM    DATA     BYTE      P2M0
      00000092H   SFRSYM    DATA     BYTE      P1M0
      00000093H   SFRSYM    DATA     BYTE      P0M1
      00FF42FBH   SYMBOL    CODE     ---       gpio_set_dir
      00FF4F2EH   SYMBOL    CODE     ---       gpio_set_mode

      00FF4F2EH   BLOCK     CODE     ---       LVL=0
      WR4         REGSYM    ---      INT       pin
      WR2         REGSYM    ---      INT       mode
      00FF4F2EH   LINE      CODE     ---       #42
      00FF4F32H   LINE      CODE     ---       #47
      00FF4F3EH   LINE      CODE     ---       #49
      00FF4F6AH   LINE      CODE     ---       #51
      00FF4F6CH   LINE      CODE     ---       #56
      00FF4F78H   LINE      CODE     ---       #58
      00FF4FA5H   LINE      CODE     ---       #59
      00FF4FA6H   LINE      CODE     ---       #60
      00FF4FAFH   LINE      CODE     ---       #63
      00FF4FF1H   LINE      CODE     ---       #65
      00FF4FF1H   LINE      CODE     ---       #66
      00FF5004H   LINE      CODE     ---       #67
      00FF5006H   LINE      CODE     ---       #68
      00FF5007H   LINE      CODE     ---       #69
      00FF5007H   LINE      CODE     ---       #70
      00FF501AH   LINE      CODE     ---       #71
      00FF501CH   LINE      CODE     ---       #72
L251 LINKER/LOCATER V4.66.93.0                                                        01/24/2026  18:53:03  PAGE 58


      00FF501DH   LINE      CODE     ---       #73
      00FF501DH   LINE      CODE     ---       #74
      00FF5030H   LINE      CODE     ---       #75
      00FF5032H   LINE      CODE     ---       #76
      00FF5033H   LINE      CODE     ---       #77
      00FF5033H   LINE      CODE     ---       #78
      00FF5046H   LINE      CODE     ---       #79
      00FF5048H   LINE      CODE     ---       #80
      00FF5049H   LINE      CODE     ---       #81
      00FF5049H   LINE      CODE     ---       #82
      00FF505CH   LINE      CODE     ---       #83
      00FF505EH   LINE      CODE     ---       #84
      00FF505FH   LINE      CODE     ---       #85
      00FF505FH   LINE      CODE     ---       #86
      00FF5072H   LINE      CODE     ---       #87
      00FF5074H   LINE      CODE     ---       #88
      00FF5075H   LINE      CODE     ---       #89
      00FF5075H   LINE      CODE     ---       #90
      00FF5088H   LINE      CODE     ---       #91
      00FF508AH   LINE      CODE     ---       #92
      00FF508BH   LINE      CODE     ---       #93
      00FF508BH   LINE      CODE     ---       #94
      00FF509EH   LINE      CODE     ---       #95
      00FF50A0H   LINE      CODE     ---       #96
      00FF50A0H   LINE      CODE     ---       #97
      00FF50A0H   LINE      CODE     ---       #98
      00FF50A0H   LINE      CODE     ---       #99
      00FF50A0H   LINE      CODE     ---       #100
      00FF50A0H   LINE      CODE     ---       #104
      00FF50A0H   LINE      CODE     ---       #105
      ---         BLOCKEND  ---      ---       LVL=0
      WR6         REGSYM    ---      INT       pin
      WR4         REGSYM    ---      INT       speed
      R10         REGSYM    ---      BYTE      pin_bit
      R11         REGSYM    ---      BYTE      port_flag

      00FF42FBH   BLOCK     CODE     ---       LVL=0
      WR4         REGSYM    ---      INT       pin
      WR2         REGSYM    ---      INT       dir
      00FF42FBH   LINE      CODE     ---       #150
      00FF42FFH   LINE      CODE     ---       #152
      00FF434BH   LINE      CODE     ---       #154
      00FF434BH   LINE      CODE     ---       #156
      00FF4355H   LINE      CODE     ---       #158
      00FF436DH   LINE      CODE     ---       #159
      00FF436FH   LINE      CODE     ---       #160
      00FF4370H   LINE      CODE     ---       #166
      00FF4379H   LINE      CODE     ---       #168
      00FF438EH   LINE      CODE     ---       #169
      00FF4392H   LINE      CODE     ---       #170
      00FF4392H   LINE      CODE     ---       #172
      00FF4393H   LINE      CODE     ---       #174
      00FF4393H   LINE      CODE     ---       #176
      00FF439DH   LINE      CODE     ---       #178
      00FF43B5H   LINE      CODE     ---       #179
      00FF43B7H   LINE      CODE     ---       #180
      00FF43B8H   LINE      CODE     ---       #186
      00FF43C1H   LINE      CODE     ---       #188
      00FF43D6H   LINE      CODE     ---       #189
      00FF43DAH   LINE      CODE     ---       #190
      00FF43DAH   LINE      CODE     ---       #192
      00FF43DBH   LINE      CODE     ---       #194
      00FF43DBH   LINE      CODE     ---       #196
      00FF43E5H   LINE      CODE     ---       #198
      00FF43FDH   LINE      CODE     ---       #199
L251 LINKER/LOCATER V4.66.93.0                                                        01/24/2026  18:53:03  PAGE 59


      00FF43FFH   LINE      CODE     ---       #200
      00FF4400H   LINE      CODE     ---       #206
      00FF4409H   LINE      CODE     ---       #208
      00FF441EH   LINE      CODE     ---       #209
      00FF4422H   LINE      CODE     ---       #210
      00FF4422H   LINE      CODE     ---       #212
      00FF4423H   LINE      CODE     ---       #214
      00FF4423H   LINE      CODE     ---       #216
      00FF442DH   LINE      CODE     ---       #218
      00FF4445H   LINE      CODE     ---       #219
      00FF4447H   LINE      CODE     ---       #220
      00FF4448H   LINE      CODE     ---       #226
      00FF4451H   LINE      CODE     ---       #228
      00FF4466H   LINE      CODE     ---       #229
      00FF446AH   LINE      CODE     ---       #230
      00FF446AH   LINE      CODE     ---       #232
      00FF446BH   LINE      CODE     ---       #234
      00FF446BH   LINE      CODE     ---       #236
      00FF4475H   LINE      CODE     ---       #238
      00FF448DH   LINE      CODE     ---       #239
      00FF448FH   LINE      CODE     ---       #240
      00FF4490H   LINE      CODE     ---       #246
      00FF4499H   LINE      CODE     ---       #248
      00FF44AEH   LINE      CODE     ---       #249
      00FF44B2H   LINE      CODE     ---       #250
      00FF44B2H   LINE      CODE     ---       #252
      00FF44B3H   LINE      CODE     ---       #254
      00FF44B3H   LINE      CODE     ---       #256
      00FF44BDH   LINE      CODE     ---       #258
      00FF44D5H   LINE      CODE     ---       #259
      00FF44D7H   LINE      CODE     ---       #260
      00FF44D8H   LINE      CODE     ---       #266
      00FF44E1H   LINE      CODE     ---       #268
      00FF44F6H   LINE      CODE     ---       #269
      00FF44FAH   LINE      CODE     ---       #270
      00FF44FAH   LINE      CODE     ---       #272
      00FF44FBH   LINE      CODE     ---       #274
      00FF44FBH   LINE      CODE     ---       #276
      00FF4505H   LINE      CODE     ---       #278
      00FF451DH   LINE      CODE     ---       #279
      00FF451FH   LINE      CODE     ---       #280
      00FF4520H   LINE      CODE     ---       #286
      00FF4526H   LINE      CODE     ---       #288
      00FF453BH   LINE      CODE     ---       #289
      00FF453FH   LINE      CODE     ---       #290
      00FF453FH   LINE      CODE     ---       #292
      00FF4540H   LINE      CODE     ---       #294
      00FF4540H   LINE      CODE     ---       #296
      00FF454AH   LINE      CODE     ---       #298
      00FF4562H   LINE      CODE     ---       #299
      00FF4564H   LINE      CODE     ---       #300
      00FF4565H   LINE      CODE     ---       #306
      00FF456BH   LINE      CODE     ---       #308
      00FF4580H   LINE      CODE     ---       #309
      00FF4584H   LINE      CODE     ---       #310
      00FF4584H   LINE      CODE     ---       #313
      00FF4585H   LINE      CODE     ---       #315
      00FF4585H   LINE      CODE     ---       #317
      00FF4595H   LINE      CODE     ---       #319
      00FF4595H   LINE      CODE     ---       #320
      00FF4595H   LINE      CODE     ---       #321
      ---         BLOCKEND  ---      ---       LVL=0

      00FF59ADH   BLOCK     CODE     ---       LVL=0
      WR6         REGSYM    ---      INT       pin
L251 LINKER/LOCATER V4.66.93.0                                                        01/24/2026  18:53:03  PAGE 60


      R5          REGSYM    ---      BYTE      pin_bit
      R4          REGSYM    ---      BYTE      port_flag
      R10         REGSYM    ---      BYTE      status
      00FF59ADH   LINE      CODE     ---       #329
      00FF59ADH   LINE      CODE     ---       #330
      00FF59ADH   LINE      CODE     ---       #331
      00FF59B4H   LINE      CODE     ---       #332
      00FF59B7H   LINE      CODE     ---       #333
      00FF59B9H   LINE      CODE     ---       #336
      00FF59EDH   LINE      CODE     ---       #338
      00FF5A04H   LINE      CODE     ---       #339
      00FF5A1BH   LINE      CODE     ---       #340
      00FF5A31H   LINE      CODE     ---       #341
      00FF5A47H   LINE      CODE     ---       #342
      00FF5A5DH   LINE      CODE     ---       #343
      00FF5A73H   LINE      CODE     ---       #344
      00FF5A89H   LINE      CODE     ---       #345
      00FF5A9DH   LINE      CODE     ---       #346
      00FF5A9DH   LINE      CODE     ---       #347
      00FF5A9DH   LINE      CODE     ---       #349
      00FF5AA5H   LINE      CODE     ---       #350
      ---         BLOCKEND  ---      ---       LVL=0

      00FF4D9EH   BLOCK     CODE     ---       LVL=0
      WR6         REGSYM    ---      INT       pin
      R5          REGSYM    ---      BYTE      dat
      00FF4DA0H   BLOCK     CODE     NEAR LAB  LVL=1
      R4          REGSYM    ---      BYTE      pin_bit
      R11         REGSYM    ---      BYTE      port_flag
      ---         BLOCKEND  ---      ---       LVL=1
      00FF4D9EH   LINE      CODE     ---       #359
      00FF4DA0H   LINE      CODE     ---       #360
      00FF4DA0H   LINE      CODE     ---       #361
      00FF4DA5H   LINE      CODE     ---       #362
      00FF4DA9H   LINE      CODE     ---       #365
      00FF4DDEH   LINE      CODE     ---       #367
      00FF4E08H   LINE      CODE     ---       #368
      00FF4E32H   LINE      CODE     ---       #369
      00FF4E5CH   LINE      CODE     ---       #370
      00FF4E86H   LINE      CODE     ---       #371
      00FF4EB0H   LINE      CODE     ---       #372
      00FF4EDAH   LINE      CODE     ---       #373
      00FF4F04H   LINE      CODE     ---       #374
      00FF4F2DH   LINE      CODE     ---       #375
      00FF4F2DH   LINE      CODE     ---       #376
      00FF4F2DH   LINE      CODE     ---       #377
      ---         BLOCKEND  ---      ---       LVL=0
      WR14        REGSYM    ---      INT       pin

      00FF5B9EH   BLOCK     CODE     ---       LVL=0
      WR6         REGSYM    ---      INT       pin
      R10         REGSYM    ---      BYTE      pin_bit
      R11         REGSYM    ---      BYTE      port_flag
      00FF5B9EH   LINE      CODE     ---       #397
      00FF5B9EH   LINE      CODE     ---       #398
      00FF5B9EH   LINE      CODE     ---       #399
      00FF5BA3H   LINE      CODE     ---       #400
      00FF5BA7H   LINE      CODE     ---       #403
      00FF5BD3H   LINE      CODE     ---       #405
      00FF5BE9H   LINE      CODE     ---       #406
      00FF5BFFH   LINE      CODE     ---       #407
      00FF5C15H   LINE      CODE     ---       #408
      00FF5C2BH   LINE      CODE     ---       #409
      00FF5C41H   LINE      CODE     ---       #410
      00FF5C57H   LINE      CODE     ---       #411
L251 LINKER/LOCATER V4.66.93.0                                                        01/24/2026  18:53:03  PAGE 61


      00FF5C6DH   LINE      CODE     ---       #412
      00FF5C82H   LINE      CODE     ---       #413
      00FF5C82H   LINE      CODE     ---       #414
      00FF5C82H   LINE      CODE     ---       #415
      ---         BLOCKEND  ---      ---       LVL=0

      00FF6061H   BLOCK     CODE     ---       LVL=0
      WR14        REGSYM    ---      INT       pin
      00010649H   SYMBOL    XDATA    INT       dir
      0001064BH   SYMBOL    XDATA    BYTE      dat
      WR12        REGSYM    ---      INT       mode
      00FF6061H   LINE      CODE     ---       #426
      00FF6071H   LINE      CODE     ---       #428
      00FF6099H   LINE      CODE     ---       #430
      00FF60A5H   LINE      CODE     ---       #432
      00FF60ABH   LINE      CODE     ---       #433
      00FF60ABH   LINE      CODE     ---       #434
      00FF60ADH   LINE      CODE     ---       #435
      00FF60B7H   LINE      CODE     ---       #437
      00FF60BBH   LINE      CODE     ---       #439
      00FF60C0H   LINE      CODE     ---       #440
      00FF60C2H   LINE      CODE     ---       #443
      00FF60C9H   LINE      CODE     ---       #444
      00FF60CDH   LINE      CODE     ---       #445
      00FF60CDH   LINE      CODE     ---       #446
      00FF60CFH   LINE      CODE     ---       #447
      00FF60DBH   LINE      CODE     ---       #449
      00FF60E1H   LINE      CODE     ---       #451
      00FF60EAH   LINE      CODE     ---       #452
      00FF60F0H   LINE      CODE     ---       #453
      00FF60F2H   LINE      CODE     ---       #454
      00FF60F8H   LINE      CODE     ---       #456
      00FF6101H   LINE      CODE     ---       #457
      00FF6101H   LINE      CODE     ---       #459
      00FF610AH   LINE      CODE     ---       #460
      ---         BLOCKEND  ---      ---       LVL=0

      ---         MODULE    ---      ---       zf_driver_pit
      00FF50A1H   PUBLIC    CODE     ---       pit_init
      000000D0H   SFRSYM    DATA     BYTE      PSW
      0000009DH   SFRSYM    DATA     BYTE      IRCBAND
      00000097H   SFRSYM    DATA     BYTE      AUXR2
      000000EFH   SFRSYM    DATA     BYTE      AUXINTIF
      000000FDH   SFRSYM    DATA     BYTE      S4CON
      000000ACH   SFRSYM    DATA     BYTE      S3CON
      0000009AH   SFRSYM    DATA     BYTE      S2CON
      000000B7H   SFRSYM    DATA     BYTE      IPH
      000000CDH   SFRSYM    DATA     BYTE      SPSTAT
      000000DDH   SFRSYM    DATA     BYTE      T4T3M
      000000C1H   SFRSYM    DATA     BYTE      WDT_CONTR
      00000088H.6 SFRSYM    DATA     BIT       TR1
      00000088H.4 SFRSYM    DATA     BIT       TR0
      000000D3H   SFRSYM    DATA     BYTE      T4L
      000000D5H   SFRSYM    DATA     BYTE      T3L
      000000D7H   SFRSYM    DATA     BYTE      T2L
      0000008BH   SFRSYM    DATA     BYTE      TL1
      0000008AH   SFRSYM    DATA     BYTE      TL0
      000000D2H   SFRSYM    DATA     BYTE      T4H
      000000D4H   SFRSYM    DATA     BYTE      T3H
      000000D6H   SFRSYM    DATA     BYTE      T2H
      0000008DH   SFRSYM    DATA     BYTE      TH1
      0000008CH   SFRSYM    DATA     BYTE      TH0
      000000DFH   SFRSYM    DATA     BYTE      IP3
      000000F4H   SFRSYM    DATA     BYTE      USBCON
      000000B5H   SFRSYM    DATA     BYTE      IP2
L251 LINKER/LOCATER V4.66.93.0                                                        01/24/2026  18:53:03  PAGE 62


      000000FFH   SFRSYM    DATA     BYTE      RSTCFG
      000000A8H.3 SFRSYM    DATA     BIT       ET1
      000000A8H.1 SFRSYM    DATA     BIT       ET0
      000000C7H   SFRSYM    DATA     BYTE      IAP_CONTR
      000000F9H   SFRSYM    DATA     BYTE      LINICR
      0000008EH   SFRSYM    DATA     BYTE      AUXR
      000000AFH   SFRSYM    DATA     BYTE      IE2
      00000088H   SFRSYM    DATA     BYTE      TCON
      00000089H   SFRSYM    DATA     BYTE      TMOD
      00000098H   SFRSYM    DATA     BYTE      SCON
      000000F1H   SFRSYM    DATA     BYTE      CANICR
      00000087H   SFRSYM    DATA     BYTE      PCON
      000000BCH   SFRSYM    DATA     BYTE      ADC_CONTR
      000000E7H   SFRSYM    DATA     BYTE      CMPCR2
      000000E6H   SFRSYM    DATA     BYTE      CMPCR1
      000000DEH   SFRSYM    DATA     BYTE      ADCCFG
      000000B8H   SFRSYM    DATA     BYTE      IP
      0000008FH   SFRSYM    DATA     BYTE      INTCLKO
      000000EEH   SFRSYM    DATA     BYTE      IP3H
      000000B6H   SFRSYM    DATA     BYTE      IP2H
      000000A8H   SFRSYM    DATA     BYTE      IE
      000000BBH   SFRSYM    DATA     BYTE      P_SW3
      000000BAH   SFRSYM    DATA     BYTE      P_SW2
      000000A2H   SFRSYM    DATA     BYTE      P_SW1
      000000CEH   SFRSYM    DATA     BYTE      SPCTL
      000000F8H   SFRSYM    DATA     BYTE      P7
      000000E8H   SFRSYM    DATA     BYTE      P6
      000000C8H   SFRSYM    DATA     BYTE      P5
      000000C0H   SFRSYM    DATA     BYTE      P4
      000000B0H   SFRSYM    DATA     BYTE      P3
      000000A0H   SFRSYM    DATA     BYTE      P2
      00000090H   SFRSYM    DATA     BYTE      P1
      00000080H   SFRSYM    DATA     BYTE      P0

      00FF50A1H   BLOCK     CODE     ---       LVL=0
      WR30        REGSYM    ---      INT       pit_n
      DR24        REGSYM    ---      DWORD     period
      00FF50A7H   BLOCK     CODE     NEAR LAB  LVL=1
      R15         REGSYM    ---      BYTE      freq_div
      WR28        REGSYM    ---      WORD      period_temp
      WR28        REGSYM    ---      WORD      temp
      ---         BLOCKEND  ---      ---       LVL=1
      00FF50A1H   LINE      CODE     ---       #50
      00FF50A7H   LINE      CODE     ---       #51
      00FF50A7H   LINE      CODE     ---       #52
      00FF50A7H   LINE      CODE     ---       #53
      00FF50A7H   LINE      CODE     ---       #54
      00FF50A7H   LINE      CODE     ---       #57
      00FF50B3H   LINE      CODE     ---       #60
      00FF50BEH   LINE      CODE     ---       #62
      00FF50C2H   LINE      CODE     ---       #64
      00FF50C5H   LINE      CODE     ---       #65
      00FF50C7H   LINE      CODE     ---       #66
      00FF50CDH   LINE      CODE     ---       #68
      00FF50D0H   LINE      CODE     ---       #69
      00FF50D2H   LINE      CODE     ---       #70
      00FF50D8H   LINE      CODE     ---       #72
      00FF50DBH   LINE      CODE     ---       #73
      00FF50DDH   LINE      CODE     ---       #74
      00FF50E3H   LINE      CODE     ---       #76
      00FF50E6H   LINE      CODE     ---       #77
      00FF50E8H   LINE      CODE     ---       #78
      00FF50EEH   LINE      CODE     ---       #80
      00FF50F1H   LINE      CODE     ---       #81
      00FF50F3H   LINE      CODE     ---       #88
L251 LINKER/LOCATER V4.66.93.0                                                        01/24/2026  18:53:03  PAGE 63


      00FF50F7H   LINE      CODE     ---       #90
      00FF50FAH   LINE      CODE     ---       #91
      00FF50FCH   LINE      CODE     ---       #92
      00FF5102H   LINE      CODE     ---       #94
      00FF5105H   LINE      CODE     ---       #95
      00FF5107H   LINE      CODE     ---       #96
      00FF510DH   LINE      CODE     ---       #98
      00FF5110H   LINE      CODE     ---       #99
      00FF5112H   LINE      CODE     ---       #100
      00FF5118H   LINE      CODE     ---       #102
      00FF511BH   LINE      CODE     ---       #103
      00FF511DH   LINE      CODE     ---       #104
      00FF5123H   LINE      CODE     ---       #106
      00FF5126H   LINE      CODE     ---       #107
      00FF5126H   LINE      CODE     ---       #112
      00FF5136H   LINE      CODE     ---       #113
      00FF5143H   LINE      CODE     ---       #115
      00FF5149H   LINE      CODE     ---       #117
      00FF514DH   LINE      CODE     ---       #119
      00FF5158H   LINE      CODE     ---       #120
      00FF515CH   LINE      CODE     ---       #121
      00FF5162H   LINE      CODE     ---       #122
      00FF5166H   LINE      CODE     ---       #123
      00FF5168H   LINE      CODE     ---       #124
      00FF516AH   LINE      CODE     ---       #125
      00FF516DH   LINE      CODE     ---       #126
      00FF5173H   LINE      CODE     ---       #128
      00FF517EH   LINE      CODE     ---       #129
      00FF5182H   LINE      CODE     ---       #130
      00FF5188H   LINE      CODE     ---       #131
      00FF518CH   LINE      CODE     ---       #132
      00FF518EH   LINE      CODE     ---       #133
      00FF5190H   LINE      CODE     ---       #134
      00FF5192H   LINE      CODE     ---       #135
      00FF5198H   LINE      CODE     ---       #137
      00FF51A3H   LINE      CODE     ---       #138
      00FF51A9H   LINE      CODE     ---       #139
      00FF51ADH   LINE      CODE     ---       #140
      00FF51B0H   LINE      CODE     ---       #141
      00FF51B3H   LINE      CODE     ---       #142
      00FF51B5H   LINE      CODE     ---       #143
      00FF51BBH   LINE      CODE     ---       #145
      00FF51C6H   LINE      CODE     ---       #146
      00FF51CCH   LINE      CODE     ---       #147
      00FF51D0H   LINE      CODE     ---       #148
      00FF51D3H   LINE      CODE     ---       #149
      00FF51D6H   LINE      CODE     ---       #150
      00FF51D8H   LINE      CODE     ---       #151
      00FF51DEH   LINE      CODE     ---       #153
      00FF51E9H   LINE      CODE     ---       #154
      00FF51EFH   LINE      CODE     ---       #155
      00FF51F3H   LINE      CODE     ---       #156
      00FF51F6H   LINE      CODE     ---       #157
      00FF51F9H   LINE      CODE     ---       #158
      ---         BLOCKEND  ---      ---       LVL=0

      ---         MODULE    ---      ---       zf_driver_pwm
      00FF810EH   PUBLIC    HCONST   ---       PWM_PSCR_ADDR
      00FF8116H   PUBLIC    HCONST   ---       PWM_CCR_ADDR
      00FF8136H   PUBLIC    HCONST   ---       PWM_ARR_ADDR
      00FF813EH   PUBLIC    HCONST   ---       PWM_CCER_ADDR
      00FF814EH   PUBLIC    HCONST   ---       PWM_CCMR_ADDR
      00FF5581H   PUBLIC    CODE     ---       pwm_set_duty
      00FF3C09H   PUBLIC    CODE     ---       pwm_init
      00010639H   PUBLIC    XDATA    BYTE      ?pwm_init?BYTE
L251 LINKER/LOCATER V4.66.93.0                                                        01/24/2026  18:53:03  PAGE 64


      000000D0H   SFRSYM    DATA     BYTE      PSW
      0000009DH   SFRSYM    DATA     BYTE      IRCBAND
      00000097H   SFRSYM    DATA     BYTE      AUXR2
      000000EFH   SFRSYM    DATA     BYTE      AUXINTIF
      000000FDH   SFRSYM    DATA     BYTE      S4CON
      000000ACH   SFRSYM    DATA     BYTE      S3CON
      0000009AH   SFRSYM    DATA     BYTE      S2CON
      000000B7H   SFRSYM    DATA     BYTE      IPH
      000000CDH   SFRSYM    DATA     BYTE      SPSTAT
      000000DDH   SFRSYM    DATA     BYTE      T4T3M
      000000C1H   SFRSYM    DATA     BYTE      WDT_CONTR
      000000DFH   SFRSYM    DATA     BYTE      IP3
      000000F4H   SFRSYM    DATA     BYTE      USBCON
      000000B5H   SFRSYM    DATA     BYTE      IP2
      000000FFH   SFRSYM    DATA     BYTE      RSTCFG
      000000C7H   SFRSYM    DATA     BYTE      IAP_CONTR
      000000F9H   SFRSYM    DATA     BYTE      LINICR
      0000008EH   SFRSYM    DATA     BYTE      AUXR
      000000AFH   SFRSYM    DATA     BYTE      IE2
      00000088H   SFRSYM    DATA     BYTE      TCON
      00000089H   SFRSYM    DATA     BYTE      TMOD
      00000098H   SFRSYM    DATA     BYTE      SCON
      000000F1H   SFRSYM    DATA     BYTE      CANICR
      00000087H   SFRSYM    DATA     BYTE      PCON
      000000BCH   SFRSYM    DATA     BYTE      ADC_CONTR
      000000E7H   SFRSYM    DATA     BYTE      CMPCR2
      000000E6H   SFRSYM    DATA     BYTE      CMPCR1
      000000DEH   SFRSYM    DATA     BYTE      ADCCFG
      000000B8H   SFRSYM    DATA     BYTE      IP
      0000008FH   SFRSYM    DATA     BYTE      INTCLKO
      000000EEH   SFRSYM    DATA     BYTE      IP3H
      000000B6H   SFRSYM    DATA     BYTE      IP2H
      000000A8H   SFRSYM    DATA     BYTE      IE
      000000BBH   SFRSYM    DATA     BYTE      P_SW3
      000000BAH   SFRSYM    DATA     BYTE      P_SW2
      000000A2H   SFRSYM    DATA     BYTE      P_SW1
      000000CEH   SFRSYM    DATA     BYTE      SPCTL
      000000F8H   SFRSYM    DATA     BYTE      P7
      000000E8H   SFRSYM    DATA     BYTE      P6
      000000C8H   SFRSYM    DATA     BYTE      P5
      000000C0H   SFRSYM    DATA     BYTE      P4
      000000B0H   SFRSYM    DATA     BYTE      P3
      000000A0H   SFRSYM    DATA     BYTE      P2
      00000090H   SFRSYM    DATA     BYTE      P1
      00000080H   SFRSYM    DATA     BYTE      P0
      WR14        REGSYM    ---      INT       pin
      WR12        REGSYM    ---      WORD      freq_div

      00FF5581H   BLOCK     CODE     ---       LVL=0
      WR14        REGSYM    ---      INT       pin
      00010641H   SYMBOL    XDATA    DWORD     duty
      00FF5591H   BLOCK     CODE     NEAR LAB  LVL=1
      00010645H   SYMBOL    XDATA    DWORD     match_temp
      00010649H   SYMBOL    XDATA    DWORD     arr
      ---         BLOCKEND  ---      ---       LVL=1
      00FF5581H   LINE      CODE     ---       #133
      00FF5591H   LINE      CODE     ---       #134
      00FF5591H   LINE      CODE     ---       #136
      00FF55D3H   LINE      CODE     ---       #139
      00FF55F7H   LINE      CODE     ---       #141
      00FF5607H   LINE      CODE     ---       #143
      00FF562CH   LINE      CODE     ---       #144
      00FF562EH   LINE      CODE     ---       #147
      00FF5644H   LINE      CODE     ---       #148
      00FF5644H   LINE      CODE     ---       #151
L251 LINKER/LOCATER V4.66.93.0                                                        01/24/2026  18:53:03  PAGE 65


      00FF5689H   LINE      CODE     ---       #152
      00FF5695H   LINE      CODE     ---       #154
      ---         BLOCKEND  ---      ---       LVL=0

      00FF3C09H   BLOCK     CODE     ---       LVL=0
      WR14        REGSYM    ---      INT       pin
      0001063BH   SYMBOL    XDATA    DWORD     freq
      0001063FH   SYMBOL    XDATA    DWORD     duty
      00FF3C17H   BLOCK     CODE     NEAR LAB  LVL=1
      00010643H   SYMBOL    XDATA    WORD      match_temp
      00010645H   SYMBOL    XDATA    DWORD     period_temp
      WR12        REGSYM    ---      WORD      freq_div
      ---         BLOCKEND  ---      ---       LVL=1
      00FF3C09H   LINE      CODE     ---       #165
      00FF3C17H   LINE      CODE     ---       #166
      00FF3C17H   LINE      CODE     ---       #168
      00FF3C1FH   LINE      CODE     ---       #169
      00FF3C2BH   LINE      CODE     ---       #170
      00FF3C2BH   LINE      CODE     ---       #173
      00FF3C4FH   LINE      CODE     ---       #175
      00FF3C60H   LINE      CODE     ---       #179
      00FF3C7DH   LINE      CODE     ---       #180
      00FF3C87H   LINE      CODE     ---       #181
      00FF3C98H   LINE      CODE     ---       #183
      00FF3CA8H   LINE      CODE     ---       #185
      00FF3CCDH   LINE      CODE     ---       #186
      00FF3CCFH   LINE      CODE     ---       #189
      00FF3CDEH   LINE      CODE     ---       #190
      00FF3CDEH   LINE      CODE     ---       #192
      00FF3D02H   LINE      CODE     ---       #193
      00FF3D0EH   LINE      CODE     ---       #195
      00FF3D39H   LINE      CODE     ---       #196
      00FF3D45H   LINE      CODE     ---       #198
      00FF3D89H   LINE      CODE     ---       #199
      00FF3D95H   LINE      CODE     ---       #201
      00FF3DA2H   LINE      CODE     ---       #203
      00FF3DE1H   LINE      CODE     ---       #204
      00FF3E12H   LINE      CODE     ---       #205
      00FF3E78H   LINE      CODE     ---       #207
      00FF3E85H   LINE      CODE     ---       #208
      00FF3E8BH   LINE      CODE     ---       #209
      00FF3E8EH   LINE      CODE     ---       #210
      00FF3E9FH   LINE      CODE     ---       #212
      00FF3EDCH   LINE      CODE     ---       #213
      00FF3F0DH   LINE      CODE     ---       #214
      00FF3F6BH   LINE      CODE     ---       #216
      00FF3F78H   LINE      CODE     ---       #217
      00FF3F85H   LINE      CODE     ---       #218
      00FF3F85H   LINE      CODE     ---       #220
      00FF3FC8H   LINE      CODE     ---       #221
      00FF3FD7H   LINE      CODE     ---       #222
      ---         BLOCKEND  ---      ---       LVL=0

      ---         MODULE    ---      ---       zf_driver_soft_iic
      00FF64A7H   PUBLIC    CODE     ---       soft_iic_wait_ack
      00FF6A07H   PUBLIC    CODE     ---       soft_iic_stop
      00FF71C7H   PUBLIC    CODE     ---       soft_iic_delay
      00FF5FADH   PUBLIC    CODE     ---       soft_iic_read_data
      00FF639DH   PUBLIC    CODE     ---       soft_iic_send_data
      00FF6BDDH   PUBLIC    CODE     ---       soft_iic_start
      00FF67EEH   PUBLIC    CODE     ---       soft_iic_send_ack
      000000D0H   SFRSYM    DATA     BYTE      PSW
      0000009DH   SFRSYM    DATA     BYTE      IRCBAND
      00000097H   SFRSYM    DATA     BYTE      AUXR2
      000000EFH   SFRSYM    DATA     BYTE      AUXINTIF
L251 LINKER/LOCATER V4.66.93.0                                                        01/24/2026  18:53:03  PAGE 66


      000000FDH   SFRSYM    DATA     BYTE      S4CON
      000000ACH   SFRSYM    DATA     BYTE      S3CON
      0000009AH   SFRSYM    DATA     BYTE      S2CON
      000000B7H   SFRSYM    DATA     BYTE      IPH
      000000CDH   SFRSYM    DATA     BYTE      SPSTAT
      000000DDH   SFRSYM    DATA     BYTE      T4T3M
      000000C1H   SFRSYM    DATA     BYTE      WDT_CONTR
      000000DFH   SFRSYM    DATA     BYTE      IP3
      000000F4H   SFRSYM    DATA     BYTE      USBCON
      000000B5H   SFRSYM    DATA     BYTE      IP2
      000000FFH   SFRSYM    DATA     BYTE      RSTCFG
      000000C7H   SFRSYM    DATA     BYTE      IAP_CONTR
      000000F9H   SFRSYM    DATA     BYTE      LINICR
      0000008EH   SFRSYM    DATA     BYTE      AUXR
      000000AFH   SFRSYM    DATA     BYTE      IE2
      00000088H   SFRSYM    DATA     BYTE      TCON
      00000089H   SFRSYM    DATA     BYTE      TMOD
      00000098H   SFRSYM    DATA     BYTE      SCON
      000000F1H   SFRSYM    DATA     BYTE      CANICR
      00000087H   SFRSYM    DATA     BYTE      PCON
      000000BCH   SFRSYM    DATA     BYTE      ADC_CONTR
      000000E7H   SFRSYM    DATA     BYTE      CMPCR2
      000000E6H   SFRSYM    DATA     BYTE      CMPCR1
      000000DEH   SFRSYM    DATA     BYTE      ADCCFG
      000000B8H   SFRSYM    DATA     BYTE      IP
      0000008FH   SFRSYM    DATA     BYTE      INTCLKO
      000000EEH   SFRSYM    DATA     BYTE      IP3H
      000000B6H   SFRSYM    DATA     BYTE      IP2H
      000000A8H   SFRSYM    DATA     BYTE      IE
      000000BBH   SFRSYM    DATA     BYTE      P_SW3
      000000BAH   SFRSYM    DATA     BYTE      P_SW2
      000000A2H   SFRSYM    DATA     BYTE      P_SW1
      000000CEH   SFRSYM    DATA     BYTE      SPCTL
      000000F8H   SFRSYM    DATA     BYTE      P7
      000000E8H   SFRSYM    DATA     BYTE      P6
      000000C8H   SFRSYM    DATA     BYTE      P5
      000000C0H   SFRSYM    DATA     BYTE      P4
      000000B0H   SFRSYM    DATA     BYTE      P3
      000000A0H   SFRSYM    DATA     BYTE      P2
      00000090H   SFRSYM    DATA     BYTE      P1
      00000080H   SFRSYM    DATA     BYTE      P0

      00FF71C7H   BLOCK     CODE     ---       LVL=0
      0001099FH   SYMBOL    XDATA    DWORD     delay
      00FF71D1H   BLOCK     CODE     NEAR LAB  LVL=1
      000109A3H   SYMBOL    XDATA    DWORD     count
      ---         BLOCKEND  ---      ---       LVL=1
      00FF71C7H   LINE      CODE     ---       #53
      00FF71D1H   LINE      CODE     ---       #54
      00FF71D1H   LINE      CODE     ---       #55
      00FF71E5H   LINE      CODE     ---       #56
      00FF71FEH   LINE      CODE     ---       #57
      ---         BLOCKEND  ---      ---       LVL=0

      00FF6BDDH   BLOCK     CODE     ---       LVL=0
      REG=3       REGSYM    ---      ---       soft_iic_obj
      00FF6BDDH   LINE      CODE     ---       #67
      00FF6BE1H   LINE      CODE     ---       #69
      00FF6BFBH   LINE      CODE     ---       #70
      00FF6C03H   LINE      CODE     ---       #71
      00FF6C0CH   LINE      CODE     ---       #73
      00FF6C17H   LINE      CODE     ---       #74
      00FF6C1FH   LINE      CODE     ---       #75
      00FF6C2AH   LINE      CODE     ---       #76
      00FF6C31H   LINE      CODE     ---       #77
L251 LINKER/LOCATER V4.66.93.0                                                        01/24/2026  18:53:03  PAGE 67


      ---         BLOCKEND  ---      ---       LVL=0

      00FF6A07H   BLOCK     CODE     ---       LVL=0
      REG=3       REGSYM    ---      ---       soft_iic_obj
      00FF6A07H   LINE      CODE     ---       #86
      00FF6A0BH   LINE      CODE     ---       #88
      00FF6A25H   LINE      CODE     ---       #89
      00FF6A2DH   LINE      CODE     ---       #90
      00FF6A34H   LINE      CODE     ---       #92
      00FF6A3FH   LINE      CODE     ---       #93
      00FF6A47H   LINE      CODE     ---       #94
      00FF6A52H   LINE      CODE     ---       #95
      00FF6A5BH   LINE      CODE     ---       #96
      00FF6A66H   LINE      CODE     ---       #97
      ---         BLOCKEND  ---      ---       LVL=0

      00FF67EEH   BLOCK     CODE     ---       LVL=0
      REG=3       REGSYM    ---      ---       soft_iic_obj
      000109DDH   SYMBOL    XDATA    BYTE      ack
      00FF67EEH   LINE      CODE     ---       #107
      00FF67F6H   LINE      CODE     ---       #109
      00FF6810H   LINE      CODE     ---       #110
      00FF6817H   LINE      CODE     ---       #112
      00FF681DH   LINE      CODE     ---       #114
      00FF6823H   LINE      CODE     ---       #115
      00FF6825H   LINE      CODE     ---       #118
      00FF682DH   LINE      CODE     ---       #119
      00FF682DH   LINE      CODE     ---       #121
      00FF6838H   LINE      CODE     ---       #122
      00FF6840H   LINE      CODE     ---       #123
      00FF684BH   LINE      CODE     ---       #124
      00FF6852H   LINE      CODE     ---       #125
      00FF685BH   LINE      CODE     ---       #126
      ---         BLOCKEND  ---      ---       LVL=0

      00FF64A7H   BLOCK     CODE     ---       LVL=0
      REG=3       REGSYM    ---      ---       soft_iic_obj
      00FF64ABH   BLOCK     CODE     NEAR LAB  LVL=1
      000109DEH   SYMBOL    XDATA    BYTE      temp
      ---         BLOCKEND  ---      ---       LVL=1
      00FF64A7H   LINE      CODE     ---       #135
      00FF64ABH   LINE      CODE     ---       #136
      00FF64ABH   LINE      CODE     ---       #137
      00FF64B0H   LINE      CODE     ---       #138
      00FF64CAH   LINE      CODE     ---       #140
      00FF64D1H   LINE      CODE     ---       #141
      00FF64DAH   LINE      CODE     ---       #145
      00FF64E5H   LINE      CODE     ---       #147
      00FF64EDH   LINE      CODE     ---       #148
      00FF64F8H   LINE      CODE     ---       #150
      00FF6501H   LINE      CODE     ---       #152
      00FF6507H   LINE      CODE     ---       #153
      00FF6507H   LINE      CODE     ---       #154
      00FF650EH   LINE      CODE     ---       #158
      00FF6519H   LINE      CODE     ---       #160
      00FF651DH   LINE      CODE     ---       #161
      ---         BLOCKEND  ---      ---       LVL=0

      00FF639DH   BLOCK     CODE     ---       LVL=0
      REG=3       REGSYM    ---      ---       soft_iic_obj
      000109D8H   SYMBOL    XDATA    BYTE      dat
      00FF63A5H   BLOCK     CODE     NEAR LAB  LVL=1
      000109D9H   SYMBOL    XDATA    BYTE      temp
      ---         BLOCKEND  ---      ---       LVL=1
      00FF639DH   LINE      CODE     ---       #170
L251 LINKER/LOCATER V4.66.93.0                                                        01/24/2026  18:53:03  PAGE 68


      00FF63A5H   LINE      CODE     ---       #171
      00FF63A5H   LINE      CODE     ---       #172
      00FF63ABH   LINE      CODE     ---       #174
      00FF63C5H   LINE      CODE     ---       #176
      00FF63C5H   LINE      CODE     ---       #179
      00FF63E7H   LINE      CODE     ---       #180
      00FF63EEH   LINE      CODE     ---       #182
      00FF63F9H   LINE      CODE     ---       #183
      00FF6401H   LINE      CODE     ---       #184
      00FF640CH   LINE      CODE     ---       #185
      00FF6413H   LINE      CODE     ---       #186
      00FF6419H   LINE      CODE     ---       #187
      00FF6426H   LINE      CODE     ---       #188
      ---         BLOCKEND  ---      ---       LVL=0

      00FF5FADH   BLOCK     CODE     ---       LVL=0
      REG=3       REGSYM    ---      ---       soft_iic_obj
      000109D5H   SYMBOL    XDATA    BYTE      ack
      00FF5FB5H   BLOCK     CODE     NEAR LAB  LVL=1
      000109D6H   SYMBOL    XDATA    BYTE      dat
      000109D7H   SYMBOL    XDATA    BYTE      temp
      ---         BLOCKEND  ---      ---       LVL=1
      00FF5FADH   LINE      CODE     ---       #197
      00FF5FB5H   LINE      CODE     ---       #198
      00FF5FB5H   LINE      CODE     ---       #199
      00FF5FBAH   LINE      CODE     ---       #200
      00FF5FC0H   LINE      CODE     ---       #201
      00FF5FDAH   LINE      CODE     ---       #202
      00FF5FE1H   LINE      CODE     ---       #203
      00FF5FECH   LINE      CODE     ---       #204
      00FF5FF5H   LINE      CODE     ---       #209
      00FF5FF7H   LINE      CODE     ---       #211
      00FF5FFEH   LINE      CODE     ---       #212
      00FF6009H   LINE      CODE     ---       #213
      00FF6011H   LINE      CODE     ---       #214
      00FF601CH   LINE      CODE     ---       #215
      00FF6031H   LINE      CODE     ---       #216
      00FF603FH   LINE      CODE     ---       #217
      00FF6046H   LINE      CODE     ---       #221
      00FF6051H   LINE      CODE     ---       #222
      00FF605AH   LINE      CODE     ---       #223
      00FF605EH   LINE      CODE     ---       #224
      ---         BLOCKEND  ---      ---       LVL=0
      REG=3       REGSYM    ---      ---       soft_iic_obj
      REG=3       REGSYM    ---      ---       soft_iic_obj
      REG=3       REGSYM    ---      ---       soft_iic_obj
      REG=3       REGSYM    ---      ---       soft_iic_obj
      REG=3       REGSYM    ---      ---       soft_iic_obj
      REG=3       REGSYM    ---      ---       soft_iic_obj
      REG=3       REGSYM    ---      ---       soft_iic_obj
      REG=3       REGSYM    ---      ---       soft_iic_obj
      REG=3       REGSYM    ---      ---       soft_iic_obj
      REG=3       REGSYM    ---      ---       soft_iic_obj
      REG=3       REGSYM    ---      ---       soft_iic_obj
      REG=3       REGSYM    ---      ---       soft_iic_obj
      REG=3       REGSYM    ---      ---       soft_iic_obj
      REG=3       REGSYM    ---      ---       soft_iic_obj
      REG=3       REGSYM    ---      ---       soft_iic_obj
      REG=3       REGSYM    ---      ---       soft_iic_obj
      REG=3       REGSYM    ---      ---       soft_iic_obj
      REG=3       REGSYM    ---      ---       soft_iic_obj
      REG=3       REGSYM    ---      ---       soft_iic_obj
      REG=3       REGSYM    ---      ---       soft_iic_obj
      REG=3       REGSYM    ---      ---       soft_iic_obj

L251 LINKER/LOCATER V4.66.93.0                                                        01/24/2026  18:53:03  PAGE 69


      ---         MODULE    ---      ---       zf_driver_soft_spi
      000000D0H   SFRSYM    DATA     BYTE      PSW
      0000009DH   SFRSYM    DATA     BYTE      IRCBAND
      00000097H   SFRSYM    DATA     BYTE      AUXR2
      000000EFH   SFRSYM    DATA     BYTE      AUXINTIF
      000000FDH   SFRSYM    DATA     BYTE      S4CON
      000000ACH   SFRSYM    DATA     BYTE      S3CON
      0000009AH   SFRSYM    DATA     BYTE      S2CON
      000000B7H   SFRSYM    DATA     BYTE      IPH
      000000CDH   SFRSYM    DATA     BYTE      SPSTAT
      000000DDH   SFRSYM    DATA     BYTE      T4T3M
      000000C1H   SFRSYM    DATA     BYTE      WDT_CONTR
      000000DFH   SFRSYM    DATA     BYTE      IP3
      000000F4H   SFRSYM    DATA     BYTE      USBCON
      000000B5H   SFRSYM    DATA     BYTE      IP2
      000000FFH   SFRSYM    DATA     BYTE      RSTCFG
      000000C7H   SFRSYM    DATA     BYTE      IAP_CONTR
      000000F9H   SFRSYM    DATA     BYTE      LINICR
      0000008EH   SFRSYM    DATA     BYTE      AUXR
      000000AFH   SFRSYM    DATA     BYTE      IE2
      00000088H   SFRSYM    DATA     BYTE      TCON
      00000089H   SFRSYM    DATA     BYTE      TMOD
      00000098H   SFRSYM    DATA     BYTE      SCON
      000000F1H   SFRSYM    DATA     BYTE      CANICR
      00000087H   SFRSYM    DATA     BYTE      PCON
      000000BCH   SFRSYM    DATA     BYTE      ADC_CONTR
      000000E7H   SFRSYM    DATA     BYTE      CMPCR2
      000000E6H   SFRSYM    DATA     BYTE      CMPCR1
      000000DEH   SFRSYM    DATA     BYTE      ADCCFG
      000000B8H   SFRSYM    DATA     BYTE      IP
      0000008FH   SFRSYM    DATA     BYTE      INTCLKO
      000000EEH   SFRSYM    DATA     BYTE      IP3H
      000000B6H   SFRSYM    DATA     BYTE      IP2H
      000000A8H   SFRSYM    DATA     BYTE      IE
      000000BBH   SFRSYM    DATA     BYTE      P_SW3
      000000BAH   SFRSYM    DATA     BYTE      P_SW2
      000000A2H   SFRSYM    DATA     BYTE      P_SW1
      000000CEH   SFRSYM    DATA     BYTE      SPCTL
      000000F8H   SFRSYM    DATA     BYTE      P7
      000000E8H   SFRSYM    DATA     BYTE      P6
      000000C8H   SFRSYM    DATA     BYTE      P5
      000000C0H   SFRSYM    DATA     BYTE      P4
      000000B0H   SFRSYM    DATA     BYTE      P3
      000000A0H   SFRSYM    DATA     BYTE      P2
      00000090H   SFRSYM    DATA     BYTE      P1
      00000080H   SFRSYM    DATA     BYTE      P0
      DR4         REGSYM    ---      DWORD     x
      REG=3       REGSYM    ---      ---       soft_spi_obj
      R10         REGSYM    ---      BYTE      dat
      REG=3       REGSYM    ---      ---       soft_spi_obj
      WR6         REGSYM    ---      WORD      dat
      REG=3       REGSYM    ---      ---       soft_spi_obj
      REG=3       REGSYM    ---      ---       soft_spi_obj
      REG=3       REGSYM    ---      ---       soft_spi_obj
      REG=3       REGSYM    ---      ---       soft_spi_obj
      REG=3       REGSYM    ---      ---       soft_spi_obj
      REG=3       REGSYM    ---      ---       soft_spi_obj
      REG=3       REGSYM    ---      ---       soft_spi_obj
      REG=3       REGSYM    ---      ---       soft_spi_obj
      REG=3       REGSYM    ---      ---       soft_spi_obj
      REG=3       REGSYM    ---      ---       soft_spi_obj
      REG=3       REGSYM    ---      ---       soft_spi_obj
      REG=3       REGSYM    ---      ---       soft_spi_obj
      REG=3       REGSYM    ---      ---       soft_spi_obj
      REG=3       REGSYM    ---      ---       soft_spi_obj
L251 LINKER/LOCATER V4.66.93.0                                                        01/24/2026  18:53:03  PAGE 70


      REG=3       REGSYM    ---      ---       soft_spi_obj
      REG=3       REGSYM    ---      ---       soft_spi_obj
      REG=3       REGSYM    ---      ---       soft_spi_obj
      REG=3       REGSYM    ---      ---       soft_spi_obj
      REG=3       REGSYM    ---      ---       soft_spi_obj

      ---         MODULE    ---      ---       zf_driver_spi
      000000CFH   SFRSYM    DATA     BYTE      SPDAT
      000000D0H   SFRSYM    DATA     BYTE      PSW
      0000009DH   SFRSYM    DATA     BYTE      IRCBAND
      00000097H   SFRSYM    DATA     BYTE      AUXR2
      000000EFH   SFRSYM    DATA     BYTE      AUXINTIF
      000000FDH   SFRSYM    DATA     BYTE      S4CON
      000000ACH   SFRSYM    DATA     BYTE      S3CON
      0000009AH   SFRSYM    DATA     BYTE      S2CON
      0000009BH   SFRSYM    DATA     BYTE      S2BUF
      000000B7H   SFRSYM    DATA     BYTE      IPH
      000000CDH   SFRSYM    DATA     BYTE      SPSTAT
      000000DDH   SFRSYM    DATA     BYTE      T4T3M
      000000C1H   SFRSYM    DATA     BYTE      WDT_CONTR
      000000DFH   SFRSYM    DATA     BYTE      IP3
      000000F4H   SFRSYM    DATA     BYTE      USBCON
      000000B5H   SFRSYM    DATA     BYTE      IP2
      000000FFH   SFRSYM    DATA     BYTE      RSTCFG
      000000C7H   SFRSYM    DATA     BYTE      IAP_CONTR
      000000F9H   SFRSYM    DATA     BYTE      LINICR
      0000008EH   SFRSYM    DATA     BYTE      AUXR
      000000AFH   SFRSYM    DATA     BYTE      IE2
      00000088H   SFRSYM    DATA     BYTE      TCON
      00000089H   SFRSYM    DATA     BYTE      TMOD
      00000098H   SFRSYM    DATA     BYTE      SCON
      000000F1H   SFRSYM    DATA     BYTE      CANICR
      00000087H   SFRSYM    DATA     BYTE      PCON
      00000099H   SFRSYM    DATA     BYTE      SBUF
      000000BCH   SFRSYM    DATA     BYTE      ADC_CONTR
      000000E7H   SFRSYM    DATA     BYTE      CMPCR2
      000000E6H   SFRSYM    DATA     BYTE      CMPCR1
      0000009AH.1 SFRSYM    DATA     BIT       S2TI
      00000098H.1 SFRSYM    DATA     BIT       TI
      000000DEH   SFRSYM    DATA     BYTE      ADCCFG
      000000B8H   SFRSYM    DATA     BYTE      IP
      0000008FH   SFRSYM    DATA     BYTE      INTCLKO
      000000EEH   SFRSYM    DATA     BYTE      IP3H
      000000B6H   SFRSYM    DATA     BYTE      IP2H
      000000A8H   SFRSYM    DATA     BYTE      IE
      000000BBH   SFRSYM    DATA     BYTE      P_SW3
      000000BAH   SFRSYM    DATA     BYTE      P_SW2
      000000A2H   SFRSYM    DATA     BYTE      P_SW1
      000000CEH   SFRSYM    DATA     BYTE      SPCTL
      000000F8H   SFRSYM    DATA     BYTE      P7
      000000E8H   SFRSYM    DATA     BYTE      P6
      000000C8H   SFRSYM    DATA     BYTE      P5
      000000C0H   SFRSYM    DATA     BYTE      P4
      000000B0H   SFRSYM    DATA     BYTE      P3
      000000A0H   SFRSYM    DATA     BYTE      P2
      00000090H   SFRSYM    DATA     BYTE      P1
      00000080H   SFRSYM    DATA     BYTE      P0
      WR6         REGSYM    ---      INT       spi_n
      R10         REGSYM    ---      BYTE      dat
      WR8         REGSYM    ---      INT       spi_n
      R10         REGSYM    ---      BYTE      dat
      R15         REGSYM    ---      BYTE      ret
      WR6         REGSYM    ---      INT       spi_n
      R5          REGSYM    ---      BYTE      dat
      REG=3       REGSYM    ---      ---       dat
L251 LINKER/LOCATER V4.66.93.0                                                        01/24/2026  18:53:03  PAGE 71


      WR12        REGSYM    ---      INT       spi_n
      WR14        REGSYM    ---      WORD      dat
      REG=3       REGSYM    ---      ---       dat
      WR14        REGSYM    ---      INT       spi_n
      R5          REGSYM    ---      BYTE      register_name
      R13         REGSYM    ---      BYTE      dat
      R11         REGSYM    ---      BYTE      register_name
      REG=3       REGSYM    ---      ---       dat
      WR14        REGSYM    ---      INT       spi_n
      WR12        REGSYM    ---      WORD      dat
      WR14        REGSYM    ---      INT       spi_n
      WR12        REGSYM    ---      WORD      register_name
      WR6         REGSYM    ---      INT       spi_n
      REG=3       REGSYM    ---      ---       dat
      WR14        REGSYM    ---      INT       spi_n
      WR12        REGSYM    ---      WORD      dat
      REG=3       REGSYM    ---      ---       dat
      WR14        REGSYM    ---      INT       spi_n
      R5          REGSYM    ---      BYTE      register_name
      R5          REGSYM    ---      BYTE      register_name
      REG=3       REGSYM    ---      ---       dat
      WR14        REGSYM    ---      INT       spi_n
      WR12        REGSYM    ---      WORD      register_name
      WR12        REGSYM    ---      WORD      dat
      REG=3       REGSYM    ---      ---       dat
      REG=3       REGSYM    ---      ---       write_buffer
      REG=3       REGSYM    ---      ---       write_buffer
      DR12        REGSYM    ---      DWORD     baud

      ---         MODULE    ---      ---       zf_driver_timer
      00FF729AH   PUBLIC    CODE     ---       timer_funciton_check
      000000D0H   SFRSYM    DATA     BYTE      PSW
      0000009DH   SFRSYM    DATA     BYTE      IRCBAND
      00000097H   SFRSYM    DATA     BYTE      AUXR2
      000000EFH   SFRSYM    DATA     BYTE      AUXINTIF
      000000FDH   SFRSYM    DATA     BYTE      S4CON
      000000ACH   SFRSYM    DATA     BYTE      S3CON
      0000009AH   SFRSYM    DATA     BYTE      S2CON
      000000B7H   SFRSYM    DATA     BYTE      IPH
      000000CDH   SFRSYM    DATA     BYTE      SPSTAT
      000000DDH   SFRSYM    DATA     BYTE      T4T3M
      000000C1H   SFRSYM    DATA     BYTE      WDT_CONTR
      000000DFH   SFRSYM    DATA     BYTE      IP3
      000000F4H   SFRSYM    DATA     BYTE      USBCON
      000000B5H   SFRSYM    DATA     BYTE      IP2
      000000FFH   SFRSYM    DATA     BYTE      RSTCFG
      000000C7H   SFRSYM    DATA     BYTE      IAP_CONTR
      000000F9H   SFRSYM    DATA     BYTE      LINICR
      0000008EH   SFRSYM    DATA     BYTE      AUXR
      000000AFH   SFRSYM    DATA     BYTE      IE2
      00000088H   SFRSYM    DATA     BYTE      TCON
      00000089H   SFRSYM    DATA     BYTE      TMOD
      00000098H   SFRSYM    DATA     BYTE      SCON
      000000F1H   SFRSYM    DATA     BYTE      CANICR
      00000087H   SFRSYM    DATA     BYTE      PCON
      000000BCH   SFRSYM    DATA     BYTE      ADC_CONTR
      000000E7H   SFRSYM    DATA     BYTE      CMPCR2
      000000E6H   SFRSYM    DATA     BYTE      CMPCR1
      000000DEH   SFRSYM    DATA     BYTE      ADCCFG
      000000B8H   SFRSYM    DATA     BYTE      IP
      0000008FH   SFRSYM    DATA     BYTE      INTCLKO
      000000EEH   SFRSYM    DATA     BYTE      IP3H
      000000B6H   SFRSYM    DATA     BYTE      IP2H
      000000A8H   SFRSYM    DATA     BYTE      IE
      000000BBH   SFRSYM    DATA     BYTE      P_SW3
L251 LINKER/LOCATER V4.66.93.0                                                        01/24/2026  18:53:03  PAGE 72


      000000BAH   SFRSYM    DATA     BYTE      P_SW2
      000000A2H   SFRSYM    DATA     BYTE      P_SW1
      000000CEH   SFRSYM    DATA     BYTE      SPCTL
      000000F8H   SFRSYM    DATA     BYTE      P7
      000000E8H   SFRSYM    DATA     BYTE      P6
      000000C8H   SFRSYM    DATA     BYTE      P5
      000000C0H   SFRSYM    DATA     BYTE      P4
      000000B0H   SFRSYM    DATA     BYTE      P3
      000000A0H   SFRSYM    DATA     BYTE      P2
      00000090H   SFRSYM    DATA     BYTE      P1
      00000080H   SFRSYM    DATA     BYTE      P0
      00010952H   SYMBOL    XDATA    ---       timer_function_state

      00FF729AH   BLOCK     CODE     ---       LVL=0
      WR2         REGSYM    ---      INT       index
      WR0         REGSYM    ---      INT       mode
      00FF729CH   BLOCK     CODE     NEAR LAB  LVL=1
      R10         REGSYM    ---      BYTE      return_state
      ---         BLOCKEND  ---      ---       LVL=1
      00FF729AH   LINE      CODE     ---       #58
      00FF729CH   LINE      CODE     ---       #59
      00FF729CH   LINE      CODE     ---       #60
      00FF729FH   LINE      CODE     ---       #61
      00FF72B2H   LINE      CODE     ---       #63
      00FF72BBH   LINE      CODE     ---       #64
      00FF72BDH   LINE      CODE     ---       #65
      00FF72C1H   LINE      CODE     ---       #67
      00FF72C4H   LINE      CODE     ---       #68
      00FF72C6H   LINE      CODE     ---       #71
      00FF72C8H   LINE      CODE     ---       #72
      00FF72C8H   LINE      CODE     ---       #73
      00FF72CAH   LINE      CODE     ---       #74
      ---         BLOCKEND  ---      ---       LVL=0

      ---         MODULE    ---      ---       zf_driver_uart
      00FF6ACAH   PUBLIC    CODE     ---       uart_rx_start_buff
      00FF5465H   PUBLIC    CODE     ---       uart_write_buffer
      00FF4825H   PUBLIC    CODE     ---       uart_init
      00FF70DCH   PUBLIC    CODE     ---       uart_rx_interrupt
      00FF7544H   PUBLIC    CODE     ---       uart_write_byte
      00FF5E41H   PUBLIC    CODE     ---       uart_dma_init
      00FF72CBH   PUBLIC    CODE     ---       uart_funciton_check
      00FF6E17H   PUBLIC    CODE     ---       uart_query_byte
      00010966H   PUBLIC    XDATA    ---       uart_rx_buff
      00010637H   PUBLIC    XDATA    BYTE      ?uart_init?BYTE
      000000D0H   SFRSYM    DATA     BYTE      PSW
      0000009DH   SFRSYM    DATA     BYTE      IRCBAND
      00000097H   SFRSYM    DATA     BYTE      AUXR2
      000000EFH   SFRSYM    DATA     BYTE      AUXINTIF
      000000FDH   SFRSYM    DATA     BYTE      S4CON
      000000ACH   SFRSYM    DATA     BYTE      S3CON
      0000009AH   SFRSYM    DATA     BYTE      S2CON
      000000B7H   SFRSYM    DATA     BYTE      IPH
      000000CDH   SFRSYM    DATA     BYTE      SPSTAT
      000000DDH   SFRSYM    DATA     BYTE      T4T3M
      000000C1H   SFRSYM    DATA     BYTE      WDT_CONTR
      00000088H.6 SFRSYM    DATA     BIT       TR1
      000000D7H   SFRSYM    DATA     BYTE      T2L
      000000D6H   SFRSYM    DATA     BYTE      T2H
      000000DFH   SFRSYM    DATA     BYTE      IP3
      000000F4H   SFRSYM    DATA     BYTE      USBCON
      000000B5H   SFRSYM    DATA     BYTE      IP2
      000000FFH   SFRSYM    DATA     BYTE      RSTCFG
      000000C7H   SFRSYM    DATA     BYTE      IAP_CONTR
      000000F9H   SFRSYM    DATA     BYTE      LINICR
L251 LINKER/LOCATER V4.66.93.0                                                        01/24/2026  18:53:03  PAGE 73


      0000008EH   SFRSYM    DATA     BYTE      AUXR
      000000AFH   SFRSYM    DATA     BYTE      IE2
      00000088H   SFRSYM    DATA     BYTE      TCON
      00000089H   SFRSYM    DATA     BYTE      TMOD
      00000098H   SFRSYM    DATA     BYTE      SCON
      000000F1H   SFRSYM    DATA     BYTE      CANICR
      00000087H   SFRSYM    DATA     BYTE      PCON
      000000BCH   SFRSYM    DATA     BYTE      ADC_CONTR
      000000E7H   SFRSYM    DATA     BYTE      CMPCR2
      000000E6H   SFRSYM    DATA     BYTE      CMPCR1
      000000DEH   SFRSYM    DATA     BYTE      ADCCFG
      000000B8H   SFRSYM    DATA     BYTE      IP
      0000008FH   SFRSYM    DATA     BYTE      INTCLKO
      000000EEH   SFRSYM    DATA     BYTE      IP3H
      000000B6H   SFRSYM    DATA     BYTE      IP2H
      000000A8H   SFRSYM    DATA     BYTE      IE
      000000BBH   SFRSYM    DATA     BYTE      P_SW3
      000000BAH   SFRSYM    DATA     BYTE      P_SW2
      000000A2H   SFRSYM    DATA     BYTE      P_SW1
      000000CEH   SFRSYM    DATA     BYTE      SPCTL
      000000F8H   SFRSYM    DATA     BYTE      P7
      000000E8H   SFRSYM    DATA     BYTE      P6
      000000C8H   SFRSYM    DATA     BYTE      P5
      000000C0H   SFRSYM    DATA     BYTE      P4
      000000B0H   SFRSYM    DATA     BYTE      P3
      000000A0H   SFRSYM    DATA     BYTE      P2
      00000090H   SFRSYM    DATA     BYTE      P1
      00000080H   SFRSYM    DATA     BYTE      P0
      00FF82AAH   SYMBOL    HCONST   ---       ?tpl?0001
      0001095EH   SYMBOL    XDATA    ---       uart_function_state

      00FF72CBH   BLOCK     CODE     ---       LVL=0
      WR2         REGSYM    ---      INT       index
      WR0         REGSYM    ---      INT       mode
      00FF72CDH   BLOCK     CODE     NEAR LAB  LVL=1
      R10         REGSYM    ---      BYTE      return_state
      ---         BLOCKEND  ---      ---       LVL=1
      00FF72CBH   LINE      CODE     ---       #86
      00FF72CDH   LINE      CODE     ---       #87
      00FF72CDH   LINE      CODE     ---       #88
      00FF72D0H   LINE      CODE     ---       #89
      00FF72E3H   LINE      CODE     ---       #91
      00FF72ECH   LINE      CODE     ---       #92
      00FF72EEH   LINE      CODE     ---       #93
      00FF72F2H   LINE      CODE     ---       #95
      00FF72F5H   LINE      CODE     ---       #96
      00FF72F7H   LINE      CODE     ---       #99
      00FF72F9H   LINE      CODE     ---       #100
      00FF72F9H   LINE      CODE     ---       #101
      00FF72FBH   LINE      CODE     ---       #102
      ---         BLOCKEND  ---      ---       LVL=0

      00FF5465H   BLOCK     CODE     ---       LVL=0
      00010686H   SYMBOL    XDATA    INT       uart_n
      REG=3       REGSYM    ---      ---       buff
      00010688H   SYMBOL    XDATA    WORD      len
      00FF5475H   BLOCK     CODE     NEAR LAB  LVL=1
      0001068AH   SYMBOL    XDATA    ---       tmp_buff
      000106CAH   SYMBOL    XDATA    WORD      tmp_len
      ---         BLOCKEND  ---      ---       LVL=1
      00FF5465H   LINE      CODE     ---       #111
      00FF5475H   LINE      CODE     ---       #112
      00FF5475H   LINE      CODE     ---       #116
      00FF548AH   LINE      CODE     ---       #117
      00FF548AH   LINE      CODE     ---       #118
L251 LINKER/LOCATER V4.66.93.0                                                        01/24/2026  18:53:03  PAGE 74


      00FF548DH   LINE      CODE     ---       #120
      00FF54ABH   LINE      CODE     ---       #121
      00FF54BCH   LINE      CODE     ---       #122
      00FF54CDH   LINE      CODE     ---       #123
      00FF54CFH   LINE      CODE     ---       #126
      00FF54EFH   LINE      CODE     ---       #128
      00FF54FEH   LINE      CODE     ---       #129
      00FF5519H   LINE      CODE     ---       #130
      00FF552AH   LINE      CODE     ---       #131
      00FF5537H   LINE      CODE     ---       #132
      00FF5544H   LINE      CODE     ---       #134
      00FF5565H   LINE      CODE     ---       #136
      00FF5571H   LINE      CODE     ---       #137
      00FF557EH   LINE      CODE     ---       #138
      ---         BLOCKEND  ---      ---       LVL=0
      REG=3       REGSYM    ---      ---       str
      WR4         REGSYM    ---      WORD      len

      00FF7544H   BLOCK     CODE     ---       LVL=0
      WR6         REGSYM    ---      INT       uart_n
      00010685H   SYMBOL    XDATA    BYTE      dat
      00FF7544H   LINE      CODE     ---       #159
      00FF7548H   LINE      CODE     ---       #161
      ---         BLOCKEND  ---      ---       LVL=0

      00FF6ACAH   BLOCK     CODE     ---       LVL=0
      WR8         REGSYM    ---      INT       uart_n
      00FF6ACAH   LINE      CODE     ---       #170
      00FF6ACCH   LINE      CODE     ---       #172
      00FF6AEAH   LINE      CODE     ---       #173
      00FF6AFAH   LINE      CODE     ---       #174
      00FF6B0DH   LINE      CODE     ---       #175
      00FF6B1CH   LINE      CODE     ---       #176
      00FF6B29H   LINE      CODE     ---       #177
      ---         BLOCKEND  ---      ---       LVL=0

      00FF70DCH   BLOCK     CODE     ---       LVL=0
      WR6         REGSYM    ---      INT       uart_n
      R5          REGSYM    ---      BYTE      status
      00FF70DCH   LINE      CODE     ---       #186
      00FF70DEH   LINE      CODE     ---       #188
      00FF70E2H   LINE      CODE     ---       #190
      00FF70FAH   LINE      CODE     ---       #191
      00FF70FCH   LINE      CODE     ---       #194
      00FF7117H   LINE      CODE     ---       #195
      00FF7117H   LINE      CODE     ---       #196
      ---         BLOCKEND  ---      ---       LVL=0
      WR8         REGSYM    ---      INT       uart_n
      R15         REGSYM    ---      BYTE      dat

      00FF6E17H   BLOCK     CODE     ---       LVL=0
      WR2         REGSYM    ---      INT       uart_n
      REG=7       REGSYM    ---      ---       dat
      00FF6E1DH   BLOCK     CODE     NEAR LAB  LVL=1
      R15         REGSYM    ---      BYTE      ret
      ---         BLOCKEND  ---      ---       LVL=1
      00FF6E17H   LINE      CODE     ---       #230
      00FF6E1DH   LINE      CODE     ---       #231
      00FF6E1DH   LINE      CODE     ---       #232
      00FF6E1DH   LINE      CODE     ---       #235
      00FF6E2DH   LINE      CODE     ---       #237
      00FF6E47H   LINE      CODE     ---       #239
      00FF6E4AH   LINE      CODE     ---       #241
      00FF6E52H   LINE      CODE     ---       #242
      00FF6E54H   LINE      CODE     ---       #245
L251 LINKER/LOCATER V4.66.93.0                                                        01/24/2026  18:53:03  PAGE 75


      00FF6E56H   LINE      CODE     ---       #246
      00FF6E56H   LINE      CODE     ---       #249
      00FF6E5BH   LINE      CODE     ---       #251
      00FF6E5DH   LINE      CODE     ---       #252
      ---         BLOCKEND  ---      ---       LVL=0

      00FF5E41H   BLOCK     CODE     ---       LVL=0
      WR8         REGSYM    ---      INT       uart_n
      00FF5E41H   LINE      CODE     ---       #260
      00FF5E45H   LINE      CODE     ---       #262
      00FF5E61H   LINE      CODE     ---       #263
      00FF5E6FH   LINE      CODE     ---       #264
      00FF5E7CH   LINE      CODE     ---       #266
      00FF5E89H   LINE      CODE     ---       #267
      00FF5E96H   LINE      CODE     ---       #268
      00FF5EA3H   LINE      CODE     ---       #270
      00FF5EB0H   LINE      CODE     ---       #271
      00FF5EC9H   LINE      CODE     ---       #272
      00FF5EDCH   LINE      CODE     ---       #273
      00FF5EEBH   LINE      CODE     ---       #274
      00FF5EF0H   LINE      CODE     ---       #275
      00FF5EF5H   LINE      CODE     ---       #277
      ---         BLOCKEND  ---      ---       LVL=0

      00FF4825H   BLOCK     CODE     ---       LVL=0
      WR12        REGSYM    ---      INT       uart_n
      0001063BH   SYMBOL    XDATA    DWORD     baud
      WR14        REGSYM    ---      INT       tx_pin
      0001063FH   SYMBOL    XDATA    INT       rx_pin
      00FF4835H   BLOCK     CODE     NEAR LAB  LVL=1
      WR6         REGSYM    ---      WORD      brt
      ---         BLOCKEND  ---      ---       LVL=1
      00FF4825H   LINE      CODE     ---       #289
      00FF4835H   LINE      CODE     ---       #290
      00FF4835H   LINE      CODE     ---       #299
      00FF484BH   LINE      CODE     ---       #306
      00FF4865H   LINE      CODE     ---       #311
      00FF488FH   LINE      CODE     ---       #314
      00FF48A0H   LINE      CODE     ---       #315
      00FF48B3H   LINE      CODE     ---       #317
      00FF48E4H   LINE      CODE     ---       #319
      00FF4904H   LINE      CODE     ---       #321
      00FF4904H   LINE      CODE     ---       #335
      00FF4907H   LINE      CODE     ---       #336
      00FF490BH   LINE      CODE     ---       #337
      00FF490FH   LINE      CODE     ---       #338
      00FF4912H   LINE      CODE     ---       #339
      00FF4914H   LINE      CODE     ---       #342
      00FF4917H   LINE      CODE     ---       #344
      00FF4929H   LINE      CODE     ---       #346
      00FF492DH   LINE      CODE     ---       #347
      00FF4930H   LINE      CODE     ---       #348
      00FF493CH   LINE      CODE     ---       #350
      00FF493FH   LINE      CODE     ---       #351
      00FF4942H   LINE      CODE     ---       #352
      00FF494EH   LINE      CODE     ---       #354
      00FF4951H   LINE      CODE     ---       #355
      00FF4954H   LINE      CODE     ---       #356
      00FF4966H   LINE      CODE     ---       #358
      00FF4969H   LINE      CODE     ---       #359
      00FF4969H   LINE      CODE     ---       #362
      00FF496CH   LINE      CODE     ---       #365
      00FF496CH   LINE      CODE     ---       #369
      00FF496FH   LINE      CODE     ---       #370
      00FF4973H   LINE      CODE     ---       #371
L251 LINKER/LOCATER V4.66.93.0                                                        01/24/2026  18:53:03  PAGE 76


      00FF4977H   LINE      CODE     ---       #372
      00FF497AH   LINE      CODE     ---       #375
      00FF497DH   LINE      CODE     ---       #377
      00FF498FH   LINE      CODE     ---       #379
      00FF498FH   LINE      CODE     ---       #380
      00FF4991H   LINE      CODE     ---       #381
      00FF49A0H   LINE      CODE     ---       #383
      00FF49A3H   LINE      CODE     ---       #384
      00FF49A3H   LINE      CODE     ---       #388
      00FF49A5H   LINE      CODE     ---       #391
      00FF49A5H   LINE      CODE     ---       #395
      00FF49A8H   LINE      CODE     ---       #396
      00FF49ACH   LINE      CODE     ---       #397
      00FF49B0H   LINE      CODE     ---       #398
      00FF49B3H   LINE      CODE     ---       #408
      00FF49B6H   LINE      CODE     ---       #410
      00FF49C8H   LINE      CODE     ---       #412
      00FF49C8H   LINE      CODE     ---       #413
      00FF49CAH   LINE      CODE     ---       #414
      00FF49D6H   LINE      CODE     ---       #416
      00FF49D9H   LINE      CODE     ---       #417
      00FF49D9H   LINE      CODE     ---       #421
      00FF49DBH   LINE      CODE     ---       #424
      00FF49DBH   LINE      CODE     ---       #428
      00FF49DEH   LINE      CODE     ---       #429
      00FF49E2H   LINE      CODE     ---       #430
      00FF49E6H   LINE      CODE     ---       #431
      00FF49E9H   LINE      CODE     ---       #441
      00FF49ECH   LINE      CODE     ---       #443
      00FF49FEH   LINE      CODE     ---       #445
      00FF4A02H   LINE      CODE     ---       #446
      00FF4A04H   LINE      CODE     ---       #447
      00FF4A10H   LINE      CODE     ---       #451
      00FF4A13H   LINE      CODE     ---       #452
      00FF4A13H   LINE      CODE     ---       #456
      00FF4A13H   LINE      CODE     ---       #459
      00FF4A13H   LINE      CODE     ---       #462
      00FF4A18H   LINE      CODE     ---       #464
      ---         BLOCKEND  ---      ---       LVL=0

      ---         MODULE    ---      ---       zf_device_ble6a20
      000000D0H   SFRSYM    DATA     BYTE      PSW
      0000009DH   SFRSYM    DATA     BYTE      IRCBAND
      00000097H   SFRSYM    DATA     BYTE      AUXR2
      000000EFH   SFRSYM    DATA     BYTE      AUXINTIF
      000000FDH   SFRSYM    DATA     BYTE      S4CON
      000000ACH   SFRSYM    DATA     BYTE      S3CON
      0000009AH   SFRSYM    DATA     BYTE      S2CON
      000000B7H   SFRSYM    DATA     BYTE      IPH
      000000CDH   SFRSYM    DATA     BYTE      SPSTAT
      000000DDH   SFRSYM    DATA     BYTE      T4T3M
      000000C1H   SFRSYM    DATA     BYTE      WDT_CONTR
      000000DFH   SFRSYM    DATA     BYTE      IP3
      000000F4H   SFRSYM    DATA     BYTE      USBCON
      000000B5H   SFRSYM    DATA     BYTE      IP2
      000000FFH   SFRSYM    DATA     BYTE      RSTCFG
      000000C7H   SFRSYM    DATA     BYTE      IAP_CONTR
      000000F9H   SFRSYM    DATA     BYTE      LINICR
      0000008EH   SFRSYM    DATA     BYTE      AUXR
      000000AFH   SFRSYM    DATA     BYTE      IE2
      00000088H   SFRSYM    DATA     BYTE      TCON
      00000089H   SFRSYM    DATA     BYTE      TMOD
      00000098H   SFRSYM    DATA     BYTE      SCON
      000000F1H   SFRSYM    DATA     BYTE      CANICR
      00000087H   SFRSYM    DATA     BYTE      PCON
L251 LINKER/LOCATER V4.66.93.0                                                        01/24/2026  18:53:03  PAGE 77


      000000BCH   SFRSYM    DATA     BYTE      ADC_CONTR
      000000E7H   SFRSYM    DATA     BYTE      CMPCR2
      000000E6H   SFRSYM    DATA     BYTE      CMPCR1
      000000DEH   SFRSYM    DATA     BYTE      ADCCFG
      000000B8H   SFRSYM    DATA     BYTE      IP
      0000008FH   SFRSYM    DATA     BYTE      INTCLKO
      000000EEH   SFRSYM    DATA     BYTE      IP3H
      000000B6H   SFRSYM    DATA     BYTE      IP2H
      000000A8H   SFRSYM    DATA     BYTE      IE
      000000BBH   SFRSYM    DATA     BYTE      P_SW3
      000000BAH   SFRSYM    DATA     BYTE      P_SW2
      000000A2H   SFRSYM    DATA     BYTE      P_SW1
      000000CEH   SFRSYM    DATA     BYTE      SPCTL
      000000F8H   SFRSYM    DATA     BYTE      P7
      000000E8H   SFRSYM    DATA     BYTE      P6
      000000C8H   SFRSYM    DATA     BYTE      P5
      000000C0H   SFRSYM    DATA     BYTE      P4
      000000B0H   SFRSYM    DATA     BYTE      P3
      000000A0H   SFRSYM    DATA     BYTE      P2
      00000090H   SFRSYM    DATA     BYTE      P1
      00000080H   SFRSYM    DATA     BYTE      P0
      00010725H   SYMBOL    XDATA    ---       ble6a20_buffer
      00010765H   SYMBOL    XDATA    ---       ble6a20_fifo
      R15         REGSYM    ---      BYTE      dat
      WR12        REGSYM    ---      WORD      time_cnt
      DR12        REGSYM    ---      DWORD     len
      REG=3       REGSYM    ---      ---       str
      REG=3       REGSYM    ---      ---       buff
      DR4         REGSYM    ---      DWORD     len

      ---         MODULE    ---      ---       zf_device_config
      00FF01CEH   PUBLIC    CODE     ---       imu660ra_config_file

      ---         MODULE    ---      ---       zf_device_dl1a
      00010941H   PUBLIC    XDATA    WORD      dl1a_distance_mm
      00010943H   PUBLIC    XDATA    BYTE      dl1a_finsh_flag
      000000D0H   SFRSYM    DATA     BYTE      PSW
      0000009DH   SFRSYM    DATA     BYTE      IRCBAND
      00000097H   SFRSYM    DATA     BYTE      AUXR2
      000000EFH   SFRSYM    DATA     BYTE      AUXINTIF
      000000FDH   SFRSYM    DATA     BYTE      S4CON
      000000ACH   SFRSYM    DATA     BYTE      S3CON
      0000009AH   SFRSYM    DATA     BYTE      S2CON
      000000B7H   SFRSYM    DATA     BYTE      IPH
      000000CDH   SFRSYM    DATA     BYTE      SPSTAT
      000000DDH   SFRSYM    DATA     BYTE      T4T3M
      000000C1H   SFRSYM    DATA     BYTE      WDT_CONTR
      000000DFH   SFRSYM    DATA     BYTE      IP3
      000000F4H   SFRSYM    DATA     BYTE      USBCON
      000000B5H   SFRSYM    DATA     BYTE      IP2
      000000FFH   SFRSYM    DATA     BYTE      RSTCFG
      000000C7H   SFRSYM    DATA     BYTE      IAP_CONTR
      000000F9H   SFRSYM    DATA     BYTE      LINICR
      0000008EH   SFRSYM    DATA     BYTE      AUXR
      000000AFH   SFRSYM    DATA     BYTE      IE2
      00000088H   SFRSYM    DATA     BYTE      TCON
      00000089H   SFRSYM    DATA     BYTE      TMOD
      00000098H   SFRSYM    DATA     BYTE      SCON
      000000F1H   SFRSYM    DATA     BYTE      CANICR
      00000087H   SFRSYM    DATA     BYTE      PCON
      000000BCH   SFRSYM    DATA     BYTE      ADC_CONTR
      000000E7H   SFRSYM    DATA     BYTE      CMPCR2
      000000E6H   SFRSYM    DATA     BYTE      CMPCR1
      000000DEH   SFRSYM    DATA     BYTE      ADCCFG
      000000B8H   SFRSYM    DATA     BYTE      IP
L251 LINKER/LOCATER V4.66.93.0                                                        01/24/2026  18:53:03  PAGE 78


      0000008FH   SFRSYM    DATA     BYTE      INTCLKO
      000000EEH   SFRSYM    DATA     BYTE      IP3H
      000000B6H   SFRSYM    DATA     BYTE      IP2H
      000000A8H   SFRSYM    DATA     BYTE      IE
      000000BBH   SFRSYM    DATA     BYTE      P_SW3
      000000BAH   SFRSYM    DATA     BYTE      P_SW2
      000000A2H   SFRSYM    DATA     BYTE      P_SW1
      000000CEH   SFRSYM    DATA     BYTE      SPCTL
      000000F8H   SFRSYM    DATA     BYTE      P7
      000000E8H   SFRSYM    DATA     BYTE      P6
      000000C8H   SFRSYM    DATA     BYTE      P5
      000000C0H   SFRSYM    DATA     BYTE      P4
      000000B0H   SFRSYM    DATA     BYTE      P3
      000000A0H   SFRSYM    DATA     BYTE      P2
      00000090H   SFRSYM    DATA     BYTE      P1
      00000080H   SFRSYM    DATA     BYTE      P0
      00FF7D6FH   SYMBOL    HCONST   ---       ?tpl?0001
      00FF7D77H   SYMBOL    HCONST   ---       ?tpl?0002
      00FF7D7DH   SYMBOL    HCONST   ---       ?tpl?0003
      00FF7D87H   SYMBOL    HCONST   ---       ?tpl?0004
      00010938H   SYMBOL    XDATA    ---       dl1a_iic_struct
      00010944H   SYMBOL    XDATA    BYTE      dl1a_init_flag
      REG=3       REGSYM    ---      ---       type_is_aperture
      WR30        REGSYM    ---      WORD      timeout_period_mclks
      R5          REGSYM    ---      BYTE      vcsel_period_pclks
      DR24        REGSYM    ---      DWORD     macro_period_ns
      DR28        REGSYM    ---      DWORD     timeout_period_us
      R3          REGSYM    ---      BYTE      vcsel_period_pclks
      DR8         REGSYM    ---      DWORD     macro_period_ns
      WR4         REGSYM    ---      WORD      reg_val
      WR2         REGSYM    ---      WORD      timeout_mclks
      DR8         REGSYM    ---      DWORD     ls_byte
      WR4         REGSYM    ---      WORD      ms_byte
      WR6         REGSYM    ---      WORD      return_data
      REG=3       REGSYM    ---      ---       enables
      WR6         REGSYM    ---      INT       type
      REG=3       REGSYM    ---      ---       timeouts
      R10         REGSYM    ---      BYTE      vhv_init_byte
      R15         REGSYM    ---      BYTE      return_state
      DR12        REGSYM    ---      DWORD     budget_us
      WR6         REGSYM    ---      WORD      dat
      DR4         REGSYM    ---      DWORD     final_range_timeout_us
      DR12        REGSYM    ---      DWORD     budget_us
      DR28        REGSYM    ---      FLOAT     limit_mcps
      WR14        REGSYM    ---      WORD      limit_mcps_16bit
      R15         REGSYM    ---      BYTE      return_state
      R14         REGSYM    ---      BYTE      reg_data_buffer
      WR12        REGSYM    ---      WORD      i

      ---         MODULE    ---      ---       zf_device_dl1b
      0001094EH   PUBLIC    XDATA    WORD      dl1b_distance_mm
      00010950H   PUBLIC    XDATA    BYTE      dl1b_finsh_flag
      000000D0H   SFRSYM    DATA     BYTE      PSW
      0000009DH   SFRSYM    DATA     BYTE      IRCBAND
      00000097H   SFRSYM    DATA     BYTE      AUXR2
      000000EFH   SFRSYM    DATA     BYTE      AUXINTIF
      000000FDH   SFRSYM    DATA     BYTE      S4CON
      000000ACH   SFRSYM    DATA     BYTE      S3CON
      0000009AH   SFRSYM    DATA     BYTE      S2CON
      000000B7H   SFRSYM    DATA     BYTE      IPH
      000000CDH   SFRSYM    DATA     BYTE      SPSTAT
      000000DDH   SFRSYM    DATA     BYTE      T4T3M
      000000C1H   SFRSYM    DATA     BYTE      WDT_CONTR
      000000DFH   SFRSYM    DATA     BYTE      IP3
      000000F4H   SFRSYM    DATA     BYTE      USBCON
L251 LINKER/LOCATER V4.66.93.0                                                        01/24/2026  18:53:03  PAGE 79


      000000B5H   SFRSYM    DATA     BYTE      IP2
      000000FFH   SFRSYM    DATA     BYTE      RSTCFG
      000000C7H   SFRSYM    DATA     BYTE      IAP_CONTR
      000000F9H   SFRSYM    DATA     BYTE      LINICR
      0000008EH   SFRSYM    DATA     BYTE      AUXR
      000000AFH   SFRSYM    DATA     BYTE      IE2
      00000088H   SFRSYM    DATA     BYTE      TCON
      00000089H   SFRSYM    DATA     BYTE      TMOD
      00000098H   SFRSYM    DATA     BYTE      SCON
      000000F1H   SFRSYM    DATA     BYTE      CANICR
      00000087H   SFRSYM    DATA     BYTE      PCON
      000000BCH   SFRSYM    DATA     BYTE      ADC_CONTR
      000000E7H   SFRSYM    DATA     BYTE      CMPCR2
      000000E6H   SFRSYM    DATA     BYTE      CMPCR1
      000000DEH   SFRSYM    DATA     BYTE      ADCCFG
      000000B8H   SFRSYM    DATA     BYTE      IP
      0000008FH   SFRSYM    DATA     BYTE      INTCLKO
      000000EEH   SFRSYM    DATA     BYTE      IP3H
      000000B6H   SFRSYM    DATA     BYTE      IP2H
      000000A8H   SFRSYM    DATA     BYTE      IE
      000000BBH   SFRSYM    DATA     BYTE      P_SW3
      000000BAH   SFRSYM    DATA     BYTE      P_SW2
      000000A2H   SFRSYM    DATA     BYTE      P_SW1
      000000CEH   SFRSYM    DATA     BYTE      SPCTL
      000000F8H   SFRSYM    DATA     BYTE      P7
      000000E8H   SFRSYM    DATA     BYTE      P6
      000000C8H   SFRSYM    DATA     BYTE      P5
      000000C0H   SFRSYM    DATA     BYTE      P4
      000000B0H   SFRSYM    DATA     BYTE      P3
      000000A0H   SFRSYM    DATA     BYTE      P2
      00000090H   SFRSYM    DATA     BYTE      P1
      00000080H   SFRSYM    DATA     BYTE      P0
      00010945H   SYMBOL    XDATA    ---       dl1b_iic_struct
      00010951H   SYMBOL    XDATA    BYTE      dl1b_init_flag
      WR14        REGSYM    ---      INT       dl1b_distance_temp

      ---         MODULE    ---      ---       zf_device_gps_tau1201
      00010219H   PUBLIC    XDATA    BYTE      gps_tau1201_flag
      0001029AH   PUBLIC    XDATA    ---       gps_tau1201
      000103C6H   PUBLIC    XDATA    INT       gps_gga_state
      000103C8H   PUBLIC    XDATA    INT       gps_rmc_state
      000000D0H   SFRSYM    DATA     BYTE      PSW
      0000009DH   SFRSYM    DATA     BYTE      IRCBAND
      00000097H   SFRSYM    DATA     BYTE      AUXR2
      000000EFH   SFRSYM    DATA     BYTE      AUXINTIF
      000000FDH   SFRSYM    DATA     BYTE      S4CON
      000000ACH   SFRSYM    DATA     BYTE      S3CON
      0000009AH   SFRSYM    DATA     BYTE      S2CON
      000000B7H   SFRSYM    DATA     BYTE      IPH
      000000CDH   SFRSYM    DATA     BYTE      SPSTAT
      000000DDH   SFRSYM    DATA     BYTE      T4T3M
      000000C1H   SFRSYM    DATA     BYTE      WDT_CONTR
      000000DFH   SFRSYM    DATA     BYTE      IP3
      000000F4H   SFRSYM    DATA     BYTE      USBCON
      000000B5H   SFRSYM    DATA     BYTE      IP2
      000000FFH   SFRSYM    DATA     BYTE      RSTCFG
      000000C7H   SFRSYM    DATA     BYTE      IAP_CONTR
      000000F9H   SFRSYM    DATA     BYTE      LINICR
      0000008EH   SFRSYM    DATA     BYTE      AUXR
      000000AFH   SFRSYM    DATA     BYTE      IE2
      00000088H   SFRSYM    DATA     BYTE      TCON
      00000089H   SFRSYM    DATA     BYTE      TMOD
      00000098H   SFRSYM    DATA     BYTE      SCON
      000000F1H   SFRSYM    DATA     BYTE      CANICR
      00000087H   SFRSYM    DATA     BYTE      PCON
L251 LINKER/LOCATER V4.66.93.0                                                        01/24/2026  18:53:03  PAGE 80


      000000BCH   SFRSYM    DATA     BYTE      ADC_CONTR
      000000E7H   SFRSYM    DATA     BYTE      CMPCR2
      000000E6H   SFRSYM    DATA     BYTE      CMPCR1
      000000DEH   SFRSYM    DATA     BYTE      ADCCFG
      000000B8H   SFRSYM    DATA     BYTE      IP
      0000008FH   SFRSYM    DATA     BYTE      INTCLKO
      000000EEH   SFRSYM    DATA     BYTE      IP3H
      000000B6H   SFRSYM    DATA     BYTE      IP2H
      000000A8H   SFRSYM    DATA     BYTE      IE
      000000BBH   SFRSYM    DATA     BYTE      P_SW3
      000000BAH   SFRSYM    DATA     BYTE      P_SW2
      000000A2H   SFRSYM    DATA     BYTE      P_SW1
      000000CEH   SFRSYM    DATA     BYTE      SPCTL
      000000F8H   SFRSYM    DATA     BYTE      P7
      000000E8H   SFRSYM    DATA     BYTE      P6
      000000C8H   SFRSYM    DATA     BYTE      P5
      000000C0H   SFRSYM    DATA     BYTE      P4
      000000B0H   SFRSYM    DATA     BYTE      P3
      000000A0H   SFRSYM    DATA     BYTE      P2
      00000090H   SFRSYM    DATA     BYTE      P1
      00000080H   SFRSYM    DATA     BYTE      P0
      00FF804AH   SYMBOL    HCONST   ---       ?tpl?0001
      00FF804FH   SYMBOL    HCONST   ---       ?tpl?0002
      00FF806BH   SYMBOL    HCONST   ---       ?tpl?0003
      00FF8076H   SYMBOL    HCONST   ---       ?tpl?0004
      00FF8081H   SYMBOL    HCONST   ---       ?tpl?0005
      00FF808CH   SYMBOL    HCONST   ---       ?tpl?0006
      00FF8097H   SYMBOL    HCONST   ---       ?tpl?0007
      00FF80A2H   SYMBOL    HCONST   ---       ?tpl?0008
      00FF80ADH   SYMBOL    HCONST   ---       ?tpl?0009
      00FF80B8H   SYMBOL    HCONST   ---       ?tpl?000A
      00FF80C3H   SYMBOL    HCONST   ---       ?tpl?000B
      00FF80CEH   SYMBOL    HCONST   ---       ?tpl?000C
      00FF80D9H   SYMBOL    HCONST   ---       ?tpl?000D
      00010202H   SYMBOL    XDATA    ---       gps_tau1201_receiver_fifo
      0001021AH   SYMBOL    XDATA    ---       gps_gga_buffer
      000102C5H   SYMBOL    XDATA    BYTE      gps_tau1201_state
      000102C6H   SYMBOL    XDATA    ---       gps_rmc_buffer
      00010346H   SYMBOL    XDATA    ---       gps_tau1201_receiver_buffer
      REG=3       REGSYM    ---      ---       str
      REG=7       REGSYM    ---      ---       temp
      R7          REGSYM    ---      BYTE      len
      R10         REGSYM    ---      BYTE      len1
      REG=3       REGSYM    ---      ---       s
      WR6         REGSYM    ---      INT       return_value
      REG=3       REGSYM    ---      ---       s
      DR4         REGSYM    ---      FLOAT     return_value
      REG=3       REGSYM    ---      ---       s
      DR4         REGSYM    ---      FLOAT     return_value
      REG=7       REGSYM    ---      ---       time
      R6          REGSYM    ---      BYTE      day_num
      REG=0       REGSYM    ---      ---       line
      REG=3       REGSYM    ---      ---       gps
      R10         REGSYM    ---      BYTE      state
      R7          REGSYM    ---      BYTE      temp
      DR24        REGSYM    ---      FLOAT     longitude
      DR20        REGSYM    ---      FLOAT     lati_cent_tmp
      DR4         REGSYM    ---      FLOAT     lati_second_tmp
      DR24        REGSYM    ---      FLOAT     long_cent_tmp
      DR4         REGSYM    ---      FLOAT     long_second_tmp
      DR4         REGSYM    ---      FLOAT     speed_tmp
      REG=0       REGSYM    ---      ---       line
      R11         REGSYM    ---      BYTE      state
      DR24        REGSYM    ---      FLOAT     latitude1
      DR28        REGSYM    ---      FLOAT     longitude1
L251 LINKER/LOCATER V4.66.93.0                                                        01/24/2026  18:53:03  PAGE 81


      DR24        REGSYM    ---      FLOAT     rad_longitude1
      DR28        REGSYM    ---      FLOAT     rad_longitude2
      DR28        REGSYM    ---      FLOAT     distance
      DR4         REGSYM    ---      FLOAT     b
      DR12        REGSYM    ---      DWORD     data_len

      ---         MODULE    ---      ---       zf_device_icm20602
      00010910H   PUBLIC    XDATA    INT       icm20602_acc_x
      00010912H   PUBLIC    XDATA    INT       icm20602_acc_y
      00010914H   PUBLIC    XDATA    INT       icm20602_acc_z
      00010916H   PUBLIC    XDATA    INT       icm20602_gyro_x
      00010918H   PUBLIC    XDATA    INT       icm20602_gyro_y
      0001091AH   PUBLIC    XDATA    INT       icm20602_gyro_z
      0001091CH   PUBLIC    XDATA    ---       icm20602_transition_factor
      000000D0H   SFRSYM    DATA     BYTE      PSW
      0000009DH   SFRSYM    DATA     BYTE      IRCBAND
      00000097H   SFRSYM    DATA     BYTE      AUXR2
      000000EFH   SFRSYM    DATA     BYTE      AUXINTIF
      000000FDH   SFRSYM    DATA     BYTE      S4CON
      000000ACH   SFRSYM    DATA     BYTE      S3CON
      0000009AH   SFRSYM    DATA     BYTE      S2CON
      000000B7H   SFRSYM    DATA     BYTE      IPH
      000000CDH   SFRSYM    DATA     BYTE      SPSTAT
      000000DDH   SFRSYM    DATA     BYTE      T4T3M
      000000C1H   SFRSYM    DATA     BYTE      WDT_CONTR
      000000DFH   SFRSYM    DATA     BYTE      IP3
      000000F4H   SFRSYM    DATA     BYTE      USBCON
      000000B5H   SFRSYM    DATA     BYTE      IP2
      000000FFH   SFRSYM    DATA     BYTE      RSTCFG
      000000C7H   SFRSYM    DATA     BYTE      IAP_CONTR
      000000F9H   SFRSYM    DATA     BYTE      LINICR
      0000008EH   SFRSYM    DATA     BYTE      AUXR
      000000AFH   SFRSYM    DATA     BYTE      IE2
      000000C0H.3 SFRSYM    DATA     BIT       P43
      000000C0H.2 SFRSYM    DATA     BIT       P42
      00000088H   SFRSYM    DATA     BYTE      TCON
      00000089H   SFRSYM    DATA     BYTE      TMOD
      000000C0H.1 SFRSYM    DATA     BIT       P41
      00000098H   SFRSYM    DATA     BYTE      SCON
      000000C0H.0 SFRSYM    DATA     BIT       P40
      000000F1H   SFRSYM    DATA     BYTE      CANICR
      00000087H   SFRSYM    DATA     BYTE      PCON
      000000BCH   SFRSYM    DATA     BYTE      ADC_CONTR
      000000E7H   SFRSYM    DATA     BYTE      CMPCR2
      000000E6H   SFRSYM    DATA     BYTE      CMPCR1
      000000DEH   SFRSYM    DATA     BYTE      ADCCFG
      000000B8H   SFRSYM    DATA     BYTE      IP
      0000008FH   SFRSYM    DATA     BYTE      INTCLKO
      000000EEH   SFRSYM    DATA     BYTE      IP3H
      000000B6H   SFRSYM    DATA     BYTE      IP2H
      000000A8H   SFRSYM    DATA     BYTE      IE
      000000BBH   SFRSYM    DATA     BYTE      P_SW3
      000000BAH   SFRSYM    DATA     BYTE      P_SW2
      000000A2H   SFRSYM    DATA     BYTE      P_SW1
      000000CEH   SFRSYM    DATA     BYTE      SPCTL
      000000F8H   SFRSYM    DATA     BYTE      P7
      000000E8H   SFRSYM    DATA     BYTE      P6
      000000C8H   SFRSYM    DATA     BYTE      P5
      000000C0H   SFRSYM    DATA     BYTE      P4
      000000B0H   SFRSYM    DATA     BYTE      P3
      000000A0H   SFRSYM    DATA     BYTE      P2
      00000090H   SFRSYM    DATA     BYTE      P1
      00000080H   SFRSYM    DATA     BYTE      P0
      R7          REGSYM    ---      BYTE      byte
      R6          REGSYM    ---      BYTE      i
L251 LINKER/LOCATER V4.66.93.0                                                        01/24/2026  18:53:03  PAGE 82


      R7          REGSYM    ---      BYTE      cmd
      R15         REGSYM    ---      BYTE      val
      R7          REGSYM    ---      BYTE      cmd
      REG=3       REGSYM    ---      ---       val
      R7          REGSYM    ---      BYTE      cmd
      REG=3       REGSYM    ---      ---       val
      R11         REGSYM    ---      BYTE      reg
      R7          REGSYM    ---      BYTE      dat
      R7          REGSYM    ---      BYTE      reg
      R3          REGSYM    ---      BYTE      reg
      REG=1       REGSYM    ---      ---       dat
      DR28        REGSYM    ---      DWORD     len
      R14         REGSYM    ---      BYTE      dat
      R15         REGSYM    ---      BYTE      return_state
      WR12        REGSYM    ---      WORD      timeout_count
      R14         REGSYM    ---      BYTE      val
      R15         REGSYM    ---      BYTE      return_state
      WR12        REGSYM    ---      WORD      timeout_count

      ---         MODULE    ---      ---       zf_device_imu660ra
      00010924H   PUBLIC    XDATA    INT       imu660ra_acc_x
      00010926H   PUBLIC    XDATA    INT       imu660ra_acc_y
      00010928H   PUBLIC    XDATA    INT       imu660ra_acc_z
      0001092AH   PUBLIC    XDATA    INT       imu660ra_gyro_x
      0001092CH   PUBLIC    XDATA    INT       imu660ra_gyro_y
      0001092EH   PUBLIC    XDATA    INT       imu660ra_gyro_z
      00010930H   PUBLIC    XDATA    ---       imu660ra_transition_factor
      000000D0H   SFRSYM    DATA     BYTE      PSW
      0000009DH   SFRSYM    DATA     BYTE      IRCBAND
      00000097H   SFRSYM    DATA     BYTE      AUXR2
      000000EFH   SFRSYM    DATA     BYTE      AUXINTIF
      000000FDH   SFRSYM    DATA     BYTE      S4CON
      000000ACH   SFRSYM    DATA     BYTE      S3CON
      0000009AH   SFRSYM    DATA     BYTE      S2CON
      000000B7H   SFRSYM    DATA     BYTE      IPH
      000000CDH   SFRSYM    DATA     BYTE      SPSTAT
      000000DDH   SFRSYM    DATA     BYTE      T4T3M
      000000C1H   SFRSYM    DATA     BYTE      WDT_CONTR
      000000DFH   SFRSYM    DATA     BYTE      IP3
      000000F4H   SFRSYM    DATA     BYTE      USBCON
      000000B5H   SFRSYM    DATA     BYTE      IP2
      000000FFH   SFRSYM    DATA     BYTE      RSTCFG
      000000C7H   SFRSYM    DATA     BYTE      IAP_CONTR
      000000F9H   SFRSYM    DATA     BYTE      LINICR
      0000008EH   SFRSYM    DATA     BYTE      AUXR
      000000AFH   SFRSYM    DATA     BYTE      IE2
      000000C0H.3 SFRSYM    DATA     BIT       P43
      000000C0H.2 SFRSYM    DATA     BIT       P42
      00000088H   SFRSYM    DATA     BYTE      TCON
      00000089H   SFRSYM    DATA     BYTE      TMOD
      000000C0H.1 SFRSYM    DATA     BIT       P41
      00000098H   SFRSYM    DATA     BYTE      SCON
      000000C0H.0 SFRSYM    DATA     BIT       P40
      000000F1H   SFRSYM    DATA     BYTE      CANICR
      00000087H   SFRSYM    DATA     BYTE      PCON
      000000BCH   SFRSYM    DATA     BYTE      ADC_CONTR
      000000E7H   SFRSYM    DATA     BYTE      CMPCR2
      000000E6H   SFRSYM    DATA     BYTE      CMPCR1
      000000DEH   SFRSYM    DATA     BYTE      ADCCFG
      000000B8H   SFRSYM    DATA     BYTE      IP
      0000008FH   SFRSYM    DATA     BYTE      INTCLKO
      000000EEH   SFRSYM    DATA     BYTE      IP3H
      000000B6H   SFRSYM    DATA     BYTE      IP2H
      000000A8H   SFRSYM    DATA     BYTE      IE
      000000BBH   SFRSYM    DATA     BYTE      P_SW3
L251 LINKER/LOCATER V4.66.93.0                                                        01/24/2026  18:53:03  PAGE 83


      000000BAH   SFRSYM    DATA     BYTE      P_SW2
      000000A2H   SFRSYM    DATA     BYTE      P_SW1
      000000CEH   SFRSYM    DATA     BYTE      SPCTL
      000000F8H   SFRSYM    DATA     BYTE      P7
      000000E8H   SFRSYM    DATA     BYTE      P6
      000000C8H   SFRSYM    DATA     BYTE      P5
      000000C0H   SFRSYM    DATA     BYTE      P4
      000000B0H   SFRSYM    DATA     BYTE      P3
      000000A0H   SFRSYM    DATA     BYTE      P2
      00000090H   SFRSYM    DATA     BYTE      P1
      00000080H   SFRSYM    DATA     BYTE      P0
      R7          REGSYM    ---      BYTE      byte
      R6          REGSYM    ---      BYTE      i
      R7          REGSYM    ---      BYTE      cmd
      R15         REGSYM    ---      BYTE      val
      R11         REGSYM    ---      BYTE      cmd
      DR12        REGSYM    ---      DWORD     len
      R7          REGSYM    ---      BYTE      cmd
      REG=3       REGSYM    ---      ---       val
      R11         REGSYM    ---      BYTE      reg
      R7          REGSYM    ---      BYTE      dat
      R3          REGSYM    ---      BYTE      reg
      REG=1       REGSYM    ---      ---       dat
      DR28        REGSYM    ---      DWORD     len
      R7          REGSYM    ---      BYTE      reg
      R5          REGSYM    ---      BYTE      reg
      REG=3       REGSYM    ---      ---       dat
      R14         REGSYM    ---      BYTE      dat
      R15         REGSYM    ---      BYTE      return_state
      WR12        REGSYM    ---      WORD      timeout_count
      R15         REGSYM    ---      BYTE      return_state

      ---         MODULE    ---      ---       zf_device_imu660rb
      00FF6D2BH   PUBLIC    CODE     ---       imu660rb_get_gyro
      00FF756AH   PUBLIC    CODE     ---       imu660rb_gyro_transition
      00FF6935H   PUBLIC    CODE     ---       imu660rb_init
      00FF6D7BH   PUBLIC    CODE     ---       imu660rb_get_acc
      00FF757CH   PUBLIC    CODE     ---       imu660rb_acc_transition
      0001096AH   PUBLIC    XDATA    INT       imu660rb_acc_x
      0001096CH   PUBLIC    XDATA    INT       imu660rb_acc_y
      0001096EH   PUBLIC    XDATA    INT       imu660rb_acc_z
      00010970H   PUBLIC    XDATA    INT       imu660rb_gyro_x
      00010972H   PUBLIC    XDATA    INT       imu660rb_gyro_y
      00010974H   PUBLIC    XDATA    INT       imu660rb_gyro_z
      000000D0H   SFRSYM    DATA     BYTE      PSW
      0000009DH   SFRSYM    DATA     BYTE      IRCBAND
      00000097H   SFRSYM    DATA     BYTE      AUXR2
      000000EFH   SFRSYM    DATA     BYTE      AUXINTIF
      000000FDH   SFRSYM    DATA     BYTE      S4CON
      000000ACH   SFRSYM    DATA     BYTE      S3CON
      0000009AH   SFRSYM    DATA     BYTE      S2CON
      000000B7H   SFRSYM    DATA     BYTE      IPH
      000000CDH   SFRSYM    DATA     BYTE      SPSTAT
      000000DDH   SFRSYM    DATA     BYTE      T4T3M
      000000C1H   SFRSYM    DATA     BYTE      WDT_CONTR
      000000DFH   SFRSYM    DATA     BYTE      IP3
      000000F4H   SFRSYM    DATA     BYTE      USBCON
      000000B5H   SFRSYM    DATA     BYTE      IP2
      000000FFH   SFRSYM    DATA     BYTE      RSTCFG
      000000C7H   SFRSYM    DATA     BYTE      IAP_CONTR
      000000F9H   SFRSYM    DATA     BYTE      LINICR
      0000008EH   SFRSYM    DATA     BYTE      AUXR
      000000AFH   SFRSYM    DATA     BYTE      IE2
      000000C0H.3 SFRSYM    DATA     BIT       P43
      000000C0H.2 SFRSYM    DATA     BIT       P42
L251 LINKER/LOCATER V4.66.93.0                                                        01/24/2026  18:53:03  PAGE 84


      00000088H   SFRSYM    DATA     BYTE      TCON
      00000089H   SFRSYM    DATA     BYTE      TMOD
      000000C0H.1 SFRSYM    DATA     BIT       P41
      00000098H   SFRSYM    DATA     BYTE      SCON
      000000C0H.0 SFRSYM    DATA     BIT       P40
      000000F1H   SFRSYM    DATA     BYTE      CANICR
      00000087H   SFRSYM    DATA     BYTE      PCON
      000000BCH   SFRSYM    DATA     BYTE      ADC_CONTR
      000000E7H   SFRSYM    DATA     BYTE      CMPCR2
      000000E6H   SFRSYM    DATA     BYTE      CMPCR1
      000000DEH   SFRSYM    DATA     BYTE      ADCCFG
      000000B8H   SFRSYM    DATA     BYTE      IP
      0000008FH   SFRSYM    DATA     BYTE      INTCLKO
      000000EEH   SFRSYM    DATA     BYTE      IP3H
      000000B6H   SFRSYM    DATA     BYTE      IP2H
      000000A8H   SFRSYM    DATA     BYTE      IE
      000000BBH   SFRSYM    DATA     BYTE      P_SW3
      000000BAH   SFRSYM    DATA     BYTE      P_SW2
      000000A2H   SFRSYM    DATA     BYTE      P_SW1
      000000CEH   SFRSYM    DATA     BYTE      SPCTL
      000000F8H   SFRSYM    DATA     BYTE      P7
      000000E8H   SFRSYM    DATA     BYTE      P6
      000000C8H   SFRSYM    DATA     BYTE      P5
      000000C0H   SFRSYM    DATA     BYTE      P4
      000000B0H   SFRSYM    DATA     BYTE      P3
      000000A0H   SFRSYM    DATA     BYTE      P2
      00000090H   SFRSYM    DATA     BYTE      P1
      00000080H   SFRSYM    DATA     BYTE      P0
      00FF752EH   SYMBOL    CODE     ---       imu660rb_read_register
      00FF0003H   SYMBOL    CODE     ---       imu660rb_write_register
      00FF74F5H   SYMBOL    CODE     ---       imu660rb_simspi_wr_byte
      00FF738AH   SYMBOL    CODE     ---       imu660rb_self_check
      00FF6F2AH   SYMBOL    CODE     ---       imu660rb_simspi_r_reg_bytes
      00FF0046H   SYMBOL    CODE     ---       imu660rb_simspi_r_reg_byte
      00FF759EH   SYMBOL    CODE     ---       imu660rb_simspi_w_reg_byte
      00FF758EH   SYMBOL    CODE     ---       imu660rb_read_registers

      00FF74F5H   BLOCK     CODE     ---       LVL=0
      R7          REGSYM    ---      BYTE      byte
      00FF74F7H   BLOCK     CODE     NEAR LAB  LVL=1
      R6          REGSYM    ---      BYTE      i
      ---         BLOCKEND  ---      ---       LVL=1
      00FF74F5H   LINE      CODE     ---       #152
      00FF74F7H   LINE      CODE     ---       #153
      00FF74F7H   LINE      CODE     ---       #155
      00FF74F9H   LINE      CODE     ---       #157
      00FF74FBH   LINE      CODE     ---       #158
      00FF7500H   LINE      CODE     ---       #159
      00FF7502H   LINE      CODE     ---       #160
      00FF7504H   LINE      CODE     ---       #161
      00FF750AH   LINE      CODE     ---       #162
      00FF7511H   LINE      CODE     ---       #163
      00FF7513H   LINE      CODE     ---       #164
      00FF7515H   LINE      CODE     ---       #165
      ---         BLOCKEND  ---      ---       LVL=0

      00FF759EH   BLOCK     CODE     ---       LVL=0
      R7          REGSYM    ---      BYTE      cmd
      R15         REGSYM    ---      BYTE      val
      00FF759EH   LINE      CODE     ---       #174
      00FF75A2H   LINE      CODE     ---       #176
      00FF75A2H   LINE      CODE     ---       #177
      00FF75A5H   LINE      CODE     ---       #178
      00FF75AAH   LINE      CODE     ---       #179
      ---         BLOCKEND  ---      ---       LVL=0
L251 LINKER/LOCATER V4.66.93.0                                                        01/24/2026  18:53:03  PAGE 85



      00FF0046H   BLOCK     CODE     ---       LVL=0
      R7          REGSYM    ---      BYTE      cmd
      REG=3       REGSYM    ---      ---       val
      00FF0046H   LINE      CODE     ---       #188
      00FF004CH   LINE      CODE     ---       #190
      00FF004EH   LINE      CODE     ---       #191
      00FF0051H   LINE      CODE     ---       #192
      00FF0056H   LINE      CODE     ---       #193
      00FF005DH   LINE      CODE     ---       #194
      00FF005FH   LINE      CODE     ---       #195
      ---         BLOCKEND  ---      ---       LVL=0

      00FF6F2AH   BLOCK     CODE     ---       LVL=0
      R7          REGSYM    ---      BYTE      cmd
      REG=3       REGSYM    ---      ---       val
      00010641H   SYMBOL    XDATA    DWORD     num
      00FF6F2AH   LINE      CODE     ---       #223
      00FF6F3AH   LINE      CODE     ---       #225
      00FF6F3DH   LINE      CODE     ---       #226
      00FF6F42H   LINE      CODE     ---       #227
      00FF6F44H   LINE      CODE     ---       #229
      00FF6F4DH   LINE      CODE     ---       #230
      00FF6F66H   LINE      CODE     ---       #231
      ---         BLOCKEND  ---      ---       LVL=0

      00FF0003H   BLOCK     CODE     ---       LVL=0
      R11         REGSYM    ---      BYTE      reg
      R7          REGSYM    ---      BYTE      dat
      00FF0003H   LINE      CODE     ---       #241
      00FF0003H   LINE      CODE     ---       #243
      00FF0005H   LINE      CODE     ---       #244
      00FF0008H   LINE      CODE     ---       #245
      00FF000AH   LINE      CODE     ---       #246
      ---         BLOCKEND  ---      ---       LVL=0

      00FF752EH   BLOCK     CODE     ---       LVL=0
      R7          REGSYM    ---      BYTE      reg
      0001063BH   SYMBOL    XDATA    BYTE      dat
      00FF752EH   LINE      CODE     ---       #255
      00FF752EH   LINE      CODE     ---       #256
      00FF752EH   LINE      CODE     ---       #258
      00FF7530H   LINE      CODE     ---       #259
      00FF753DH   LINE      CODE     ---       #260
      00FF753FH   LINE      CODE     ---       #261
      00FF7543H   LINE      CODE     ---       #262
      ---         BLOCKEND  ---      ---       LVL=0

      00FF758EH   BLOCK     CODE     ---       LVL=0
      R3          REGSYM    ---      BYTE      reg
      REG=1       REGSYM    ---      ---       dat
      DR28        REGSYM    ---      DWORD     len
      00FF758EH   LINE      CODE     ---       #273
      00FF7592H   LINE      CODE     ---       #275
      00FF7594H   LINE      CODE     ---       #276
      00FF759BH   LINE      CODE     ---       #277
      00FF759DH   LINE      CODE     ---       #278
      ---         BLOCKEND  ---      ---       LVL=0

      00FF738AH   BLOCK     CODE     ---       LVL=0
      00FF738CH   BLOCK     CODE     NEAR LAB  LVL=1
      R14         REGSYM    ---      BYTE      dat
      R15         REGSYM    ---      BYTE      return_state
      WR12        REGSYM    ---      WORD      timeout_count
      ---         BLOCKEND  ---      ---       LVL=1
L251 LINKER/LOCATER V4.66.93.0                                                        01/24/2026  18:53:03  PAGE 86


      00FF738AH   LINE      CODE     ---       #300
      00FF738CH   LINE      CODE     ---       #301
      00FF738CH   LINE      CODE     ---       #302
      00FF738EH   LINE      CODE     ---       #303
      00FF7390H   LINE      CODE     ---       #304
      00FF7390H   LINE      CODE     ---       #306
      00FF739AH   LINE      CODE     ---       #308
      00FF739DH   LINE      CODE     ---       #309
      00FF739FH   LINE      CODE     ---       #310
      00FF739FH   LINE      CODE     ---       #311
      00FF73A6H   LINE      CODE     ---       #312
      00FF73ADH   LINE      CODE     ---       #313
      00FF73B2H   LINE      CODE     ---       #314
      00FF73B4H   LINE      CODE     ---       #315
      ---         BLOCKEND  ---      ---       LVL=0

      00FF6D7BH   BLOCK     CODE     ---       LVL=0
      0001063BH   SYMBOL    XDATA    ---       dat
      00FF6D7BH   LINE      CODE     ---       #325
      00FF6D7BH   LINE      CODE     ---       #326
      00FF6D7BH   LINE      CODE     ---       #329
      00FF6D8CH   LINE      CODE     ---       #330
      00FF6DA2H   LINE      CODE     ---       #331
      00FF6DB6H   LINE      CODE     ---       #332
      00FF6DCAH   LINE      CODE     ---       #333
      ---         BLOCKEND  ---      ---       LVL=0

      00FF6D2BH   BLOCK     CODE     ---       LVL=0
      0001063BH   SYMBOL    XDATA    ---       dat
      00FF6D2BH   LINE      CODE     ---       #342
      00FF6D2BH   LINE      CODE     ---       #343
      00FF6D2BH   LINE      CODE     ---       #346
      00FF6D3CH   LINE      CODE     ---       #347
      00FF6D52H   LINE      CODE     ---       #348
      00FF6D66H   LINE      CODE     ---       #349
      00FF6D7AH   LINE      CODE     ---       #350
      ---         BLOCKEND  ---      ---       LVL=0

      00FF757CH   BLOCK     CODE     ---       LVL=0
      WR8         REGSYM    ---      INT       acc_value
      DR4         REGSYM    ---      FLOAT     acc_data
      00FF757CH   LINE      CODE     ---       #359
      00FF757CH   LINE      CODE     ---       #360
      00FF757CH   LINE      CODE     ---       #361
      00FF757CH   LINE      CODE     ---       #362
      00FF757CH   LINE      CODE     ---       #364
      00FF757CH   LINE      CODE     ---       #365
      00FF757CH   LINE      CODE     ---       #366
      00FF758EH   LINE      CODE     ---       #367
      00FF758EH   LINE      CODE     ---       #368
      00FF758EH   LINE      CODE     ---       #369
      00FF758EH   LINE      CODE     ---       #370
      00FF758EH   LINE      CODE     ---       #371
      ---         BLOCKEND  ---      ---       LVL=0

      00FF756AH   BLOCK     CODE     ---       LVL=0
      WR8         REGSYM    ---      INT       gyro_value
      DR4         REGSYM    ---      FLOAT     gyro_data
      00FF756AH   LINE      CODE     ---       #380
      00FF756AH   LINE      CODE     ---       #381
      00FF756AH   LINE      CODE     ---       #382
      00FF756AH   LINE      CODE     ---       #383
      00FF756AH   LINE      CODE     ---       #385
      00FF756AH   LINE      CODE     ---       #386
      00FF756AH   LINE      CODE     ---       #387
L251 LINKER/LOCATER V4.66.93.0                                                        01/24/2026  18:53:03  PAGE 87


      00FF756AH   LINE      CODE     ---       #388
      00FF756AH   LINE      CODE     ---       #389
      00FF757CH   LINE      CODE     ---       #390
      00FF757CH   LINE      CODE     ---       #391
      00FF757CH   LINE      CODE     ---       #392
      00FF757CH   LINE      CODE     ---       #393
      00FF757CH   LINE      CODE     ---       #394
      ---         BLOCKEND  ---      ---       LVL=0

      00FF6935H   BLOCK     CODE     ---       LVL=0
      00FF6937H   BLOCK     CODE     NEAR LAB  LVL=1
      R15         REGSYM    ---      BYTE      return_state
      ---         BLOCKEND  ---      ---       LVL=1
      00FF6935H   LINE      CODE     ---       #403
      00FF6937H   LINE      CODE     ---       #404
      00FF6937H   LINE      CODE     ---       #405
      00FF6939H   LINE      CODE     ---       #406
      00FF6940H   LINE      CODE     ---       #426
      00FF6940H   LINE      CODE     ---       #427
      00FF6945H   LINE      CODE     ---       #432
      00FF6950H   LINE      CODE     ---       #433
      00FF6953H   LINE      CODE     ---       #434
      00FF6955H   LINE      CODE     ---       #435
      00FF6955H   LINE      CODE     ---       #437
      00FF695DH   LINE      CODE     ---       #438
      00FF6965H   LINE      CODE     ---       #445
      00FF696DH   LINE      CODE     ---       #454
      00FF6975H   LINE      CODE     ---       #455
      00FF697DH   LINE      CODE     ---       #456
      00FF6984H   LINE      CODE     ---       #457
      00FF698BH   LINE      CODE     ---       #458
      00FF6992H   LINE      CODE     ---       #459
      00FF699AH   LINE      CODE     ---       #461
      00FF699AH   LINE      CODE     ---       #462
      00FF699CH   LINE      CODE     ---       #463
      ---         BLOCKEND  ---      ---       LVL=0

      ---         MODULE    ---      ---       zf_device_imu963ra
      000108DAH   PUBLIC    XDATA    INT       imu963ra_acc_x
      000108DCH   PUBLIC    XDATA    INT       imu963ra_acc_y
      000108DEH   PUBLIC    XDATA    INT       imu963ra_acc_z
      000108E0H   PUBLIC    XDATA    INT       imu963ra_mag_x
      000108E2H   PUBLIC    XDATA    INT       imu963ra_mag_y
      000108E4H   PUBLIC    XDATA    INT       imu963ra_mag_z
      000108E6H   PUBLIC    XDATA    INT       imu963ra_gyro_x
      000108E8H   PUBLIC    XDATA    INT       imu963ra_gyro_y
      000108EAH   PUBLIC    XDATA    INT       imu963ra_gyro_z
      000108ECH   PUBLIC    XDATA    ---       imu963ra_transition_factor
      000000D0H   SFRSYM    DATA     BYTE      PSW
      0000009DH   SFRSYM    DATA     BYTE      IRCBAND
      00000097H   SFRSYM    DATA     BYTE      AUXR2
      000000EFH   SFRSYM    DATA     BYTE      AUXINTIF
      000000FDH   SFRSYM    DATA     BYTE      S4CON
      000000ACH   SFRSYM    DATA     BYTE      S3CON
      0000009AH   SFRSYM    DATA     BYTE      S2CON
      000000B7H   SFRSYM    DATA     BYTE      IPH
      000000CDH   SFRSYM    DATA     BYTE      SPSTAT
      000000DDH   SFRSYM    DATA     BYTE      T4T3M
      000000C1H   SFRSYM    DATA     BYTE      WDT_CONTR
      000000DFH   SFRSYM    DATA     BYTE      IP3
      000000F4H   SFRSYM    DATA     BYTE      USBCON
      000000B5H   SFRSYM    DATA     BYTE      IP2
      000000FFH   SFRSYM    DATA     BYTE      RSTCFG
      000000C7H   SFRSYM    DATA     BYTE      IAP_CONTR
      000000F9H   SFRSYM    DATA     BYTE      LINICR
L251 LINKER/LOCATER V4.66.93.0                                                        01/24/2026  18:53:03  PAGE 88


      0000008EH   SFRSYM    DATA     BYTE      AUXR
      000000AFH   SFRSYM    DATA     BYTE      IE2
      000000C0H.3 SFRSYM    DATA     BIT       P43
      000000C0H.2 SFRSYM    DATA     BIT       P42
      00000088H   SFRSYM    DATA     BYTE      TCON
      00000089H   SFRSYM    DATA     BYTE      TMOD
      000000C0H.1 SFRSYM    DATA     BIT       P41
      00000098H   SFRSYM    DATA     BYTE      SCON
      000000C0H.0 SFRSYM    DATA     BIT       P40
      000000F1H   SFRSYM    DATA     BYTE      CANICR
      00000087H   SFRSYM    DATA     BYTE      PCON
      000000BCH   SFRSYM    DATA     BYTE      ADC_CONTR
      000000E7H   SFRSYM    DATA     BYTE      CMPCR2
      000000E6H   SFRSYM    DATA     BYTE      CMPCR1
      000000DEH   SFRSYM    DATA     BYTE      ADCCFG
      000000B8H   SFRSYM    DATA     BYTE      IP
      0000008FH   SFRSYM    DATA     BYTE      INTCLKO
      000000EEH   SFRSYM    DATA     BYTE      IP3H
      000000B6H   SFRSYM    DATA     BYTE      IP2H
      000000A8H   SFRSYM    DATA     BYTE      IE
      000000BBH   SFRSYM    DATA     BYTE      P_SW3
      000000BAH   SFRSYM    DATA     BYTE      P_SW2
      000000A2H   SFRSYM    DATA     BYTE      P_SW1
      000000CEH   SFRSYM    DATA     BYTE      SPCTL
      000000F8H   SFRSYM    DATA     BYTE      P7
      000000E8H   SFRSYM    DATA     BYTE      P6
      000000C8H   SFRSYM    DATA     BYTE      P5
      000000C0H   SFRSYM    DATA     BYTE      P4
      000000B0H   SFRSYM    DATA     BYTE      P3
      000000A0H   SFRSYM    DATA     BYTE      P2
      00000090H   SFRSYM    DATA     BYTE      P1
      00000080H   SFRSYM    DATA     BYTE      P0
      R7          REGSYM    ---      BYTE      byte
      R6          REGSYM    ---      BYTE      i
      R7          REGSYM    ---      BYTE      cmd
      R15         REGSYM    ---      BYTE      val
      R7          REGSYM    ---      BYTE      cmd
      REG=3       REGSYM    ---      ---       val
      R7          REGSYM    ---      BYTE      cmd
      REG=3       REGSYM    ---      ---       val
      R11         REGSYM    ---      BYTE      reg
      R7          REGSYM    ---      BYTE      dat
      R10         REGSYM    ---      BYTE      reg
      R3          REGSYM    ---      BYTE      reg
      REG=1       REGSYM    ---      ---       dat
      DR28        REGSYM    ---      DWORD     len
      R15         REGSYM    ---      BYTE      addr
      R13         REGSYM    ---      BYTE      reg
      R14         REGSYM    ---      BYTE      dat
      R12         REGSYM    ---      BYTE      return_state
      R10         REGSYM    ---      BYTE      addr
      R15         REGSYM    ---      BYTE      reg
      WR12        REGSYM    ---      WORD      timeout_count
      R10         REGSYM    ---      BYTE      addr
      R15         REGSYM    ---      BYTE      reg
      R15         REGSYM    ---      BYTE      return_state
      R14         REGSYM    ---      BYTE      dat
      WR12        REGSYM    ---      WORD      timeout_count
      R15         REGSYM    ---      BYTE      return_state
      R14         REGSYM    ---      BYTE      dat
      WR12        REGSYM    ---      WORD      timeout_count
      R11         REGSYM    ---      BYTE      temp_status
      R15         REGSYM    ---      BYTE      return_state

      ---         MODULE    ---      ---       zf_device_ips114
L251 LINKER/LOCATER V4.66.93.0                                                        01/24/2026  18:53:03  PAGE 89


      000109A7H   PUBLIC    XDATA    WORD      ips114_pencolor
      000109A9H   PUBLIC    XDATA    WORD      ips114_bgcolor
      000109ABH   PUBLIC    XDATA    INT       ips114_display_dir
      000109ADH   PUBLIC    XDATA    BYTE      ips114_x_max
      000109AEH   PUBLIC    XDATA    BYTE      ips114_y_max
      000000D0H   SFRSYM    DATA     BYTE      PSW
      0000009DH   SFRSYM    DATA     BYTE      IRCBAND
      00000097H   SFRSYM    DATA     BYTE      AUXR2
      000000EFH   SFRSYM    DATA     BYTE      AUXINTIF
      000000FDH   SFRSYM    DATA     BYTE      S4CON
      000000ACH   SFRSYM    DATA     BYTE      S3CON
      0000009AH   SFRSYM    DATA     BYTE      S2CON
      000000B7H   SFRSYM    DATA     BYTE      IPH
      000000CDH   SFRSYM    DATA     BYTE      SPSTAT
      000000DDH   SFRSYM    DATA     BYTE      T4T3M
      000000C1H   SFRSYM    DATA     BYTE      WDT_CONTR
      000000DFH   SFRSYM    DATA     BYTE      IP3
      000000F4H   SFRSYM    DATA     BYTE      USBCON
      000000B5H   SFRSYM    DATA     BYTE      IP2
      000000FFH   SFRSYM    DATA     BYTE      RSTCFG
      000000C7H   SFRSYM    DATA     BYTE      IAP_CONTR
      000000F9H   SFRSYM    DATA     BYTE      LINICR
      0000008EH   SFRSYM    DATA     BYTE      AUXR
      000000AFH   SFRSYM    DATA     BYTE      IE2
      00000088H   SFRSYM    DATA     BYTE      TCON
      00000089H   SFRSYM    DATA     BYTE      TMOD
      00000098H   SFRSYM    DATA     BYTE      SCON
      000000A0H.2 SFRSYM    DATA     BIT       P22
      000000A0H.1 SFRSYM    DATA     BIT       P21
      000000A0H.0 SFRSYM    DATA     BIT       P20
      000000F1H   SFRSYM    DATA     BYTE      CANICR
      00000087H   SFRSYM    DATA     BYTE      PCON
      000000BCH   SFRSYM    DATA     BYTE      ADC_CONTR
      000000E7H   SFRSYM    DATA     BYTE      CMPCR2
      000000E6H   SFRSYM    DATA     BYTE      CMPCR1
      000000DEH   SFRSYM    DATA     BYTE      ADCCFG
      000000B8H   SFRSYM    DATA     BYTE      IP
      0000008FH   SFRSYM    DATA     BYTE      INTCLKO
      000000EEH   SFRSYM    DATA     BYTE      IP3H
      000000B6H   SFRSYM    DATA     BYTE      IP2H
      000000A8H   SFRSYM    DATA     BYTE      IE
      000000BBH   SFRSYM    DATA     BYTE      P_SW3
      000000BAH   SFRSYM    DATA     BYTE      P_SW2
      000000A2H   SFRSYM    DATA     BYTE      P_SW1
      000000CEH   SFRSYM    DATA     BYTE      SPCTL
      000000F8H   SFRSYM    DATA     BYTE      P7
      000000E8H   SFRSYM    DATA     BYTE      P6
      000000C8H   SFRSYM    DATA     BYTE      P5
      000000C0H   SFRSYM    DATA     BYTE      P4
      000000B0H   SFRSYM    DATA     BYTE      P3
      000000A0H   SFRSYM    DATA     BYTE      P2
      00000090H   SFRSYM    DATA     BYTE      P1
      00000080H   SFRSYM    DATA     BYTE      P0
      R5          REGSYM    ---      BYTE      dat
      WR12        REGSYM    ---      WORD      x2
      WR14        REGSYM    ---      WORD      y2
      WR14        REGSYM    ---      WORD      color
      WR12        REGSYM    ---      WORD      i
      WR6         REGSYM    ---      INT       dir
      WR6         REGSYM    ---      WORD      pen
      WR4         REGSYM    ---      WORD      bgcolor
      WR12        REGSYM    ---      WORD      x
      WR14        REGSYM    ---      WORD      y
      WR12        REGSYM    ---      WORD      x
      WR14        REGSYM    ---      WORD      y
L251 LINKER/LOCATER V4.66.93.0                                                        01/24/2026  18:53:03  PAGE 90


      REG=3       REGSYM    ---      ---       dat
      WR12        REGSYM    ---      WORD      x
      WR14        REGSYM    ---      WORD      y
      WR12        REGSYM    ---      WORD      x
      WR14        REGSYM    ---      WORD      y
      WR12        REGSYM    ---      WORD      x
      WR14        REGSYM    ---      WORD      y
      WR12        REGSYM    ---      WORD      x
      WR14        REGSYM    ---      WORD      y
      WR12        REGSYM    ---      WORD      y
      R15         REGSYM    ---      BYTE      num
      R14         REGSYM    ---      BYTE      length
      DR12        REGSYM    ---      FLOAT     dat
      R10         REGSYM    ---      CHAR      point
      REG=3       REGSYM    ---      ---       p
      REG=3       REGSYM    ---      ---       p

      ---         MODULE    ---      ---       zf_device_ips200
      00010982H   PUBLIC    XDATA    WORD      ips200_pencolor
      00010984H   PUBLIC    XDATA    WORD      ips200_bgcolor
      00010986H   PUBLIC    XDATA    INT       ips200_display_dir
      00010988H   PUBLIC    XDATA    WORD      ips200_x_max
      0001098AH   PUBLIC    XDATA    WORD      ips200_y_max
      000000D0H   SFRSYM    DATA     BYTE      PSW
      0000009DH   SFRSYM    DATA     BYTE      IRCBAND
      00000097H   SFRSYM    DATA     BYTE      AUXR2
      000000EFH   SFRSYM    DATA     BYTE      AUXINTIF
      000000FDH   SFRSYM    DATA     BYTE      S4CON
      000000ACH   SFRSYM    DATA     BYTE      S3CON
      0000009AH   SFRSYM    DATA     BYTE      S2CON
      000000B7H   SFRSYM    DATA     BYTE      IPH
      000000CDH   SFRSYM    DATA     BYTE      SPSTAT
      000000DDH   SFRSYM    DATA     BYTE      T4T3M
      000000C1H   SFRSYM    DATA     BYTE      WDT_CONTR
      000000DFH   SFRSYM    DATA     BYTE      IP3
      000000F4H   SFRSYM    DATA     BYTE      USBCON
      000000B5H   SFRSYM    DATA     BYTE      IP2
      000000FFH   SFRSYM    DATA     BYTE      RSTCFG
      000000C7H   SFRSYM    DATA     BYTE      IAP_CONTR
      000000F9H   SFRSYM    DATA     BYTE      LINICR
      0000008EH   SFRSYM    DATA     BYTE      AUXR
      000000AFH   SFRSYM    DATA     BYTE      IE2
      00000088H   SFRSYM    DATA     BYTE      TCON
      00000089H   SFRSYM    DATA     BYTE      TMOD
      00000098H   SFRSYM    DATA     BYTE      SCON
      000000A0H.2 SFRSYM    DATA     BIT       P22
      000000A0H.1 SFRSYM    DATA     BIT       P21
      000000A0H.0 SFRSYM    DATA     BIT       P20
      000000F1H   SFRSYM    DATA     BYTE      CANICR
      00000087H   SFRSYM    DATA     BYTE      PCON
      000000BCH   SFRSYM    DATA     BYTE      ADC_CONTR
      000000E7H   SFRSYM    DATA     BYTE      CMPCR2
      000000E6H   SFRSYM    DATA     BYTE      CMPCR1
      000000DEH   SFRSYM    DATA     BYTE      ADCCFG
      000000B8H   SFRSYM    DATA     BYTE      IP
      0000008FH   SFRSYM    DATA     BYTE      INTCLKO
      000000EEH   SFRSYM    DATA     BYTE      IP3H
      000000B6H   SFRSYM    DATA     BYTE      IP2H
      000000A8H   SFRSYM    DATA     BYTE      IE
      000000BBH   SFRSYM    DATA     BYTE      P_SW3
      000000BAH   SFRSYM    DATA     BYTE      P_SW2
      000000A2H   SFRSYM    DATA     BYTE      P_SW1
      000000CEH   SFRSYM    DATA     BYTE      SPCTL
      000000F8H   SFRSYM    DATA     BYTE      P7
      000000E8H   SFRSYM    DATA     BYTE      P6
L251 LINKER/LOCATER V4.66.93.0                                                        01/24/2026  18:53:03  PAGE 91


      000000C8H   SFRSYM    DATA     BYTE      P5
      000000C0H   SFRSYM    DATA     BYTE      P4
      000000B0H   SFRSYM    DATA     BYTE      P3
      000000A0H   SFRSYM    DATA     BYTE      P2
      00000090H   SFRSYM    DATA     BYTE      P1
      00000080H   SFRSYM    DATA     BYTE      P0
      R5          REGSYM    ---      BYTE      dat
      WR12        REGSYM    ---      WORD      x2
      WR14        REGSYM    ---      WORD      y2
      WR14        REGSYM    ---      WORD      color
      WR12        REGSYM    ---      WORD      i
      WR6         REGSYM    ---      INT       dir
      WR6         REGSYM    ---      WORD      pen
      WR4         REGSYM    ---      WORD      bgcolor
      WR12        REGSYM    ---      WORD      x
      WR14        REGSYM    ---      WORD      y
      WR12        REGSYM    ---      WORD      x
      WR14        REGSYM    ---      WORD      y
      REG=3       REGSYM    ---      ---       dat
      WR12        REGSYM    ---      WORD      x
      WR14        REGSYM    ---      WORD      y
      WR12        REGSYM    ---      WORD      x
      WR14        REGSYM    ---      WORD      y
      WR12        REGSYM    ---      WORD      x
      WR14        REGSYM    ---      WORD      y
      WR12        REGSYM    ---      WORD      x
      WR14        REGSYM    ---      WORD      y
      WR12        REGSYM    ---      WORD      y
      R15         REGSYM    ---      BYTE      num
      R14         REGSYM    ---      BYTE      length
      DR12        REGSYM    ---      FLOAT     dat
      R10         REGSYM    ---      CHAR      point
      REG=3       REGSYM    ---      ---       p
      REG=3       REGSYM    ---      ---       p

      ---         MODULE    ---      ---       zf_device_ips200pro
      00010806H   PUBLIC    XDATA    ---       ips200pro_information
      0001080FH   PUBLIC    XDATA    ---       ips200pro_time
      000000D0H   SFRSYM    DATA     BYTE      PSW
      0000009DH   SFRSYM    DATA     BYTE      IRCBAND
      00000097H   SFRSYM    DATA     BYTE      AUXR2
      000000EFH   SFRSYM    DATA     BYTE      AUXINTIF
      000000FDH   SFRSYM    DATA     BYTE      S4CON
      000000ACH   SFRSYM    DATA     BYTE      S3CON
      0000009AH   SFRSYM    DATA     BYTE      S2CON
      000000B7H   SFRSYM    DATA     BYTE      IPH
      000000CDH   SFRSYM    DATA     BYTE      SPSTAT
      000000DDH   SFRSYM    DATA     BYTE      T4T3M
      000000C1H   SFRSYM    DATA     BYTE      WDT_CONTR
      000000DFH   SFRSYM    DATA     BYTE      IP3
      000000F4H   SFRSYM    DATA     BYTE      USBCON
      000000B5H   SFRSYM    DATA     BYTE      IP2
      000000FFH   SFRSYM    DATA     BYTE      RSTCFG
      000000C7H   SFRSYM    DATA     BYTE      IAP_CONTR
      000000F9H   SFRSYM    DATA     BYTE      LINICR
      0000008EH   SFRSYM    DATA     BYTE      AUXR
      000000AFH   SFRSYM    DATA     BYTE      IE2
      00000088H   SFRSYM    DATA     BYTE      TCON
      00000089H   SFRSYM    DATA     BYTE      TMOD
      00000098H   SFRSYM    DATA     BYTE      SCON
      000000F1H   SFRSYM    DATA     BYTE      CANICR
      00000087H   SFRSYM    DATA     BYTE      PCON
      000000BCH   SFRSYM    DATA     BYTE      ADC_CONTR
      000000E7H   SFRSYM    DATA     BYTE      CMPCR2
      000000E6H   SFRSYM    DATA     BYTE      CMPCR1
L251 LINKER/LOCATER V4.66.93.0                                                        01/24/2026  18:53:03  PAGE 92


      000000DEH   SFRSYM    DATA     BYTE      ADCCFG
      000000B8H   SFRSYM    DATA     BYTE      IP
      0000008FH   SFRSYM    DATA     BYTE      INTCLKO
      000000EEH   SFRSYM    DATA     BYTE      IP3H
      000000B6H   SFRSYM    DATA     BYTE      IP2H
      000000A8H   SFRSYM    DATA     BYTE      IE
      000000BBH   SFRSYM    DATA     BYTE      P_SW3
      000000BAH   SFRSYM    DATA     BYTE      P_SW2
      000000A2H   SFRSYM    DATA     BYTE      P_SW1
      000000CEH   SFRSYM    DATA     BYTE      SPCTL
      000000F8H   SFRSYM    DATA     BYTE      P7
      000000E8H   SFRSYM    DATA     BYTE      P6
      000000C8H   SFRSYM    DATA     BYTE      P5
      000000C0H   SFRSYM    DATA     BYTE      P4
      000000B0H   SFRSYM    DATA     BYTE      P3
      000000A0H   SFRSYM    DATA     BYTE      P2
      00000090H   SFRSYM    DATA     BYTE      P1
      00000080H   SFRSYM    DATA     BYTE      P0
      000107D3H   SYMBOL    XDATA    ---       ips200pro_printf_buffer
      00010817H   SYMBOL    XDATA    BYTE      ips200pro_page_num
      DR12        REGSYM    ---      DWORD     wait_time
      DR12        REGSYM    ---      DWORD     length
      REG=3       REGSYM    ---      ---       buffer
      WR2         REGSYM    ---      INT       command1
      WR0         REGSYM    ---      INT       command2
      R10         REGSYM    ---      BYTE      widgets_id
      REG=7       REGSYM    ---      ---       temp
      REG=6       REGSYM    ---      ---       p
      R3          REGSYM    ---      BYTE      tmp
      WR8         REGSYM    ---      WORD      i
      WR6         REGSYM    ---      INT       command2
      REG=3       REGSYM    ---      ---       temp
      R11         REGSYM    ---      BYTE      return_state
      WR6         REGSYM    ---      WORD      year
      R11         REGSYM    ---      BYTE      month
      R10         REGSYM    ---      BYTE      day
      R11         REGSYM    ---      BYTE      return_state
      R6          REGSYM    ---      BYTE      hour
      R7          REGSYM    ---      BYTE      minute
      R10         REGSYM    ---      BYTE      second
      R11         REGSYM    ---      BYTE      return_state
      WR6         REGSYM    ---      WORD      child_id
      WR4         REGSYM    ---      WORD      parent_id
      R11         REGSYM    ---      BYTE      return_state
      WR6         REGSYM    ---      INT       format
      R11         REGSYM    ---      BYTE      return_state
      R7          REGSYM    ---      BYTE      backlight
      R11         REGSYM    ---      BYTE      return_state
      WR6         REGSYM    ---      INT       dir
      R11         REGSYM    ---      BYTE      return_state
      R7          REGSYM    ---      BYTE      crc_state
      R11         REGSYM    ---      BYTE      return_state
      WR6         REGSYM    ---      INT       font
      R11         REGSYM    ---      BYTE      return_state
      R7          REGSYM    ---      BYTE      state
      R11         REGSYM    ---      BYTE      return_state
      REG=3       REGSYM    ---      ---       time
      REG=3       REGSYM    ---      ---       time
      REG=3       REGSYM    ---      ---       information
      REG=3       REGSYM    ---      ---       stack_size
      R11         REGSYM    ---      BYTE      return_state
      WR2         REGSYM    ---      WORD      widgets_id
      WR4         REGSYM    ---      INT       x
      WR8         REGSYM    ---      INT       y
      WR0         REGSYM    ---      WORD      width
L251 LINKER/LOCATER V4.66.93.0                                                        01/24/2026  18:53:03  PAGE 93


      R15         REGSYM    ---      BYTE      return_state
      WR2         REGSYM    ---      WORD      widgets_id
      R11         REGSYM    ---      BYTE      return_state
      WR2         REGSYM    ---      WORD      widgets_id
      WR4         REGSYM    ---      INT       font_size
      R11         REGSYM    ---      BYTE      return_state
      WR2         REGSYM    ---      WORD      widgets_id
      WR4         REGSYM    ---      INT       color_type
      WR0         REGSYM    ---      WORD      color
      R11         REGSYM    ---      BYTE      return_state
      WR2         REGSYM    ---      WORD      widgets_id
      WR4         REGSYM    ---      INT       x
      WR0         REGSYM    ---      INT       y
      R11         REGSYM    ---      BYTE      return_state
      WR2         REGSYM    ---      WORD      widgets_id
      R5          REGSYM    ---      BYTE      state
      R11         REGSYM    ---      BYTE      return_state
      REG=3       REGSYM    ---      ---       str
      WR2         REGSYM    ---      WORD      page_id
      WR4         REGSYM    ---      INT       anim_en
      R11         REGSYM    ---      BYTE      return_state
      WR4         REGSYM    ---      WORD      page_id
      R3          REGSYM    ---      BYTE      state
      R11         REGSYM    ---      BYTE      return_state
      REG=3       REGSYM    ---      ---       str
      R11         REGSYM    ---      BYTE      return_state
      WR6         REGSYM    ---      INT       title_position
      R5          REGSYM    ---      BYTE      title_width
      R11         REGSYM    ---      BYTE      return_state
      WR4         REGSYM    ---      INT       x
      WR2         REGSYM    ---      INT       y
      WR8         REGSYM    ---      WORD      width
      WR0         REGSYM    ---      WORD      height
      R15         REGSYM    ---      BYTE      return_state
      00010818H   SYMBOL    XDATA    BYTE      lebel_num
      WR14        REGSYM    ---      WORD      label_id
      DR4         REGSYM    ---      LONG      str_length
      R13         REGSYM    ---      BYTE      return_state
      REG=1       REGSYM    ---      ---       arg
      REG=3       REGSYM    ---      ---       str
      R11         REGSYM    ---      BYTE      return_state
      WR2         REGSYM    ---      WORD      label_id
      WR4         REGSYM    ---      INT       mode
      R11         REGSYM    ---      BYTE      return_state
      WR4         REGSYM    ---      INT       x
      WR2         REGSYM    ---      INT       y
      WR8         REGSYM    ---      WORD      row_num
      WR0         REGSYM    ---      WORD      col_num
      R15         REGSYM    ---      BYTE      return_state
      00010819H   SYMBOL    XDATA    BYTE      table_num
      WR12        REGSYM    ---      WORD      table_id
      R14         REGSYM    ---      BYTE      row
      R15         REGSYM    ---      BYTE      col
      REG=1       REGSYM    ---      ---       arg
      WR0         REGSYM    ---      WORD      table_id
      R3          REGSYM    ---      BYTE      col
      WR4         REGSYM    ---      WORD      width
      R11         REGSYM    ---      BYTE      return_state
      WR8         REGSYM    ---      WORD      table_id
      R11         REGSYM    ---      BYTE      row
      R10         REGSYM    ---      BYTE      col
      R11         REGSYM    ---      BYTE      return_state
      WR4         REGSYM    ---      INT       x
      WR2         REGSYM    ---      INT       y
      WR8         REGSYM    ---      WORD      siz
L251 LINKER/LOCATER V4.66.93.0                                                        01/24/2026  18:53:03  PAGE 94


      WR0         REGSYM    ---      INT       style
      R15         REGSYM    ---      BYTE      return_state
      0001081AH   SYMBOL    XDATA    BYTE      meter_num
      WR2         REGSYM    ---      WORD      meter_id
      WR4         REGSYM    ---      INT       value
      R11         REGSYM    ---      BYTE      return_state
      WR4         REGSYM    ---      INT       x
      WR2         REGSYM    ---      INT       y
      WR8         REGSYM    ---      WORD      clock_size
      WR0         REGSYM    ---      INT       clock_type
      R15         REGSYM    ---      BYTE      return_state
      0001081BH   SYMBOL    XDATA    BYTE      clock_num
      WR4         REGSYM    ---      INT       x
      WR2         REGSYM    ---      INT       y
      WR8         REGSYM    ---      WORD      width
      WR0         REGSYM    ---      WORD      height
      R15         REGSYM    ---      BYTE      return_state
      0001081CH   SYMBOL    XDATA    BYTE      progress_bar_num
      WR8         REGSYM    ---      WORD      progress_bar_id
      R11         REGSYM    ---      BYTE      start_value
      R10         REGSYM    ---      BYTE      end_value
      R11         REGSYM    ---      BYTE      return_state
      WR4         REGSYM    ---      INT       x
      WR2         REGSYM    ---      INT       y
      WR10        REGSYM    ---      WORD      width
      WR0         REGSYM    ---      WORD      height
      R11         REGSYM    ---      BYTE      return_state
      WR6         REGSYM    ---      WORD      year
      R3          REGSYM    ---      BYTE      month
      WR4         REGSYM    ---      INT       mode
      R11         REGSYM    ---      BYTE      return_state
      WR4         REGSYM    ---      INT       x
      WR2         REGSYM    ---      INT       y
      WR8         REGSYM    ---      WORD      width
      WR0         REGSYM    ---      WORD      height
      R15         REGSYM    ---      BYTE      return_state
      0001081DH   SYMBOL    XDATA    BYTE      waveform_num
      WR10        REGSYM    ---      WORD      waveform_id
      R5          REGSYM    ---      BYTE      line_id
      REG=7       REGSYM    ---      ---       dat
      WR8         REGSYM    ---      WORD      length
      R11         REGSYM    ---      BYTE      return_state
      WR6         REGSYM    ---      WORD      i
      WR0         REGSYM    ---      WORD      waveform_id
      WR4         REGSYM    ---      WORD      line_id
      WR2         REGSYM    ---      WORD      line_state
      R11         REGSYM    ---      BYTE      return_state
      WR2         REGSYM    ---      WORD      waveform_id
      R5          REGSYM    ---      BYTE      line_type
      R11         REGSYM    ---      BYTE      return_state
      WR2         REGSYM    ---      WORD      waveform_id
      R11         REGSYM    ---      BYTE      return_state
      WR4         REGSYM    ---      INT       x
      WR2         REGSYM    ---      INT       y
      WR8         REGSYM    ---      WORD      width
      WR0         REGSYM    ---      WORD      height
      R15         REGSYM    ---      BYTE      return_state
      0001081EH   SYMBOL    XDATA    BYTE      image_num
      WR14        REGSYM    ---      WORD      image_id
      REG=0       REGSYM    ---      ---       image
      WR8         REGSYM    ---      WORD      width
      R10         REGSYM    ---      BYTE      threshold
      R13         REGSYM    ---      BYTE      return_state
      WR30        REGSYM    ---      WORD      image_id
      R10         REGSYM    ---      BYTE      line_id
L251 LINKER/LOCATER V4.66.93.0                                                        01/24/2026  18:53:03  PAGE 95


      REG=0       REGSYM    ---      ---       line_data
      WR8         REGSYM    ---      WORD      line_length
      R15         REGSYM    ---      BYTE      return_state
      WR8         REGSYM    ---      WORD      image_id
      R10         REGSYM    ---      BYTE      rectangle_id
      WR4         REGSYM    ---      INT       x
      WR2         REGSYM    ---      INT       y
      WR0         REGSYM    ---      WORD      rectangle_width
      R15         REGSYM    ---      BYTE      return_state
      WR4         REGSYM    ---      INT       x
      WR2         REGSYM    ---      INT       y
      WR8         REGSYM    ---      WORD      width
      WR0         REGSYM    ---      WORD      height
      R15         REGSYM    ---      BYTE      return_state
      0001081FH   SYMBOL    XDATA    BYTE      container_num
      WR0         REGSYM    ---      WORD      container_id
      WR4         REGSYM    ---      WORD      border_width
      WR2         REGSYM    ---      WORD      radius
      R11         REGSYM    ---      BYTE      return_state
      REG=3       REGSYM    ---      ---       str

      ---         MODULE    ---      ---       zf_device_tft180
      000109AFH   PUBLIC    XDATA    WORD      tft180_pencolor
      000109B1H   PUBLIC    XDATA    WORD      tft180_bgcolor
      000109B3H   PUBLIC    XDATA    INT       tft180_display_dir
      000109B5H   PUBLIC    XDATA    BYTE      tft180_x_max
      000109B6H   PUBLIC    XDATA    BYTE      tft180_y_max
      000000D0H   SFRSYM    DATA     BYTE      PSW
      0000009DH   SFRSYM    DATA     BYTE      IRCBAND
      00000097H   SFRSYM    DATA     BYTE      AUXR2
      000000EFH   SFRSYM    DATA     BYTE      AUXINTIF
      000000FDH   SFRSYM    DATA     BYTE      S4CON
      000000ACH   SFRSYM    DATA     BYTE      S3CON
      0000009AH   SFRSYM    DATA     BYTE      S2CON
      000000B7H   SFRSYM    DATA     BYTE      IPH
      000000CDH   SFRSYM    DATA     BYTE      SPSTAT
      000000DDH   SFRSYM    DATA     BYTE      T4T3M
      000000C1H   SFRSYM    DATA     BYTE      WDT_CONTR
      000000DFH   SFRSYM    DATA     BYTE      IP3
      000000F4H   SFRSYM    DATA     BYTE      USBCON
      000000B5H   SFRSYM    DATA     BYTE      IP2
      000000FFH   SFRSYM    DATA     BYTE      RSTCFG
      000000C7H   SFRSYM    DATA     BYTE      IAP_CONTR
      000000F9H   SFRSYM    DATA     BYTE      LINICR
      0000008EH   SFRSYM    DATA     BYTE      AUXR
      000000AFH   SFRSYM    DATA     BYTE      IE2
      00000088H   SFRSYM    DATA     BYTE      TCON
      00000089H   SFRSYM    DATA     BYTE      TMOD
      00000098H   SFRSYM    DATA     BYTE      SCON
      000000A0H.2 SFRSYM    DATA     BIT       P22
      000000A0H.1 SFRSYM    DATA     BIT       P21
      000000A0H.0 SFRSYM    DATA     BIT       P20
      000000F1H   SFRSYM    DATA     BYTE      CANICR
      00000087H   SFRSYM    DATA     BYTE      PCON
      000000BCH   SFRSYM    DATA     BYTE      ADC_CONTR
      000000E7H   SFRSYM    DATA     BYTE      CMPCR2
      000000E6H   SFRSYM    DATA     BYTE      CMPCR1
      000000DEH   SFRSYM    DATA     BYTE      ADCCFG
      000000B8H   SFRSYM    DATA     BYTE      IP
      0000008FH   SFRSYM    DATA     BYTE      INTCLKO
      000000EEH   SFRSYM    DATA     BYTE      IP3H
      000000B6H   SFRSYM    DATA     BYTE      IP2H
      000000A8H   SFRSYM    DATA     BYTE      IE
      000000BBH   SFRSYM    DATA     BYTE      P_SW3
      000000BAH   SFRSYM    DATA     BYTE      P_SW2
L251 LINKER/LOCATER V4.66.93.0                                                        01/24/2026  18:53:03  PAGE 96


      000000A2H   SFRSYM    DATA     BYTE      P_SW1
      000000CEH   SFRSYM    DATA     BYTE      SPCTL
      000000F8H   SFRSYM    DATA     BYTE      P7
      000000E8H   SFRSYM    DATA     BYTE      P6
      000000C8H   SFRSYM    DATA     BYTE      P5
      000000C0H   SFRSYM    DATA     BYTE      P4
      000000B0H   SFRSYM    DATA     BYTE      P3
      000000A0H   SFRSYM    DATA     BYTE      P2
      00000090H   SFRSYM    DATA     BYTE      P1
      00000080H   SFRSYM    DATA     BYTE      P0
      R5          REGSYM    ---      BYTE      dat
      WR12        REGSYM    ---      WORD      x2
      WR14        REGSYM    ---      WORD      y2
      WR14        REGSYM    ---      WORD      color
      WR6         REGSYM    ---      INT       dir
      WR6         REGSYM    ---      WORD      pen
      WR4         REGSYM    ---      WORD      bgcolor
      WR12        REGSYM    ---      WORD      x
      WR14        REGSYM    ---      WORD      y
      WR12        REGSYM    ---      WORD      x
      WR14        REGSYM    ---      WORD      y
      REG=3       REGSYM    ---      ---       dat
      WR12        REGSYM    ---      WORD      x
      WR14        REGSYM    ---      WORD      y
      WR12        REGSYM    ---      WORD      x
      WR14        REGSYM    ---      WORD      y
      WR12        REGSYM    ---      WORD      x
      WR14        REGSYM    ---      WORD      y
      WR12        REGSYM    ---      WORD      x
      WR14        REGSYM    ---      WORD      y
      WR12        REGSYM    ---      WORD      y
      R15         REGSYM    ---      BYTE      num
      R14         REGSYM    ---      BYTE      length
      DR12        REGSYM    ---      FLOAT     dat
      R10         REGSYM    ---      CHAR      point
      REG=3       REGSYM    ---      ---       p

      ---         MODULE    ---      ---       zf_device_tsl1401
      00010000H   PUBLIC    XDATA    BYTE      tsl1401_finish_flag
      00010001H   PUBLIC    XDATA    ---       tsl1401_data
      000000D0H   SFRSYM    DATA     BYTE      PSW
      0000009DH   SFRSYM    DATA     BYTE      IRCBAND
      00000097H   SFRSYM    DATA     BYTE      AUXR2
      000000EFH   SFRSYM    DATA     BYTE      AUXINTIF
      000000FDH   SFRSYM    DATA     BYTE      S4CON
      000000ACH   SFRSYM    DATA     BYTE      S3CON
      0000009AH   SFRSYM    DATA     BYTE      S2CON
      000000B7H   SFRSYM    DATA     BYTE      IPH
      000000CDH   SFRSYM    DATA     BYTE      SPSTAT
      000000DDH   SFRSYM    DATA     BYTE      T4T3M
      000000C1H   SFRSYM    DATA     BYTE      WDT_CONTR
      000000DFH   SFRSYM    DATA     BYTE      IP3
      000000F4H   SFRSYM    DATA     BYTE      USBCON
      000000B5H   SFRSYM    DATA     BYTE      IP2
      000000FFH   SFRSYM    DATA     BYTE      RSTCFG
      000000C7H   SFRSYM    DATA     BYTE      IAP_CONTR
      000000F9H   SFRSYM    DATA     BYTE      LINICR
      0000008EH   SFRSYM    DATA     BYTE      AUXR
      000000AFH   SFRSYM    DATA     BYTE      IE2
      00000088H   SFRSYM    DATA     BYTE      TCON
      00000089H   SFRSYM    DATA     BYTE      TMOD
      00000098H   SFRSYM    DATA     BYTE      SCON
      000000F1H   SFRSYM    DATA     BYTE      CANICR
      00000087H   SFRSYM    DATA     BYTE      PCON
      000000BCH   SFRSYM    DATA     BYTE      ADC_CONTR
L251 LINKER/LOCATER V4.66.93.0                                                        01/24/2026  18:53:03  PAGE 97


      000000E7H   SFRSYM    DATA     BYTE      CMPCR2
      000000E6H   SFRSYM    DATA     BYTE      CMPCR1
      000000DEH   SFRSYM    DATA     BYTE      ADCCFG
      000000B8H   SFRSYM    DATA     BYTE      IP
      0000008FH   SFRSYM    DATA     BYTE      INTCLKO
      000000EEH   SFRSYM    DATA     BYTE      IP3H
      000000B6H   SFRSYM    DATA     BYTE      IP2H
      000000A8H   SFRSYM    DATA     BYTE      IE
      000000BBH   SFRSYM    DATA     BYTE      P_SW3
      000000BAH   SFRSYM    DATA     BYTE      P_SW2
      000000A2H   SFRSYM    DATA     BYTE      P_SW1
      000000CEH   SFRSYM    DATA     BYTE      SPCTL
      000000F8H   SFRSYM    DATA     BYTE      P7
      000000E8H   SFRSYM    DATA     BYTE      P6
      000000C8H   SFRSYM    DATA     BYTE      P5
      000000C0H   SFRSYM    DATA     BYTE      P4
      000000B0H   SFRSYM    DATA     BYTE      P3
      000000A0H   SFRSYM    DATA     BYTE      P2
      00000090H   SFRSYM    DATA     BYTE      P1
      00000080H   SFRSYM    DATA     BYTE      P0
      00010201H   SYMBOL    XDATA    BYTE      tsl1401_init_state
      R15         REGSYM    ---      BYTE      i
      WR14        REGSYM    ---      INT       uart_n
      R13         REGSYM    ---      BYTE      index
      R12         REGSYM    ---      BYTE      i

      ---         MODULE    ---      ---       zf_device_type
      000109B7H   PUBLIC    XDATA    ---       tof_module_exti_handler
      000109B9H   PUBLIC    XDATA    INT       wireless_type
      000109BBH   PUBLIC    XDATA    INT       tof_type
      000109BDH   PUBLIC    XDATA    INT       gps_type
      000000D0H   SFRSYM    DATA     BYTE      PSW
      0000009DH   SFRSYM    DATA     BYTE      IRCBAND
      00000097H   SFRSYM    DATA     BYTE      AUXR2
      000000EFH   SFRSYM    DATA     BYTE      AUXINTIF
      000000FDH   SFRSYM    DATA     BYTE      S4CON
      000000ACH   SFRSYM    DATA     BYTE      S3CON
      0000009AH   SFRSYM    DATA     BYTE      S2CON
      000000B7H   SFRSYM    DATA     BYTE      IPH
      000000CDH   SFRSYM    DATA     BYTE      SPSTAT
      000000DDH   SFRSYM    DATA     BYTE      T4T3M
      000000C1H   SFRSYM    DATA     BYTE      WDT_CONTR
      000000DFH   SFRSYM    DATA     BYTE      IP3
      000000F4H   SFRSYM    DATA     BYTE      USBCON
      000000B5H   SFRSYM    DATA     BYTE      IP2
      000000FFH   SFRSYM    DATA     BYTE      RSTCFG
      000000C7H   SFRSYM    DATA     BYTE      IAP_CONTR
      000000F9H   SFRSYM    DATA     BYTE      LINICR
      0000008EH   SFRSYM    DATA     BYTE      AUXR
      000000AFH   SFRSYM    DATA     BYTE      IE2
      00000088H   SFRSYM    DATA     BYTE      TCON
      00000089H   SFRSYM    DATA     BYTE      TMOD
      00000098H   SFRSYM    DATA     BYTE      SCON
      000000F1H   SFRSYM    DATA     BYTE      CANICR
      00000087H   SFRSYM    DATA     BYTE      PCON
      000000BCH   SFRSYM    DATA     BYTE      ADC_CONTR
      000000E7H   SFRSYM    DATA     BYTE      CMPCR2
      000000E6H   SFRSYM    DATA     BYTE      CMPCR1
      000000DEH   SFRSYM    DATA     BYTE      ADCCFG
      000000B8H   SFRSYM    DATA     BYTE      IP
      0000008FH   SFRSYM    DATA     BYTE      INTCLKO
      000000EEH   SFRSYM    DATA     BYTE      IP3H
      000000B6H   SFRSYM    DATA     BYTE      IP2H
      000000A8H   SFRSYM    DATA     BYTE      IE
      000000BBH   SFRSYM    DATA     BYTE      P_SW3
L251 LINKER/LOCATER V4.66.93.0                                                        01/24/2026  18:53:03  PAGE 98


      000000BAH   SFRSYM    DATA     BYTE      P_SW2
      000000A2H   SFRSYM    DATA     BYTE      P_SW1
      000000CEH   SFRSYM    DATA     BYTE      SPCTL
      000000F8H   SFRSYM    DATA     BYTE      P7
      000000E8H   SFRSYM    DATA     BYTE      P6
      000000C8H   SFRSYM    DATA     BYTE      P5
      000000C0H   SFRSYM    DATA     BYTE      P4
      000000B0H   SFRSYM    DATA     BYTE      P3
      000000A0H   SFRSYM    DATA     BYTE      P2
      00000090H   SFRSYM    DATA     BYTE      P1
      00000080H   SFRSYM    DATA     BYTE      P0
      WR6         REGSYM    ---      INT       type_set
      WR4         REGSYM    ---      INT       uartx
      REG=0       REGSYM    ---      ---       uart_callback
      WR6         REGSYM    ---      INT       type_set
      REG=0       REGSYM    ---      ---       exti_callback
      WR6         REGSYM    ---      INT       type_set
      WR4         REGSYM    ---      INT       uartx
      REG=0       REGSYM    ---      ---       uart_callback

      ---         MODULE    ---      ---       zf_device_wireless_uart
      000000D0H   SFRSYM    DATA     BYTE      PSW
      0000009DH   SFRSYM    DATA     BYTE      IRCBAND
      00000097H   SFRSYM    DATA     BYTE      AUXR2
      000000EFH   SFRSYM    DATA     BYTE      AUXINTIF
      000000FDH   SFRSYM    DATA     BYTE      S4CON
      000000ACH   SFRSYM    DATA     BYTE      S3CON
      0000009AH   SFRSYM    DATA     BYTE      S2CON
      000000B7H   SFRSYM    DATA     BYTE      IPH
      000000CDH   SFRSYM    DATA     BYTE      SPSTAT
      000000DDH   SFRSYM    DATA     BYTE      T4T3M
      000000C1H   SFRSYM    DATA     BYTE      WDT_CONTR
      000000DFH   SFRSYM    DATA     BYTE      IP3
      000000F4H   SFRSYM    DATA     BYTE      USBCON
      000000B5H   SFRSYM    DATA     BYTE      IP2
      000000FFH   SFRSYM    DATA     BYTE      RSTCFG
      000000C7H   SFRSYM    DATA     BYTE      IAP_CONTR
      000000F9H   SFRSYM    DATA     BYTE      LINICR
      0000008EH   SFRSYM    DATA     BYTE      AUXR
      000000AFH   SFRSYM    DATA     BYTE      IE2
      00000088H   SFRSYM    DATA     BYTE      TCON
      00000089H   SFRSYM    DATA     BYTE      TMOD
      00000098H   SFRSYM    DATA     BYTE      SCON
      000000F1H   SFRSYM    DATA     BYTE      CANICR
      00000087H   SFRSYM    DATA     BYTE      PCON
      000000BCH   SFRSYM    DATA     BYTE      ADC_CONTR
      000000E7H   SFRSYM    DATA     BYTE      CMPCR2
      000000E6H   SFRSYM    DATA     BYTE      CMPCR1
      000000DEH   SFRSYM    DATA     BYTE      ADCCFG
      000000B8H   SFRSYM    DATA     BYTE      IP
      0000008FH   SFRSYM    DATA     BYTE      INTCLKO
      000000EEH   SFRSYM    DATA     BYTE      IP3H
      000000B6H   SFRSYM    DATA     BYTE      IP2H
      000000A8H   SFRSYM    DATA     BYTE      IE
      000000BBH   SFRSYM    DATA     BYTE      P_SW3
      000000BAH   SFRSYM    DATA     BYTE      P_SW2
      000000A2H   SFRSYM    DATA     BYTE      P_SW1
      000000CEH   SFRSYM    DATA     BYTE      SPCTL
      000000F8H   SFRSYM    DATA     BYTE      P7
      000000E8H   SFRSYM    DATA     BYTE      P6
      000000C8H   SFRSYM    DATA     BYTE      P5
      000000C0H   SFRSYM    DATA     BYTE      P4
      000000B0H   SFRSYM    DATA     BYTE      P3
      000000A0H   SFRSYM    DATA     BYTE      P2
      00000090H   SFRSYM    DATA     BYTE      P1
L251 LINKER/LOCATER V4.66.93.0                                                        01/24/2026  18:53:03  PAGE 99


      00000080H   SFRSYM    DATA     BYTE      P0
      0001077CH   SYMBOL    XDATA    ---       wireless_uart_fifo
      00010793H   SYMBOL    XDATA    ---       wireless_uart_buffer
      R15         REGSYM    ---      BYTE      dat
      WR12        REGSYM    ---      WORD      time_cnt
      DR12        REGSYM    ---      DWORD     len
      REG=3       REGSYM    ---      ---       str
      REG=3       REGSYM    ---      ---       buff
      DR4         REGSYM    ---      DWORD     len

      ---         MODULE    ---      ---       seekfree_assistant
      000103D2H   PUBLIC    XDATA    ---       seekfree_assistant_oscilloscope_data
      0001040DH   PUBLIC    XDATA    ---       seekfree_assistant_parameter_update_flag
      00010415H   PUBLIC    XDATA    ---       seekfree_assistant_parameter
      000000D0H   SFRSYM    DATA     BYTE      PSW
      0000009DH   SFRSYM    DATA     BYTE      IRCBAND
      00000097H   SFRSYM    DATA     BYTE      AUXR2
      000000EFH   SFRSYM    DATA     BYTE      AUXINTIF
      000000FDH   SFRSYM    DATA     BYTE      S4CON
      000000ACH   SFRSYM    DATA     BYTE      S3CON
      0000009AH   SFRSYM    DATA     BYTE      S2CON
      000000B7H   SFRSYM    DATA     BYTE      IPH
      000000CDH   SFRSYM    DATA     BYTE      SPSTAT
      000000DDH   SFRSYM    DATA     BYTE      T4T3M
      000000C1H   SFRSYM    DATA     BYTE      WDT_CONTR
      000000DFH   SFRSYM    DATA     BYTE      IP3
      000000F4H   SFRSYM    DATA     BYTE      USBCON
      000000B5H   SFRSYM    DATA     BYTE      IP2
      000000FFH   SFRSYM    DATA     BYTE      RSTCFG
      000000C7H   SFRSYM    DATA     BYTE      IAP_CONTR
      000000F9H   SFRSYM    DATA     BYTE      LINICR
      0000008EH   SFRSYM    DATA     BYTE      AUXR
      000000AFH   SFRSYM    DATA     BYTE      IE2
      00000088H   SFRSYM    DATA     BYTE      TCON
      00000089H   SFRSYM    DATA     BYTE      TMOD
      00000098H   SFRSYM    DATA     BYTE      SCON
      000000F1H   SFRSYM    DATA     BYTE      CANICR
      00000087H   SFRSYM    DATA     BYTE      PCON
      000000BCH   SFRSYM    DATA     BYTE      ADC_CONTR
      000000E7H   SFRSYM    DATA     BYTE      CMPCR2
      000000E6H   SFRSYM    DATA     BYTE      CMPCR1
      000000DEH   SFRSYM    DATA     BYTE      ADCCFG
      000000B8H   SFRSYM    DATA     BYTE      IP
      0000008FH   SFRSYM    DATA     BYTE      INTCLKO
      000000EEH   SFRSYM    DATA     BYTE      IP3H
      000000B6H   SFRSYM    DATA     BYTE      IP2H
      000000A8H   SFRSYM    DATA     BYTE      IE
      000000BBH   SFRSYM    DATA     BYTE      P_SW3
      000000BAH   SFRSYM    DATA     BYTE      P_SW2
      000000A2H   SFRSYM    DATA     BYTE      P_SW1
      000000CEH   SFRSYM    DATA     BYTE      SPCTL
      000000F8H   SFRSYM    DATA     BYTE      P7
      000000A8H.7 SFRSYM    DATA     BIT       EA
      000000E8H   SFRSYM    DATA     BYTE      P6
      000000C8H   SFRSYM    DATA     BYTE      P5
      000000C0H   SFRSYM    DATA     BYTE      P4
      000000B0H   SFRSYM    DATA     BYTE      P3
      000000A0H   SFRSYM    DATA     BYTE      P2
      00000090H   SFRSYM    DATA     BYTE      P1
      00000080H   SFRSYM    DATA     BYTE      P0
      000103CAH   SYMBOL    XDATA    ---       seekfree_assistant_camera_dot_data
      000103F6H   SYMBOL    XDATA    ---       seekfree_assistant_fifo
      00010435H   SYMBOL    XDATA    ---       seekfree_assistant_camera_buffer
      0001047FH   SYMBOL    XDATA    ---       seekfree_assistant_camera_data
      00010487H   SYMBOL    XDATA    ---       seekfree_assistant_buffer
L251 LINKER/LOCATER V4.66.93.0                                                        01/24/2026  18:53:03  PAGE 100


      00FF7F9EH   SYMBOL    HCONST   ---       ?tpl?0001
      00FF7FC2H   SYMBOL    HCONST   ---       ?tpl?0002
      REG=6       REGSYM    ---      ---       buffer
      DR28        REGSYM    ---      DWORD     length
      R11         REGSYM    ---      BYTE      temp_sum
      WR12        REGSYM    ---      INT       camera_type
      R9          REGSYM    ---      BYTE      boundary_num
      WR14        REGSYM    ---      WORD      width
      WR6         REGSYM    ---      INT       camera_type
      REG=0       REGSYM    ---      ---       image_addr
      WR4         REGSYM    ---      WORD      width
      REG=7       REGSYM    ---      ---       seekfree_assistant_oscilloscope
      R15         REGSYM    ---      BYTE      packet_size
      R15         REGSYM    ---      BYTE      i
      REG=3       REGSYM    ---      ---       buffer
      WR8         REGSYM    ---      INT       boundary_type
      WR2         REGSYM    ---      WORD      dot_num
      REG=7       REGSYM    ---      ---       dot_x1
      R4          REGSYM    ---      BYTE      i
      R7          REGSYM    ---      BYTE      boundary_num
      R5          REGSYM    ---      BYTE      boundary_data_type
      REG=3       REGSYM    ---      ---       receive_packet

      ---         MODULE    ---      ---       seekfree_assistant_interface
      000109CDH   PUBLIC    XDATA    ---       seekfree_assistant_receive_callback
      000109CFH   PUBLIC    XDATA    ---       seekfree_assistant_transfer_callback
      000000D0H   SFRSYM    DATA     BYTE      PSW
      0000009DH   SFRSYM    DATA     BYTE      IRCBAND
      00000097H   SFRSYM    DATA     BYTE      AUXR2
      000000EFH   SFRSYM    DATA     BYTE      AUXINTIF
      000000FDH   SFRSYM    DATA     BYTE      S4CON
      000000ACH   SFRSYM    DATA     BYTE      S3CON
      0000009AH   SFRSYM    DATA     BYTE      S2CON
      000000B7H   SFRSYM    DATA     BYTE      IPH
      000000CDH   SFRSYM    DATA     BYTE      SPSTAT
      000000DDH   SFRSYM    DATA     BYTE      T4T3M
      000000C1H   SFRSYM    DATA     BYTE      WDT_CONTR
      000000DFH   SFRSYM    DATA     BYTE      IP3
      000000F4H   SFRSYM    DATA     BYTE      USBCON
      000000B5H   SFRSYM    DATA     BYTE      IP2
      000000FFH   SFRSYM    DATA     BYTE      RSTCFG
      000000C7H   SFRSYM    DATA     BYTE      IAP_CONTR
      000000F9H   SFRSYM    DATA     BYTE      LINICR
      0000008EH   SFRSYM    DATA     BYTE      AUXR
      000000AFH   SFRSYM    DATA     BYTE      IE2
      00000088H   SFRSYM    DATA     BYTE      TCON
      00000089H   SFRSYM    DATA     BYTE      TMOD
      00000098H   SFRSYM    DATA     BYTE      SCON
      000000F1H   SFRSYM    DATA     BYTE      CANICR
      00000087H   SFRSYM    DATA     BYTE      PCON
      000000BCH   SFRSYM    DATA     BYTE      ADC_CONTR
      000000E7H   SFRSYM    DATA     BYTE      CMPCR2
      000000E6H   SFRSYM    DATA     BYTE      CMPCR1
      000000DEH   SFRSYM    DATA     BYTE      ADCCFG
      000000B8H   SFRSYM    DATA     BYTE      IP
      0000008FH   SFRSYM    DATA     BYTE      INTCLKO
      000000EEH   SFRSYM    DATA     BYTE      IP3H
      000000B6H   SFRSYM    DATA     BYTE      IP2H
      000000A8H   SFRSYM    DATA     BYTE      IE
      000000BBH   SFRSYM    DATA     BYTE      P_SW3
      000000BAH   SFRSYM    DATA     BYTE      P_SW2
      000000A2H   SFRSYM    DATA     BYTE      P_SW1
      000000CEH   SFRSYM    DATA     BYTE      SPCTL
      000000F8H   SFRSYM    DATA     BYTE      P7
      000000E8H   SFRSYM    DATA     BYTE      P6
L251 LINKER/LOCATER V4.66.93.0                                                        01/24/2026  18:53:03  PAGE 101


      000000C8H   SFRSYM    DATA     BYTE      P5
      000000C0H   SFRSYM    DATA     BYTE      P4
      000000B0H   SFRSYM    DATA     BYTE      P3
      000000A0H   SFRSYM    DATA     BYTE      P2
      00000090H   SFRSYM    DATA     BYTE      P1
      00000080H   SFRSYM    DATA     BYTE      P0
      WR6         REGSYM    ---      INT       transfer_device

      ---         MODULE    ---      ---       motor
      00FF6779H   PUBLIC    CODE     ---       Motor_Init
      00FF745EH   PUBLIC    CODE     ---       Motor_RightBackward
      00FF7485H   PUBLIC    CODE     ---       Motor_LeftBackward
      00FF740EH   PUBLIC    CODE     ---       Motor_RightForward
      00FF7436H   PUBLIC    CODE     ---       Motor_LeftForward
      000000D0H   SFRSYM    DATA     BYTE      PSW
      0000009DH   SFRSYM    DATA     BYTE      IRCBAND
      00000097H   SFRSYM    DATA     BYTE      AUXR2
      000000EFH   SFRSYM    DATA     BYTE      AUXINTIF
      000000FDH   SFRSYM    DATA     BYTE      S4CON
      000000ACH   SFRSYM    DATA     BYTE      S3CON
      0000009AH   SFRSYM    DATA     BYTE      S2CON
      000000B7H   SFRSYM    DATA     BYTE      IPH
      000000CDH   SFRSYM    DATA     BYTE      SPSTAT
      000000DDH   SFRSYM    DATA     BYTE      T4T3M
      000000C1H   SFRSYM    DATA     BYTE      WDT_CONTR
      000000DFH   SFRSYM    DATA     BYTE      IP3
      000000F4H   SFRSYM    DATA     BYTE      USBCON
      000000B5H   SFRSYM    DATA     BYTE      IP2
      000000FFH   SFRSYM    DATA     BYTE      RSTCFG
      000000C7H   SFRSYM    DATA     BYTE      IAP_CONTR
      000000F9H   SFRSYM    DATA     BYTE      LINICR
      0000008EH   SFRSYM    DATA     BYTE      AUXR
      000000AFH   SFRSYM    DATA     BYTE      IE2
      00000088H   SFRSYM    DATA     BYTE      TCON
      00000089H   SFRSYM    DATA     BYTE      TMOD
      00000098H   SFRSYM    DATA     BYTE      SCON
      000000F1H   SFRSYM    DATA     BYTE      CANICR
      00000087H   SFRSYM    DATA     BYTE      PCON
      000000BCH   SFRSYM    DATA     BYTE      ADC_CONTR
      000000E7H   SFRSYM    DATA     BYTE      CMPCR2
      000000E6H   SFRSYM    DATA     BYTE      CMPCR1
      000000DEH   SFRSYM    DATA     BYTE      ADCCFG
      000000B8H   SFRSYM    DATA     BYTE      IP
      0000008FH   SFRSYM    DATA     BYTE      INTCLKO
      000000EEH   SFRSYM    DATA     BYTE      IP3H
      000000B6H   SFRSYM    DATA     BYTE      IP2H
      000000A8H   SFRSYM    DATA     BYTE      IE
      000000BBH   SFRSYM    DATA     BYTE      P_SW3
      000000BAH   SFRSYM    DATA     BYTE      P_SW2
      000000A2H   SFRSYM    DATA     BYTE      P_SW1
      000000CEH   SFRSYM    DATA     BYTE      SPCTL
      000000F8H   SFRSYM    DATA     BYTE      P7
      000000E8H   SFRSYM    DATA     BYTE      P6
      000000C8H   SFRSYM    DATA     BYTE      P5
      000000C0H   SFRSYM    DATA     BYTE      P4
      000000B0H   SFRSYM    DATA     BYTE      P3
      000000A0H   SFRSYM    DATA     BYTE      P2
      00000090H   SFRSYM    DATA     BYTE      P1
      00000080H   SFRSYM    DATA     BYTE      P0
      000109DAH   SYMBOL    XDATA    CHAR      dir
      000109DBH   SYMBOL    XDATA    CHAR      duty

      00FF6779H   BLOCK     CODE     ---       LVL=0
      00FF6779H   LINE      CODE     ---       #34
      00FF6779H   LINE      CODE     ---       #37
L251 LINKER/LOCATER V4.66.93.0                                                        01/24/2026  18:53:03  PAGE 102


      00FF6789H   LINE      CODE     ---       #38
      00FF67A0H   LINE      CODE     ---       #41
      00FF67B0H   LINE      CODE     ---       #42
      00FF67C7H   LINE      CODE     ---       #45
      00FF67D7H   LINE      CODE     ---       #46
      ---         BLOCKEND  ---      ---       LVL=0

      00FF7436H   BLOCK     CODE     ---       LVL=0
      R15         REGSYM    ---      BYTE      pwm
      00FF7436H   LINE      CODE     ---       #109
      00FF743AH   LINE      CODE     ---       #111
      00FF7443H   LINE      CODE     ---       #112
      00FF745BH   LINE      CODE     ---       #113
      ---         BLOCKEND  ---      ---       LVL=0

      00FF740EH   BLOCK     CODE     ---       LVL=0
      R15         REGSYM    ---      BYTE      pwm
      00FF740EH   LINE      CODE     ---       #121
      00FF7412H   LINE      CODE     ---       #123
      00FF741BH   LINE      CODE     ---       #124
      00FF7433H   LINE      CODE     ---       #125
      ---         BLOCKEND  ---      ---       LVL=0

      00FF7485H   BLOCK     CODE     ---       LVL=0
      R15         REGSYM    ---      BYTE      pwm
      00FF7485H   LINE      CODE     ---       #133
      00FF7489H   LINE      CODE     ---       #135
      00FF7491H   LINE      CODE     ---       #136
      00FF74A9H   LINE      CODE     ---       #137
      ---         BLOCKEND  ---      ---       LVL=0

      00FF745EH   BLOCK     CODE     ---       LVL=0
      R15         REGSYM    ---      BYTE      pwm
      00FF745EH   LINE      CODE     ---       #145
      00FF7462H   LINE      CODE     ---       #147
      00FF746AH   LINE      CODE     ---       #148
      00FF7482H   LINE      CODE     ---       #149
      ---         BLOCKEND  ---      ---       LVL=0
      R15         REGSYM    ---      BYTE      pwm

      ---         MODULE    ---      ---       key
      00FF7118H   PUBLIC    CODE     ---       key_init
      000109D1H   PUBLIC    XDATA    BYTE      key_up
      000109D2H   PUBLIC    XDATA    BYTE      key_down
      000109D3H   PUBLIC    XDATA    BYTE      key_old
      000109D4H   PUBLIC    XDATA    BYTE      key_val
      000000D0H   SFRSYM    DATA     BYTE      PSW
      0000009DH   SFRSYM    DATA     BYTE      IRCBAND
      00000097H   SFRSYM    DATA     BYTE      AUXR2
      000000EFH   SFRSYM    DATA     BYTE      AUXINTIF
      000000FDH   SFRSYM    DATA     BYTE      S4CON
      000000ACH   SFRSYM    DATA     BYTE      S3CON
      0000009AH   SFRSYM    DATA     BYTE      S2CON
      000000B7H   SFRSYM    DATA     BYTE      IPH
      000000CDH   SFRSYM    DATA     BYTE      SPSTAT
      000000DDH   SFRSYM    DATA     BYTE      T4T3M
      000000C1H   SFRSYM    DATA     BYTE      WDT_CONTR
      000000DFH   SFRSYM    DATA     BYTE      IP3
      000000F4H   SFRSYM    DATA     BYTE      USBCON
      000000B5H   SFRSYM    DATA     BYTE      IP2
      000000FFH   SFRSYM    DATA     BYTE      RSTCFG
      000000C7H   SFRSYM    DATA     BYTE      IAP_CONTR
      000000F9H   SFRSYM    DATA     BYTE      LINICR
      0000008EH   SFRSYM    DATA     BYTE      AUXR
      000000AFH   SFRSYM    DATA     BYTE      IE2
L251 LINKER/LOCATER V4.66.93.0                                                        01/24/2026  18:53:03  PAGE 103


      00000088H   SFRSYM    DATA     BYTE      TCON
      00000089H   SFRSYM    DATA     BYTE      TMOD
      00000098H   SFRSYM    DATA     BYTE      SCON
      000000F1H   SFRSYM    DATA     BYTE      CANICR
      00000087H   SFRSYM    DATA     BYTE      PCON
      000000BCH   SFRSYM    DATA     BYTE      ADC_CONTR
      000000E7H   SFRSYM    DATA     BYTE      CMPCR2
      000000E6H   SFRSYM    DATA     BYTE      CMPCR1
      000000DEH   SFRSYM    DATA     BYTE      ADCCFG
      000000B8H   SFRSYM    DATA     BYTE      IP
      0000008FH   SFRSYM    DATA     BYTE      INTCLKO
      000000EEH   SFRSYM    DATA     BYTE      IP3H
      000000B6H   SFRSYM    DATA     BYTE      IP2H
      000000A8H   SFRSYM    DATA     BYTE      IE
      000000BBH   SFRSYM    DATA     BYTE      P_SW3
      000000BAH   SFRSYM    DATA     BYTE      P_SW2
      000000A2H   SFRSYM    DATA     BYTE      P_SW1
      000000CEH   SFRSYM    DATA     BYTE      SPCTL
      000000F8H   SFRSYM    DATA     BYTE      P7
      000000E8H   SFRSYM    DATA     BYTE      P6
      000000C8H   SFRSYM    DATA     BYTE      P5
      000000C0H   SFRSYM    DATA     BYTE      P4
      000000B0H   SFRSYM    DATA     BYTE      P3
      000000A0H   SFRSYM    DATA     BYTE      P2
      00000090H   SFRSYM    DATA     BYTE      P1
      00000080H   SFRSYM    DATA     BYTE      P0

      00FF7118H   BLOCK     CODE     ---       LVL=0
      00FF7118H   LINE      CODE     ---       #15
      00FF7118H   LINE      CODE     ---       #17
      00FF7127H   LINE      CODE     ---       #18
      00FF7136H   LINE      CODE     ---       #19
      00FF7145H   LINE      CODE     ---       #20
      ---         BLOCKEND  ---      ---       LVL=0
      R15         REGSYM    ---      BYTE      key_temp

      ---         MODULE    ---      ---       adc
      00FF6429H   PUBLIC    CODE     ---       adc_sample
      00FF7154H   PUBLIC    CODE     ---       limit
      00FF6CDAH   PUBLIC    CODE     ---       Adc_Getval_Fast
      00FF73E3H   PUBLIC    CODE     ---       Adc_All_Init
      00010893H   PUBLIC    XDATA    BYTE      channel_index
      00010894H   PUBLIC    XDATA    ---       adc_val_list
      0001089EH   PUBLIC    XDATA    ---       max_min_adc
      000108B2H   PUBLIC    XDATA    ---       channel_list
      000000D0H   SFRSYM    DATA     BYTE      PSW
      0000009DH   SFRSYM    DATA     BYTE      IRCBAND
      00000097H   SFRSYM    DATA     BYTE      AUXR2
      000000EFH   SFRSYM    DATA     BYTE      AUXINTIF
      000000FDH   SFRSYM    DATA     BYTE      S4CON
      000000ACH   SFRSYM    DATA     BYTE      S3CON
      0000009AH   SFRSYM    DATA     BYTE      S2CON
      000000B7H   SFRSYM    DATA     BYTE      IPH
      000000CDH   SFRSYM    DATA     BYTE      SPSTAT
      000000DDH   SFRSYM    DATA     BYTE      T4T3M
      000000C1H   SFRSYM    DATA     BYTE      WDT_CONTR
      000000DFH   SFRSYM    DATA     BYTE      IP3
      000000F4H   SFRSYM    DATA     BYTE      USBCON
      000000B5H   SFRSYM    DATA     BYTE      IP2
      000000FFH   SFRSYM    DATA     BYTE      RSTCFG
      000000C7H   SFRSYM    DATA     BYTE      IAP_CONTR
      000000F9H   SFRSYM    DATA     BYTE      LINICR
      0000008EH   SFRSYM    DATA     BYTE      AUXR
      000000AFH   SFRSYM    DATA     BYTE      IE2
      00000088H   SFRSYM    DATA     BYTE      TCON
L251 LINKER/LOCATER V4.66.93.0                                                        01/24/2026  18:53:03  PAGE 104


      00000089H   SFRSYM    DATA     BYTE      TMOD
      00000098H   SFRSYM    DATA     BYTE      SCON
      000000F1H   SFRSYM    DATA     BYTE      CANICR
      00000087H   SFRSYM    DATA     BYTE      PCON
      000000BCH   SFRSYM    DATA     BYTE      ADC_CONTR
      000000E7H   SFRSYM    DATA     BYTE      CMPCR2
      000000E6H   SFRSYM    DATA     BYTE      CMPCR1
      000000DEH   SFRSYM    DATA     BYTE      ADCCFG
      000000B8H   SFRSYM    DATA     BYTE      IP
      0000008FH   SFRSYM    DATA     BYTE      INTCLKO
      000000EEH   SFRSYM    DATA     BYTE      IP3H
      000000B6H   SFRSYM    DATA     BYTE      IP2H
      000000A8H   SFRSYM    DATA     BYTE      IE
      000000BBH   SFRSYM    DATA     BYTE      P_SW3
      000000BAH   SFRSYM    DATA     BYTE      P_SW2
      000000A2H   SFRSYM    DATA     BYTE      P_SW1
      000000CEH   SFRSYM    DATA     BYTE      SPCTL
      000000F8H   SFRSYM    DATA     BYTE      P7
      000000E8H   SFRSYM    DATA     BYTE      P6
      000000C8H   SFRSYM    DATA     BYTE      P5
      000000C0H   SFRSYM    DATA     BYTE      P4
      000000B0H   SFRSYM    DATA     BYTE      P3
      000000A0H   SFRSYM    DATA     BYTE      P2
      00000090H   SFRSYM    DATA     BYTE      P1
      00000080H   SFRSYM    DATA     BYTE      P0

      00FF73E3H   BLOCK     CODE     ---       LVL=0
      00FF73E3H   LINE      CODE     ---       #35
      00FF73E3H   LINE      CODE     ---       #37
      00FF73ECH   LINE      CODE     ---       #38
      00FF73F3H   LINE      CODE     ---       #39
      00FF73FCH   LINE      CODE     ---       #40
      00FF7405H   LINE      CODE     ---       #41
      ---         BLOCKEND  ---      ---       LVL=0

      00FF7154H   BLOCK     CODE     ---       LVL=0
      WR2         REGSYM    ---      WORD      adc_val
      R1          REGSYM    ---      BYTE      index
      00FF7154H   LINE      CODE     ---       #52
      00FF7158H   LINE      CODE     ---       #54
      00FF7170H   LINE      CODE     ---       #56
      00FF7172H   LINE      CODE     ---       #57
      00FF7172H   LINE      CODE     ---       #58
      00FF7189H   LINE      CODE     ---       #60
      00FF718BH   LINE      CODE     ---       #61
      00FF718BH   LINE      CODE     ---       #62
      00FF718DH   LINE      CODE     ---       #63
      ---         BLOCKEND  ---      ---       LVL=0

      00FF6CDAH   BLOCK     CODE     ---       LVL=0
      00FF6CDAH   LINE      CODE     ---       #163
      00FF6CDAH   LINE      CODE     ---       #165
      00FF6CDFH   LINE      CODE     ---       #167
      00FF6D1AH   LINE      CODE     ---       #171
      00FF6D2AH   LINE      CODE     ---       #172
      ---         BLOCKEND  ---      ---       LVL=0
      WR14        REGSYM    ---      INT       ch
      WR4         REGSYM    ---      WORD      k
      WR12        REGSYM    ---      WORD      tmp

      00FF6429H   BLOCK     CODE     ---       LVL=0
      WR14        REGSYM    ---      INT       ch
      00FF642DH   BLOCK     CODE     NEAR LAB  LVL=1
      WR6         REGSYM    ---      WORD      temp
      0001063BH   SYMBOL    XDATA    WORD      sum
L251 LINKER/LOCATER V4.66.93.0                                                        01/24/2026  18:53:03  PAGE 105


      0001063DH   SYMBOL    XDATA    WORD      max
      0001063FH   SYMBOL    XDATA    WORD      min
      00010641H   SYMBOL    XDATA    BYTE      i
      ---         BLOCKEND  ---      ---       LVL=1
      00FF6429H   LINE      CODE     ---       #245
      00FF642DH   LINE      CODE     ---       #246
      00FF642DH   LINE      CODE     ---       #251
      00FF6430H   LINE      CODE     ---       #252
      00FF6436H   LINE      CODE     ---       #253
      00FF643CH   LINE      CODE     ---       #254
      00FF6442H   LINE      CODE     ---       #257
      00FF6447H   LINE      CODE     ---       #259
      00FF644EH   LINE      CODE     ---       #260
      00FF6458H   LINE      CODE     ---       #262
      00FF645EH   LINE      CODE     ---       #263
      00FF645EH   LINE      CODE     ---       #264
      00FF6468H   LINE      CODE     ---       #266
      00FF646EH   LINE      CODE     ---       #267
      00FF646EH   LINE      CODE     ---       #268
      00FF6479H   LINE      CODE     ---       #269
      00FF6488H   LINE      CODE     ---       #272
      00FF64A4H   LINE      CODE     ---       #274
      00FF64A4H   LINE      CODE     ---       #275
      ---         BLOCKEND  ---      ---       LVL=0
      WR14        REGSYM    ---      INT       ch
      WR6         REGSYM    ---      WORD      temp
      REG=7       REGSYM    ---      ---       arr
      R7          REGSYM    ---      BYTE      i
      R6          REGSYM    ---      BYTE      j
      WR4         REGSYM    ---      WORD      temp
      WR14        REGSYM    ---      INT       ch
      R13         REGSYM    ---      BYTE      i

      ---         MODULE    ---      ---       uart
      00010860H   PUBLIC    XDATA    ---       buf
      00010892H   PUBLIC    XDATA    BYTE      cnt
      000000D0H   SFRSYM    DATA     BYTE      PSW
      0000009DH   SFRSYM    DATA     BYTE      IRCBAND
      00000097H   SFRSYM    DATA     BYTE      AUXR2
      000000EFH   SFRSYM    DATA     BYTE      AUXINTIF
      000000FDH   SFRSYM    DATA     BYTE      S4CON
      000000ACH   SFRSYM    DATA     BYTE      S3CON
      0000009AH   SFRSYM    DATA     BYTE      S2CON
      000000B7H   SFRSYM    DATA     BYTE      IPH
      000000CDH   SFRSYM    DATA     BYTE      SPSTAT
      000000DDH   SFRSYM    DATA     BYTE      T4T3M
      000000C1H   SFRSYM    DATA     BYTE      WDT_CONTR
      000000DFH   SFRSYM    DATA     BYTE      IP3
      000000F4H   SFRSYM    DATA     BYTE      USBCON
      000000B5H   SFRSYM    DATA     BYTE      IP2
      000000FFH   SFRSYM    DATA     BYTE      RSTCFG
      000000C7H   SFRSYM    DATA     BYTE      IAP_CONTR
      000000F9H   SFRSYM    DATA     BYTE      LINICR
      0000008EH   SFRSYM    DATA     BYTE      AUXR
      000000AFH   SFRSYM    DATA     BYTE      IE2
      00000088H   SFRSYM    DATA     BYTE      TCON
      00000089H   SFRSYM    DATA     BYTE      TMOD
      00000098H   SFRSYM    DATA     BYTE      SCON
      000000F1H   SFRSYM    DATA     BYTE      CANICR
      00000087H   SFRSYM    DATA     BYTE      PCON
      000000BCH   SFRSYM    DATA     BYTE      ADC_CONTR
      000000E7H   SFRSYM    DATA     BYTE      CMPCR2
      000000E6H   SFRSYM    DATA     BYTE      CMPCR1
      000000DEH   SFRSYM    DATA     BYTE      ADCCFG
      000000B8H   SFRSYM    DATA     BYTE      IP
L251 LINKER/LOCATER V4.66.93.0                                                        01/24/2026  18:53:03  PAGE 106


      0000008FH   SFRSYM    DATA     BYTE      INTCLKO
      000000EEH   SFRSYM    DATA     BYTE      IP3H
      000000B6H   SFRSYM    DATA     BYTE      IP2H
      000000A8H   SFRSYM    DATA     BYTE      IE
      000000BBH   SFRSYM    DATA     BYTE      P_SW3
      000000BAH   SFRSYM    DATA     BYTE      P_SW2
      000000A2H   SFRSYM    DATA     BYTE      P_SW1
      000000CEH   SFRSYM    DATA     BYTE      SPCTL
      000000F8H   SFRSYM    DATA     BYTE      P7
      000000E8H   SFRSYM    DATA     BYTE      P6
      000000C8H   SFRSYM    DATA     BYTE      P5
      000000C0H   SFRSYM    DATA     BYTE      P4
      000000B0H   SFRSYM    DATA     BYTE      P3
      000000A0H   SFRSYM    DATA     BYTE      P2
      00000090H   SFRSYM    DATA     BYTE      P1
      00000080H   SFRSYM    DATA     BYTE      P0

      ---         MODULE    ---      ---       pid
      00FF51FCH   PUBLIC    CODE     ---       pid_calc_position
      00FF5C83H   PUBLIC    CODE     ---       motor_pid_control
      00FF569AH   PUBLIC    CODE     ---       pd_direction_gyro_loop
      00FF0066H   PUBLIC    CODE     ---       constrain_float
      00FF6262H   PUBLIC    CODE     ---       pid_init
      00FF75BBH   PUBLIC    CODE     ---       pid_set_target
      00FF5337H   PUBLIC    CODE     ---       pid_calc_increment
      00FF6EEAH   PUBLIC    CODE     ---       pd_init
      00010507H   PUBLIC    XDATA    ---       pd_angle
      00010517H   PUBLIC    XDATA    ---       pid_SDSD
      00010557H   PUBLIC    XDATA    ---       pid_motor_right
      00010597H   PUBLIC    XDATA    ---       pid_motor_left
      000105D7H   PUBLIC    XDATA    ---       pd_gyro
      000105E7H   PUBLIC    XDATA    ---       pd_direction
      00010633H   PUBLIC    XDATA    BYTE      ?pid_init?BYTE
      00010639H   PUBLIC    XDATA    BYTE      ?constrain_float?BYTE
      00010633H   PUBLIC    XDATA    BYTE      ?pd_init?BYTE
      000000D0H   SFRSYM    DATA     BYTE      PSW
      0000009DH   SFRSYM    DATA     BYTE      IRCBAND
      00000097H   SFRSYM    DATA     BYTE      AUXR2
      000000EFH   SFRSYM    DATA     BYTE      AUXINTIF
      000000FDH   SFRSYM    DATA     BYTE      S4CON
      000000ACH   SFRSYM    DATA     BYTE      S3CON
      0000009AH   SFRSYM    DATA     BYTE      S2CON
      000000B7H   SFRSYM    DATA     BYTE      IPH
      000000CDH   SFRSYM    DATA     BYTE      SPSTAT
      000000DDH   SFRSYM    DATA     BYTE      T4T3M
      000000C1H   SFRSYM    DATA     BYTE      WDT_CONTR
      000000DFH   SFRSYM    DATA     BYTE      IP3
      000000F4H   SFRSYM    DATA     BYTE      USBCON
      000000B5H   SFRSYM    DATA     BYTE      IP2
      000000FFH   SFRSYM    DATA     BYTE      RSTCFG
      000000C7H   SFRSYM    DATA     BYTE      IAP_CONTR
      000000F9H   SFRSYM    DATA     BYTE      LINICR
      0000008EH   SFRSYM    DATA     BYTE      AUXR
      000000AFH   SFRSYM    DATA     BYTE      IE2
      00000088H   SFRSYM    DATA     BYTE      TCON
      00000089H   SFRSYM    DATA     BYTE      TMOD
      00000098H   SFRSYM    DATA     BYTE      SCON
      000000F1H   SFRSYM    DATA     BYTE      CANICR
      00000087H   SFRSYM    DATA     BYTE      PCON
      000000BCH   SFRSYM    DATA     BYTE      ADC_CONTR
      000000E7H   SFRSYM    DATA     BYTE      CMPCR2
      000000E6H   SFRSYM    DATA     BYTE      CMPCR1
      000000DEH   SFRSYM    DATA     BYTE      ADCCFG
      000000B8H   SFRSYM    DATA     BYTE      IP
      0000008FH   SFRSYM    DATA     BYTE      INTCLKO
L251 LINKER/LOCATER V4.66.93.0                                                        01/24/2026  18:53:03  PAGE 107


      000000EEH   SFRSYM    DATA     BYTE      IP3H
      000000B6H   SFRSYM    DATA     BYTE      IP2H
      000000A8H   SFRSYM    DATA     BYTE      IE
      000000BBH   SFRSYM    DATA     BYTE      P_SW3
      000000BAH   SFRSYM    DATA     BYTE      P_SW2
      000000A2H   SFRSYM    DATA     BYTE      P_SW1
      000000CEH   SFRSYM    DATA     BYTE      SPCTL
      000000F8H   SFRSYM    DATA     BYTE      P7
      000000E8H   SFRSYM    DATA     BYTE      P6
      000000C8H   SFRSYM    DATA     BYTE      P5
      000000C0H   SFRSYM    DATA     BYTE      P4
      000000B0H   SFRSYM    DATA     BYTE      P3
      000000A0H   SFRSYM    DATA     BYTE      P2
      00000090H   SFRSYM    DATA     BYTE      P1
      00000080H   SFRSYM    DATA     BYTE      P0

      00FF6262H   BLOCK     CODE     ---       LVL=0
      REG=2       REGSYM    ---      ---       pid
      DR4         REGSYM    ---      FLOAT     kp
      0001063BH   SYMBOL    XDATA    FLOAT     ki
      0001063FH   SYMBOL    XDATA    FLOAT     kd
      00FF6262H   LINE      CODE     ---       #22
      00FF6264H   LINE      CODE     ---       #24
      00FF626BH   LINE      CODE     ---       #25
      00FF627DH   LINE      CODE     ---       #26
      00FF628FH   LINE      CODE     ---       #27
      00FF6299H   LINE      CODE     ---       #28
      00FF62A1H   LINE      CODE     ---       #29
      00FF62A9H   LINE      CODE     ---       #30
      00FF62B1H   LINE      CODE     ---       #31
      00FF62B9H   LINE      CODE     ---       #32
      00FF62C1H   LINE      CODE     ---       #33
      00FF62C9H   LINE      CODE     ---       #34
      00FF62D1H   LINE      CODE     ---       #35
      00FF62D9H   LINE      CODE     ---       #36
      00FF62E1H   LINE      CODE     ---       #37
      00FF62EDH   LINE      CODE     ---       #38
      00FF62F9H   LINE      CODE     ---       #39
      00FF6305H   LINE      CODE     ---       #40
      ---         BLOCKEND  ---      ---       LVL=0
      REG=2       REGSYM    ---      ---       pid
      DR4         REGSYM    ---      FLOAT     kp

      00FF75BBH   BLOCK     CODE     ---       LVL=0
      REG=7       REGSYM    ---      ---       pid
      DR4         REGSYM    ---      FLOAT     target
      00FF75BBH   LINE      CODE     ---       #65
      00FF75BDH   LINE      CODE     ---       #67
      00FF75C8H   LINE      CODE     ---       #68
      ---         BLOCKEND  ---      ---       LVL=0
      REG=2       REGSYM    ---      ---       pid

      00FF0066H   BLOCK     CODE     ---       LVL=0
      DR28        REGSYM    ---      FLOAT     value
      DR24        REGSYM    ---      FLOAT     min_val
      00010641H   SYMBOL    XDATA    FLOAT     max_val
      00FF0066H   LINE      CODE     ---       #95
      00FF006AH   LINE      CODE     ---       #97
      00FF006FH   LINE      CODE     ---       #98
      00FF0072H   LINE      CODE     ---       #99
      00FF0085H   LINE      CODE     ---       #100
      00FF0088H   LINE      CODE     ---       #102
      00FF008AH   LINE      CODE     ---       #103
      ---         BLOCKEND  ---      ---       LVL=0

L251 LINKER/LOCATER V4.66.93.0                                                        01/24/2026  18:53:03  PAGE 108


      00FF51FCH   BLOCK     CODE     ---       LVL=0
      REG=3       REGSYM    ---      ---       pid
      DR28        REGSYM    ---      FLOAT     actual
      00FF51FCH   LINE      CODE     ---       #111
      00FF5202H   LINE      CODE     ---       #113
      00FF520AH   LINE      CODE     ---       #114
      00FF521FH   LINE      CODE     ---       #115
      00FF523EH   LINE      CODE     ---       #116
      00FF526EH   LINE      CODE     ---       #117
      00FF5288H   LINE      CODE     ---       #118
      00FF52A3H   LINE      CODE     ---       #119
      00FF52C9H   LINE      CODE     ---       #120
      00FF52D9H   LINE      CODE     ---       #121
      00FF52FFH   LINE      CODE     ---       #122
      00FF532CH   LINE      CODE     ---       #123
      00FF5334H   LINE      CODE     ---       #124
      ---         BLOCKEND  ---      ---       LVL=0

      00FF5337H   BLOCK     CODE     ---       LVL=0
      REG=3       REGSYM    ---      ---       pid
      DR28        REGSYM    ---      FLOAT     actual
      00FF533DH   BLOCK     CODE     NEAR LAB  LVL=1
      DR0         REGSYM    ---      FLOAT     increment
      ---         BLOCKEND  ---      ---       LVL=1
      00FF5337H   LINE      CODE     ---       #132
      00FF533DH   LINE      CODE     ---       #133
      00FF533DH   LINE      CODE     ---       #135
      00FF5345H   LINE      CODE     ---       #136
      00FF535AH   LINE      CODE     ---       #137
      00FF537FH   LINE      CODE     ---       #138
      00FF539AH   LINE      CODE     ---       #139
      00FF53D6H   LINE      CODE     ---       #140
      00FF53F6H   LINE      CODE     ---       #141
      00FF5406H   LINE      CODE     ---       #142
      00FF5416H   LINE      CODE     ---       #143
      00FF542DH   LINE      CODE     ---       #144
      00FF545AH   LINE      CODE     ---       #145
      00FF5462H   LINE      CODE     ---       #146
      ---         BLOCKEND  ---      ---       LVL=0

      00FF5C83H   BLOCK     CODE     ---       LVL=0
      WR8         REGSYM    ---      INT       encoder_left
      WR14        REGSYM    ---      INT       encoder_right
      00FF5C87H   BLOCK     CODE     NEAR LAB  LVL=1
      0001063BH   SYMBOL    XDATA    FLOAT     output_left
      DR12        REGSYM    ---      FLOAT     output_right
      0001063FH   SYMBOL    XDATA    BYTE      pwm_left
      00010640H   SYMBOL    XDATA    BYTE      pwm_right
      ---         BLOCKEND  ---      ---       LVL=1
      00FF5C83H   LINE      CODE     ---       #157
      00FF5C87H   LINE      CODE     ---       #158
      00FF5C87H   LINE      CODE     ---       #165
      00FF5CA3H   LINE      CODE     ---       #166
      00FF5CB7H   LINE      CODE     ---       #169
      00FF5CCAH   LINE      CODE     ---       #171
      00FF5CE6H   LINE      CODE     ---       #172
      00FF5CE9H   LINE      CODE     ---       #173
      00FF5CEBH   LINE      CODE     ---       #176
      00FF5D14H   LINE      CODE     ---       #177
      00FF5D17H   LINE      CODE     ---       #178
      00FF5D17H   LINE      CODE     ---       #181
      00FF5D20H   LINE      CODE     ---       #183
      00FF5D3CH   LINE      CODE     ---       #184
      00FF5D3FH   LINE      CODE     ---       #185
      00FF5D41H   LINE      CODE     ---       #188
L251 LINKER/LOCATER V4.66.93.0                                                        01/24/2026  18:53:03  PAGE 109


      00FF5D62H   LINE      CODE     ---       #189
      00FF5D65H   LINE      CODE     ---       #190
      00FF5D65H   LINE      CODE     ---       #191
      ---         BLOCKEND  ---      ---       LVL=0

      00FF6EEAH   BLOCK     CODE     ---       LVL=0
      REG=2       REGSYM    ---      ---       pd
      DR4         REGSYM    ---      FLOAT     kp
      0001063BH   SYMBOL    XDATA    FLOAT     kd
      0001063FH   SYMBOL    XDATA    FLOAT     kp_gyro
      00010643H   SYMBOL    XDATA    FLOAT     kd_gyro
      00FF6EEAH   LINE      CODE     ---       #207
      00FF6EECH   LINE      CODE     ---       #209
      00FF6EF3H   LINE      CODE     ---       #210
      00FF6F05H   LINE      CODE     ---       #211
      00FF6F17H   LINE      CODE     ---       #212
      00FF6F29H   LINE      CODE     ---       #213
      ---         BLOCKEND  ---      ---       LVL=0
      DR20        REGSYM    ---      FLOAT     err_position
      000105F7H   SYMBOL    XDATA    ---       err_position_history
      00010607H   SYMBOL    XDATA    ---       err_gyro_history
      DR28        REGSYM    ---      FLOAT     expect_gyro
      DR20        REGSYM    ---      FLOAT     err_gyro
      DR28        REGSYM    ---      FLOAT     correction
      DR24        REGSYM    ---      FLOAT     current_angle
      DR0         REGSYM    ---      FLOAT     target_angle
      0001060FH   SYMBOL    XDATA    ---       err_angle_history
      DR16        REGSYM    ---      FLOAT     err_angle
      DR20        REGSYM    ---      FLOAT     expect_gyro
      DR24        REGSYM    ---      FLOAT     expect_gyro
      DR28        REGSYM    ---      FLOAT     actual_gyro
      0001061BH   SYMBOL    XDATA    ---       err_gyro_history
      DR24        REGSYM    ---      FLOAT     err_gyro
      WR22        REGSYM    ---      INT       output

      00FF569AH   BLOCK     CODE     ---       LVL=0
      DR20        REGSYM    ---      FLOAT     err_position
      00FF569CH   BLOCK     CODE     NEAR LAB  LVL=1
      00010623H   SYMBOL    XDATA    ---       err_position_history
      00010633H   SYMBOL    XDATA    ---       err_gyro_history
      DR28        REGSYM    ---      FLOAT     expect_gyro
      DR20        REGSYM    ---      FLOAT     err_gyro
      DR28        REGSYM    ---      FLOAT     correction
      ---         BLOCKEND  ---      ---       LVL=1
      00FF569AH   LINE      CODE     ---       #347
      00FF569CH   LINE      CODE     ---       #348
      00FF569CH   LINE      CODE     ---       #357
      00FF56B0H   LINE      CODE     ---       #358
      00FF56C4H   LINE      CODE     ---       #359
      00FF56CEH   LINE      CODE     ---       #362
      00FF5702H   LINE      CODE     ---       #366
      00FF570FH   LINE      CODE     ---       #367
      00FF5713H   LINE      CODE     ---       #368
      00FF5722H   LINE      CODE     ---       #369
      00FF5724H   LINE      CODE     ---       #373
      00FF5735H   LINE      CODE     ---       #376
      00FF5749H   LINE      CODE     ---       #377
      00FF5753H   LINE      CODE     ---       #380
      00FF5787H   LINE      CODE     ---       #384
      00FF578EH   LINE      CODE     ---       #385
      00FF5792H   LINE      CODE     ---       #386
      00FF57A1H   LINE      CODE     ---       #387
      00FF57A3H   LINE      CODE     ---       #389
      00FF57A5H   LINE      CODE     ---       #390
      ---         BLOCKEND  ---      ---       LVL=0
L251 LINKER/LOCATER V4.66.93.0                                                        01/24/2026  18:53:03  PAGE 110



      ---         MODULE    ---      ---       encoder
      00FF73B7H   PUBLIC    CODE     ---       iir_lowpass
      00FF7235H   PUBLIC    CODE     ---       Encoder_Init
      00FF5EF8H   PUBLIC    CODE     ---       Encoder_Get_Filtered
      0001097EH   PUBLIC    XDATA    INT       encoder_data_dir_L
      00010980H   PUBLIC    XDATA    INT       encoder_data_dir_R
      00010637H   PUBLIC    XDATA    BYTE      ?iir_lowpass?BYTE
      000000D0H   SFRSYM    DATA     BYTE      PSW
      0000009DH   SFRSYM    DATA     BYTE      IRCBAND
      00000097H   SFRSYM    DATA     BYTE      AUXR2
      000000EFH   SFRSYM    DATA     BYTE      AUXINTIF
      000000FDH   SFRSYM    DATA     BYTE      S4CON
      000000ACH   SFRSYM    DATA     BYTE      S3CON
      0000009AH   SFRSYM    DATA     BYTE      S2CON
      000000B7H   SFRSYM    DATA     BYTE      IPH
      000000CDH   SFRSYM    DATA     BYTE      SPSTAT
      000000DDH   SFRSYM    DATA     BYTE      T4T3M
      000000C1H   SFRSYM    DATA     BYTE      WDT_CONTR
      000000DFH   SFRSYM    DATA     BYTE      IP3
      000000F4H   SFRSYM    DATA     BYTE      USBCON
      000000B5H   SFRSYM    DATA     BYTE      IP2
      000000FFH   SFRSYM    DATA     BYTE      RSTCFG
      000000C7H   SFRSYM    DATA     BYTE      IAP_CONTR
      000000F9H   SFRSYM    DATA     BYTE      LINICR
      0000008EH   SFRSYM    DATA     BYTE      AUXR
      000000AFH   SFRSYM    DATA     BYTE      IE2
      00000088H   SFRSYM    DATA     BYTE      TCON
      00000089H   SFRSYM    DATA     BYTE      TMOD
      00000098H   SFRSYM    DATA     BYTE      SCON
      000000F1H   SFRSYM    DATA     BYTE      CANICR
      00000087H   SFRSYM    DATA     BYTE      PCON
      000000BCH   SFRSYM    DATA     BYTE      ADC_CONTR
      000000E7H   SFRSYM    DATA     BYTE      CMPCR2
      000000E6H   SFRSYM    DATA     BYTE      CMPCR1
      000000DEH   SFRSYM    DATA     BYTE      ADCCFG
      000000B8H   SFRSYM    DATA     BYTE      IP
      0000008FH   SFRSYM    DATA     BYTE      INTCLKO
      000000EEH   SFRSYM    DATA     BYTE      IP3H
      000000B6H   SFRSYM    DATA     BYTE      IP2H
      000000A8H   SFRSYM    DATA     BYTE      IE
      000000BBH   SFRSYM    DATA     BYTE      P_SW3
      000000BAH   SFRSYM    DATA     BYTE      P_SW2
      000000A2H   SFRSYM    DATA     BYTE      P_SW1
      000000CEH   SFRSYM    DATA     BYTE      SPCTL
      000000F8H   SFRSYM    DATA     BYTE      P7
      000000E8H   SFRSYM    DATA     BYTE      P6
      000000C8H   SFRSYM    DATA     BYTE      P5
      000000C0H   SFRSYM    DATA     BYTE      P4
      000000B0H   SFRSYM    DATA     BYTE      P3
      000000A0H   SFRSYM    DATA     BYTE      P2
      00000090H   SFRSYM    DATA     BYTE      P1
      00000080H   SFRSYM    DATA     BYTE      P0
      00010976H   SYMBOL    XDATA    FLOAT     last_encoder_L
      0001097AH   SYMBOL    XDATA    FLOAT     last_encoder_R

      00FF7235H   BLOCK     CODE     ---       LVL=0
      00FF7235H   LINE      CODE     ---       #23
      00FF7235H   LINE      CODE     ---       #25
      00FF7242H   LINE      CODE     ---       #26
      00FF7251H   LINE      CODE     ---       #27
      00FF725DH   LINE      CODE     ---       #28
      00FF7267H   LINE      CODE     ---       #29
      ---         BLOCKEND  ---      ---       LVL=0

L251 LINKER/LOCATER V4.66.93.0                                                        01/24/2026  18:53:03  PAGE 111


      00FF73B7H   BLOCK     CODE     ---       LVL=0
      DR24        REGSYM    ---      FLOAT     new_val
      DR28        REGSYM    ---      FLOAT     last_val
      0001063FH   SYMBOL    XDATA    FLOAT     alpha
      00FF73B7H   LINE      CODE     ---       #42
      00FF73BBH   LINE      CODE     ---       #44
      ---         BLOCKEND  ---      ---       LVL=0

      00FF5EF8H   BLOCK     CODE     ---       LVL=0
      00FF5EFAH   BLOCK     CODE     NEAR LAB  LVL=1
      0001063BH   SYMBOL    XDATA    FLOAT     temp_L
      DR12        REGSYM    ---      FLOAT     temp_R
      ---         BLOCKEND  ---      ---       LVL=1
      00FF5EF8H   LINE      CODE     ---       #56
      00FF5EFAH   LINE      CODE     ---       #57
      00FF5EFAH   LINE      CODE     ---       #61
      00FF5EFAH   LINE      CODE     ---       #62
      00FF5F12H   LINE      CODE     ---       #63
      00FF5F20H   LINE      CODE     ---       #65
      00FF5F53H   LINE      CODE     ---       #66
      00FF5F80H   LINE      CODE     ---       #68
      00FF5F93H   LINE      CODE     ---       #69
      00FF5F9EH   LINE      CODE     ---       #71
      00FF5FA5H   LINE      CODE     ---       #72
      00FF5FAAH   LINE      CODE     ---       #73
      ---         BLOCKEND  ---      ---       LVL=0

      ---         MODULE    ---      ---       normalization
      00FF61B8H   PUBLIC    CODE     ---       Normalization
      0001098CH   PUBLIC    XDATA    ---       adc_normalized_list
      000000D0H   SFRSYM    DATA     BYTE      PSW
      0000009DH   SFRSYM    DATA     BYTE      IRCBAND
      00000097H   SFRSYM    DATA     BYTE      AUXR2
      000000EFH   SFRSYM    DATA     BYTE      AUXINTIF
      000000FDH   SFRSYM    DATA     BYTE      S4CON
      000000ACH   SFRSYM    DATA     BYTE      S3CON
      0000009AH   SFRSYM    DATA     BYTE      S2CON
      000000B7H   SFRSYM    DATA     BYTE      IPH
      000000CDH   SFRSYM    DATA     BYTE      SPSTAT
      000000DDH   SFRSYM    DATA     BYTE      T4T3M
      000000C1H   SFRSYM    DATA     BYTE      WDT_CONTR
      000000DFH   SFRSYM    DATA     BYTE      IP3
      000000F4H   SFRSYM    DATA     BYTE      USBCON
      000000B5H   SFRSYM    DATA     BYTE      IP2
      000000FFH   SFRSYM    DATA     BYTE      RSTCFG
      000000C7H   SFRSYM    DATA     BYTE      IAP_CONTR
      000000F9H   SFRSYM    DATA     BYTE      LINICR
      0000008EH   SFRSYM    DATA     BYTE      AUXR
      000000AFH   SFRSYM    DATA     BYTE      IE2
      00000088H   SFRSYM    DATA     BYTE      TCON
      00000089H   SFRSYM    DATA     BYTE      TMOD
      00000098H   SFRSYM    DATA     BYTE      SCON
      000000F1H   SFRSYM    DATA     BYTE      CANICR
      00000087H   SFRSYM    DATA     BYTE      PCON
      000000BCH   SFRSYM    DATA     BYTE      ADC_CONTR
      000000E7H   SFRSYM    DATA     BYTE      CMPCR2
      000000E6H   SFRSYM    DATA     BYTE      CMPCR1
      000000DEH   SFRSYM    DATA     BYTE      ADCCFG
      000000B8H   SFRSYM    DATA     BYTE      IP
      0000008FH   SFRSYM    DATA     BYTE      INTCLKO
      000000EEH   SFRSYM    DATA     BYTE      IP3H
      000000B6H   SFRSYM    DATA     BYTE      IP2H
      000000A8H   SFRSYM    DATA     BYTE      IE
      000000BBH   SFRSYM    DATA     BYTE      P_SW3
      000000BAH   SFRSYM    DATA     BYTE      P_SW2
L251 LINKER/LOCATER V4.66.93.0                                                        01/24/2026  18:53:03  PAGE 112


      000000A2H   SFRSYM    DATA     BYTE      P_SW1
      000000CEH   SFRSYM    DATA     BYTE      SPCTL
      000000F8H   SFRSYM    DATA     BYTE      P7
      000000E8H   SFRSYM    DATA     BYTE      P6
      000000C8H   SFRSYM    DATA     BYTE      P5
      000000C0H   SFRSYM    DATA     BYTE      P4
      000000B0H   SFRSYM    DATA     BYTE      P3
      000000A0H   SFRSYM    DATA     BYTE      P2
      00000090H   SFRSYM    DATA     BYTE      P1
      00000080H   SFRSYM    DATA     BYTE      P0

      00FF61B8H   BLOCK     CODE     ---       LVL=0
      00FF61BAH   BLOCK     CODE     NEAR LAB  LVL=1
      DR24        REGSYM    ---      FLOAT     temp
      DR28        REGSYM    ---      FLOAT     range
      R15         REGSYM    ---      BYTE      i
      ---         BLOCKEND  ---      ---       LVL=1
      00FF61B8H   LINE      CODE     ---       #15
      00FF61BAH   LINE      CODE     ---       #16
      00FF61BAH   LINE      CODE     ---       #21
      00FF61BCH   LINE      CODE     ---       #24
      00FF61E7H   LINE      CODE     ---       #25
      00FF61F4H   LINE      CODE     ---       #26
      00FF61F6H   LINE      CODE     ---       #29
      00FF6210H   LINE      CODE     ---       #30
      00FF6224H   LINE      CODE     ---       #33
      00FF622DH   LINE      CODE     ---       #34
      00FF6231H   LINE      CODE     ---       #35
      00FF623AH   LINE      CODE     ---       #36
      00FF623CH   LINE      CODE     ---       #38
      00FF6255H   LINE      CODE     ---       #39
      00FF625FH   LINE      CODE     ---       #40
      ---         BLOCKEND  ---      ---       LVL=0

      ---         MODULE    ---      ---       control
      00FF57A6H   PUBLIC    CODE     ---       SDSD_calculate
      00FF735CH   PUBLIC    CODE     ---       SDSD_init
      000108F8H   PUBLIC    XDATA    ---       SDSD
      00010904H   PUBLIC    XDATA    FLOAT     res
      00010908H   PUBLIC    XDATA    LONG      sub
      0001090CH   PUBLIC    XDATA    LONG      sum
      00010633H   PUBLIC    XDATA    BYTE      ?SDSD_init?BYTE
      000000D0H   SFRSYM    DATA     BYTE      PSW
      0000009DH   SFRSYM    DATA     BYTE      IRCBAND
      00000097H   SFRSYM    DATA     BYTE      AUXR2
      000000EFH   SFRSYM    DATA     BYTE      AUXINTIF
      000000FDH   SFRSYM    DATA     BYTE      S4CON
      000000ACH   SFRSYM    DATA     BYTE      S3CON
      0000009AH   SFRSYM    DATA     BYTE      S2CON
      000000B7H   SFRSYM    DATA     BYTE      IPH
      000000CDH   SFRSYM    DATA     BYTE      SPSTAT
      000000DDH   SFRSYM    DATA     BYTE      T4T3M
      000000C1H   SFRSYM    DATA     BYTE      WDT_CONTR
      000000DFH   SFRSYM    DATA     BYTE      IP3
      000000F4H   SFRSYM    DATA     BYTE      USBCON
      000000B5H   SFRSYM    DATA     BYTE      IP2
      000000FFH   SFRSYM    DATA     BYTE      RSTCFG
      000000C7H   SFRSYM    DATA     BYTE      IAP_CONTR
      000000F9H   SFRSYM    DATA     BYTE      LINICR
      0000008EH   SFRSYM    DATA     BYTE      AUXR
      000000AFH   SFRSYM    DATA     BYTE      IE2
      00000088H   SFRSYM    DATA     BYTE      TCON
      00000089H   SFRSYM    DATA     BYTE      TMOD
      00000098H   SFRSYM    DATA     BYTE      SCON
      000000F1H   SFRSYM    DATA     BYTE      CANICR
L251 LINKER/LOCATER V4.66.93.0                                                        01/24/2026  18:53:03  PAGE 113


      00000087H   SFRSYM    DATA     BYTE      PCON
      000000BCH   SFRSYM    DATA     BYTE      ADC_CONTR
      000000E7H   SFRSYM    DATA     BYTE      CMPCR2
      000000E6H   SFRSYM    DATA     BYTE      CMPCR1
      000000DEH   SFRSYM    DATA     BYTE      ADCCFG
      000000B8H   SFRSYM    DATA     BYTE      IP
      0000008FH   SFRSYM    DATA     BYTE      INTCLKO
      000000EEH   SFRSYM    DATA     BYTE      IP3H
      000000B6H   SFRSYM    DATA     BYTE      IP2H
      000000A8H   SFRSYM    DATA     BYTE      IE
      000000BBH   SFRSYM    DATA     BYTE      P_SW3
      000000BAH   SFRSYM    DATA     BYTE      P_SW2
      000000A2H   SFRSYM    DATA     BYTE      P_SW1
      000000CEH   SFRSYM    DATA     BYTE      SPCTL
      000000F8H   SFRSYM    DATA     BYTE      P7
      000000E8H   SFRSYM    DATA     BYTE      P6
      000000C8H   SFRSYM    DATA     BYTE      P5
      000000C0H   SFRSYM    DATA     BYTE      P4
      000000B0H   SFRSYM    DATA     BYTE      P3
      000000A0H   SFRSYM    DATA     BYTE      P2
      00000090H   SFRSYM    DATA     BYTE      P1
      00000080H   SFRSYM    DATA     BYTE      P0

      00FF735CH   BLOCK     CODE     ---       LVL=0
      REG=2       REGSYM    ---      ---       SDSD
      DR4         REGSYM    ---      FLOAT     A
      0001063BH   SYMBOL    XDATA    FLOAT     B
      0001063FH   SYMBOL    XDATA    FLOAT     C
      00FF735CH   LINE      CODE     ---       #18
      00FF735EH   LINE      CODE     ---       #20
      00FF7365H   LINE      CODE     ---       #21
      00FF7377H   LINE      CODE     ---       #22
      00FF7389H   LINE      CODE     ---       #23
      ---         BLOCKEND  ---      ---       LVL=0

      00FF57A6H   BLOCK     CODE     ---       LVL=0
      REG=6       REGSYM    ---      ---       SDSD
      00FF57A6H   LINE      CODE     ---       #36
      00FF57AAH   LINE      CODE     ---       #45
      00FF580AH   LINE      CODE     ---       #51
      00FF584FH   LINE      CODE     ---       #55
      00FF586BH   LINE      CODE     ---       #58
      00FF5884H   LINE      CODE     ---       #59
      00FF5886H   LINE      CODE     ---       #60
      00FF5895H   LINE      CODE     ---       #61
      00FF589FH   LINE      CODE     ---       #63
      00FF58A9H   LINE      CODE     ---       #64
      ---         BLOCKEND  ---      ---       LVL=0

      ---         MODULE    ---      ---       IMU
      00FF610DH   PUBLIC    CODE     ---       fast_inv_sqrt
      00FF4BF3H   PUBLIC    CODE     ---       imu_quaternion_init
      00FF019EH   PUBLIC    CODE     ---       imu_update
      00FF4A1BH   PUBLIC    CODE     ---       imu_quaternion_to_euler
      00FF709FH   PUBLIC    CODE     ---       angle_normalize
      00FF3661H   PUBLIC    CODE     ---       imu_quaternion_update
      00FF0026H   PUBLIC    CODE     ---       imu_init
      00FF6520H   PUBLIC    CODE     ---       imu_get_data
      0001082CH   PUBLIC    XDATA    ---       imu
      000000D0H   SFRSYM    DATA     BYTE      PSW
      0000009DH   SFRSYM    DATA     BYTE      IRCBAND
      00000097H   SFRSYM    DATA     BYTE      AUXR2
      000000EFH   SFRSYM    DATA     BYTE      AUXINTIF
      000000FDH   SFRSYM    DATA     BYTE      S4CON
      000000ACH   SFRSYM    DATA     BYTE      S3CON
L251 LINKER/LOCATER V4.66.93.0                                                        01/24/2026  18:53:03  PAGE 114


      0000009AH   SFRSYM    DATA     BYTE      S2CON
      000000B7H   SFRSYM    DATA     BYTE      IPH
      000000CDH   SFRSYM    DATA     BYTE      SPSTAT
      000000DDH   SFRSYM    DATA     BYTE      T4T3M
      000000C1H   SFRSYM    DATA     BYTE      WDT_CONTR
      000000DFH   SFRSYM    DATA     BYTE      IP3
      000000F4H   SFRSYM    DATA     BYTE      USBCON
      000000B5H   SFRSYM    DATA     BYTE      IP2
      000000FFH   SFRSYM    DATA     BYTE      RSTCFG
      000000C7H   SFRSYM    DATA     BYTE      IAP_CONTR
      000000F9H   SFRSYM    DATA     BYTE      LINICR
      0000008EH   SFRSYM    DATA     BYTE      AUXR
      000000AFH   SFRSYM    DATA     BYTE      IE2
      00000088H   SFRSYM    DATA     BYTE      TCON
      00000089H   SFRSYM    DATA     BYTE      TMOD
      00000098H   SFRSYM    DATA     BYTE      SCON
      000000F1H   SFRSYM    DATA     BYTE      CANICR
      00000087H   SFRSYM    DATA     BYTE      PCON
      000000BCH   SFRSYM    DATA     BYTE      ADC_CONTR
      000000E7H   SFRSYM    DATA     BYTE      CMPCR2
      000000E6H   SFRSYM    DATA     BYTE      CMPCR1
      000000DEH   SFRSYM    DATA     BYTE      ADCCFG
      000000B8H   SFRSYM    DATA     BYTE      IP
      0000008FH   SFRSYM    DATA     BYTE      INTCLKO
      000000EEH   SFRSYM    DATA     BYTE      IP3H
      000000B6H   SFRSYM    DATA     BYTE      IP2H
      000000A8H   SFRSYM    DATA     BYTE      IE
      000000BBH   SFRSYM    DATA     BYTE      P_SW3
      000000BAH   SFRSYM    DATA     BYTE      P_SW2
      000000A2H   SFRSYM    DATA     BYTE      P_SW1
      000000CEH   SFRSYM    DATA     BYTE      SPCTL
      000000F8H   SFRSYM    DATA     BYTE      P7
      000000E8H   SFRSYM    DATA     BYTE      P6
      000000C8H   SFRSYM    DATA     BYTE      P5
      000000C0H   SFRSYM    DATA     BYTE      P4
      000000B0H   SFRSYM    DATA     BYTE      P3
      000000A0H   SFRSYM    DATA     BYTE      P2
      00000090H   SFRSYM    DATA     BYTE      P1
      00000080H   SFRSYM    DATA     BYTE      P0
      00FF5AA6H   SYMBOL    CODE     ---       my_atan2
      00FF00A6H   SYMBOL    CODE     ---       my_asin
      00010820H   SYMBOL    XDATA    FLOAT     ex_int
      00010824H   SYMBOL    XDATA    FLOAT     ey_int
      00010828H   SYMBOL    XDATA    FLOAT     ez_int

      00FF00A6H   BLOCK     CODE     ---       LVL=0
      DR28        REGSYM    ---      FLOAT     x
      00FF00AAH   BLOCK     CODE     NEAR LAB  LVL=1
      DR16        REGSYM    ---      FLOAT     neg
      DR20        REGSYM    ---      FLOAT     result
      DR24        REGSYM    ---      FLOAT     temp
      ---         BLOCKEND  ---      ---       LVL=1
      00FF00A6H   LINE      CODE     ---       #21
      00FF00AAH   LINE      CODE     ---       #22
      00FF00AAH   LINE      CODE     ---       #25
      00FF00ACH   LINE      CODE     ---       #26
      00FF00B9H   LINE      CODE     ---       #27
      00FF00BBH   LINE      CODE     ---       #28
      00FF00CAH   LINE      CODE     ---       #29
      00FF00CCH   LINE      CODE     ---       #31
      00FF00D5H   LINE      CODE     ---       #33
      00FF00DBH   LINE      CODE     ---       #34
      00FF00E2H   LINE      CODE     ---       #35
      00FF00E2H   LINE      CODE     ---       #38
      00FF00F1H   LINE      CODE     ---       #41
L251 LINKER/LOCATER V4.66.93.0                                                        01/24/2026  18:53:03  PAGE 115


      00FF00FEH   LINE      CODE     ---       #42
      00FF0143H   LINE      CODE     ---       #43
      00FF0145H   LINE      CODE     ---       #46
      00FF014EH   LINE      CODE     ---       #47
      00FF0189H   LINE      CODE     ---       #48
      00FF0189H   LINE      CODE     ---       #50
      00FF018DH   LINE      CODE     ---       #51
      00FF0194H   LINE      CODE     ---       #53
      00FF0196H   LINE      CODE     ---       #54
      ---         BLOCKEND  ---      ---       LVL=0

      00FF5AA6H   BLOCK     CODE     ---       LVL=0
      DR24        REGSYM    ---      FLOAT     y
      DR28        REGSYM    ---      FLOAT     x
      00FF5AACH   BLOCK     CODE     NEAR LAB  LVL=1
      00010647H   SYMBOL    XDATA    FLOAT     abs_x
      DR12        REGSYM    ---      FLOAT     abs_y
      DR20        REGSYM    ---      FLOAT     angle
      DR16        REGSYM    ---      FLOAT     r
      ---         BLOCKEND  ---      ---       LVL=1
      00FF5AA6H   LINE      CODE     ---       #63
      00FF5AACH   LINE      CODE     ---       #64
      00FF5AACH   LINE      CODE     ---       #67
      00FF5AB8H   LINE      CODE     ---       #68
      00FF5ABDH   LINE      CODE     ---       #70
      00FF5AC6H   LINE      CODE     ---       #71
      00FF5AD2H   LINE      CODE     ---       #73
      00FF5AE1H   LINE      CODE     ---       #75
      00FF5AEAH   LINE      CODE     ---       #76
      00FF5AEEH   LINE      CODE     ---       #78
      00FF5AF5H   LINE      CODE     ---       #80
      00FF5B06H   LINE      CODE     ---       #82
      00FF5B17H   LINE      CODE     ---       #83
      00FF5B41H   LINE      CODE     ---       #84
      00FF5B43H   LINE      CODE     ---       #87
      00FF5B54H   LINE      CODE     ---       #88
      00FF5B71H   LINE      CODE     ---       #89
      00FF5B71H   LINE      CODE     ---       #91
      00FF5B7AH   LINE      CODE     ---       #92
      00FF5B89H   LINE      CODE     ---       #94
      00FF5B92H   LINE      CODE     ---       #95
      00FF5B99H   LINE      CODE     ---       #97
      00FF5B9BH   LINE      CODE     ---       #98
      ---         BLOCKEND  ---      ---       LVL=0

      00FF610DH   BLOCK     CODE     ---       LVL=0
      DR28        REGSYM    ---      FLOAT     x
      00FF610FH   BLOCK     CODE     NEAR LAB  LVL=1
      DR4         REGSYM    ---      FLOAT     halfx
      0001064FH   SYMBOL    XDATA    FLOAT     y
      00010653H   SYMBOL    XDATA    LONG      i
      ---         BLOCKEND  ---      ---       LVL=1
      00FF610DH   LINE      CODE     ---       #107
      00FF610FH   LINE      CODE     ---       #108
      00FF610FH   LINE      CODE     ---       #109
      00FF611AH   LINE      CODE     ---       #110
      00FF6124H   LINE      CODE     ---       #111
      00FF613DH   LINE      CODE     ---       #112
      00FF6166H   LINE      CODE     ---       #113
      00FF617FH   LINE      CODE     ---       #114
      00FF61ADH   LINE      CODE     ---       #115
      00FF61B7H   LINE      CODE     ---       #116
      ---         BLOCKEND  ---      ---       LVL=0

      00FF709FH   BLOCK     CODE     ---       LVL=0
L251 LINKER/LOCATER V4.66.93.0                                                        01/24/2026  18:53:03  PAGE 116


      DR28        REGSYM    ---      FLOAT     angle
      00FF709FH   LINE      CODE     ---       #125
      00FF70A1H   LINE      CODE     ---       #127
      00FF70BDH   LINE      CODE     ---       #129
      00FF70D9H   LINE      CODE     ---       #131
      00FF70DBH   LINE      CODE     ---       #132
      ---         BLOCKEND  ---      ---       LVL=0

      00FF0026H   BLOCK     CODE     ---       LVL=0
      00FF0028H   BLOCK     CODE     NEAR LAB  LVL=1
      R15         REGSYM    ---      BYTE      result
      ---         BLOCKEND  ---      ---       LVL=1
      00FF0026H   LINE      CODE     ---       #141
      00FF0028H   LINE      CODE     ---       #142
      00FF0028H   LINE      CODE     ---       #146
      00FF002DH   LINE      CODE     ---       #148
      00FF0031H   LINE      CODE     ---       #151
      00FF0038H   LINE      CODE     ---       #152
      00FF003BH   LINE      CODE     ---       #155
      00FF003EH   LINE      CODE     ---       #156
      00FF003EH   LINE      CODE     ---       #158
      00FF0040H   LINE      CODE     ---       #159
      ---         BLOCKEND  ---      ---       LVL=0

      00FF6520H   BLOCK     CODE     ---       LVL=0
      00FF6520H   LINE      CODE     ---       #168
      00FF6520H   LINE      CODE     ---       #171
      00FF6523H   LINE      CODE     ---       #172
      00FF6526H   LINE      CODE     ---       #175
      00FF6539H   LINE      CODE     ---       #176
      00FF654CH   LINE      CODE     ---       #177
      00FF655FH   LINE      CODE     ---       #179
      00FF6572H   LINE      CODE     ---       #180
      00FF6585H   LINE      CODE     ---       #181
      00FF6598H   LINE      CODE     ---       #182
      ---         BLOCKEND  ---      ---       LVL=0

      00FF4BF3H   BLOCK     CODE     ---       LVL=0
      00FF4BF5H   BLOCK     CODE     NEAR LAB  LVL=1
      DR28        REGSYM    ---      FLOAT     norm
      0001063BH   SYMBOL    XDATA    FLOAT     halfvx
      DR12        REGSYM    ---      FLOAT     halfvy
      DR28        REGSYM    ---      FLOAT     halfvz
      ---         BLOCKEND  ---      ---       LVL=1
      00FF4BF3H   LINE      CODE     ---       #191
      00FF4BF5H   LINE      CODE     ---       #192
      00FF4BF5H   LINE      CODE     ---       #197
      00FF4C4DH   LINE      CODE     ---       #198
      00FF4C63H   LINE      CODE     ---       #199
      00FF4C79H   LINE      CODE     ---       #200
      00FF4C8FH   LINE      CODE     ---       #204
      00FF4CA3H   LINE      CODE     ---       #205
      00FF4CADH   LINE      CODE     ---       #206
      00FF4CB7H   LINE      CODE     ---       #209
      00FF4CC0H   LINE      CODE     ---       #211
      00FF4CE3H   LINE      CODE     ---       #212
      00FF4CF6H   LINE      CODE     ---       #213
      00FF4D12H   LINE      CODE     ---       #214
      00FF4D26H   LINE      CODE     ---       #215
      00FF4D28H   LINE      CODE     ---       #218
      00FF4D4BH   LINE      CODE     ---       #219
      00FF4D5EH   LINE      CODE     ---       #220
      00FF4D77H   LINE      CODE     ---       #221
      00FF4D9BH   LINE      CODE     ---       #222
      00FF4D9BH   LINE      CODE     ---       #223
L251 LINKER/LOCATER V4.66.93.0                                                        01/24/2026  18:53:03  PAGE 117


      ---         BLOCKEND  ---      ---       LVL=0

      00FF3661H   BLOCK     CODE     ---       LVL=0
      00FF3663H   BLOCK     CODE     NEAR LAB  LVL=1
      DR12        REGSYM    ---      FLOAT     norm
      0001063BH   SYMBOL    XDATA    FLOAT     vx
      DR24        REGSYM    ---      FLOAT     vy
      DR28        REGSYM    ---      FLOAT     vz
      DR16        REGSYM    ---      FLOAT     ex
      DR20        REGSYM    ---      FLOAT     ey
      DR24        REGSYM    ---      FLOAT     ez
      0001063FH   SYMBOL    XDATA    FLOAT     q0_last
      00010643H   SYMBOL    XDATA    FLOAT     q1_last
      00010647H   SYMBOL    XDATA    FLOAT     q2_last
      0001064BH   SYMBOL    XDATA    FLOAT     q3_last
      DR24        REGSYM    ---      FLOAT     gx_rad
      DR28        REGSYM    ---      FLOAT     gy_rad
      DR16        REGSYM    ---      FLOAT     gz_rad
      ---         BLOCKEND  ---      ---       LVL=1
      00FF3661H   LINE      CODE     ---       #232
      00FF3663H   LINE      CODE     ---       #233
      00FF3663H   LINE      CODE     ---       #241
      00FF36BBH   LINE      CODE     ---       #242
      00FF36D1H   LINE      CODE     ---       #243
      00FF36E7H   LINE      CODE     ---       #244
      00FF36FDH   LINE      CODE     ---       #247
      00FF3747H   LINE      CODE     ---       #248
      00FF3783H   LINE      CODE     ---       #249
      00FF37F8H   LINE      CODE     ---       #252
      00FF381FH   LINE      CODE     ---       #253
      00FF3850H   LINE      CODE     ---       #254
      00FF3877H   LINE      CODE     ---       #257
      00FF389AH   LINE      CODE     ---       #258
      00FF38B5H   LINE      CODE     ---       #259
      00FF38D0H   LINE      CODE     ---       #262
      00FF38FEH   LINE      CODE     ---       #263
      00FF3926H   LINE      CODE     ---       #264
      00FF394EH   LINE      CODE     ---       #267
      00FF3967H   LINE      CODE     ---       #268
      00FF3978H   LINE      CODE     ---       #269
      00FF3989H   LINE      CODE     ---       #272
      00FF399DH   LINE      CODE     ---       #273
      00FF39B1H   LINE      CODE     ---       #274
      00FF39C5H   LINE      CODE     ---       #275
      00FF39D9H   LINE      CODE     ---       #278
      00FF3A3CH   LINE      CODE     ---       #279
      00FF3A92H   LINE      CODE     ---       #280
      00FF3AE4H   LINE      CODE     ---       #281
      00FF3B38H   LINE      CODE     ---       #284
      00FF3BAEH   LINE      CODE     ---       #286
      00FF3BC4H   LINE      CODE     ---       #287
      00FF3BDAH   LINE      CODE     ---       #288
      00FF3BF0H   LINE      CODE     ---       #289
      00FF3C06H   LINE      CODE     ---       #290
      ---         BLOCKEND  ---      ---       LVL=0

      00FF4A1BH   BLOCK     CODE     ---       LVL=0
      00FF4A1DH   BLOCK     CODE     NEAR LAB  LVL=1
      0001063BH   SYMBOL    XDATA    FLOAT     q0
      0001063FH   SYMBOL    XDATA    FLOAT     q1
      DR12        REGSYM    ---      FLOAT     q2
      00010643H   SYMBOL    XDATA    FLOAT     q3
      ---         BLOCKEND  ---      ---       LVL=1
      00FF4A1BH   LINE      CODE     ---       #299
      00FF4A1DH   LINE      CODE     ---       #300
L251 LINKER/LOCATER V4.66.93.0                                                        01/24/2026  18:53:03  PAGE 118


      00FF4A1DH   LINE      CODE     ---       #303
      00FF4A31H   LINE      CODE     ---       #304
      00FF4A45H   LINE      CODE     ---       #305
      00FF4A4FH   LINE      CODE     ---       #306
      00FF4A63H   LINE      CODE     ---       #309
      00FF4AE0H   LINE      CODE     ---       #312
      00FF4B2EH   LINE      CODE     ---       #315
      00FF4BABH   LINE      CODE     ---       #318
      00FF4BC2H   LINE      CODE     ---       #319
      00FF4BD9H   LINE      CODE     ---       #320
      00FF4BF0H   LINE      CODE     ---       #321
      ---         BLOCKEND  ---      ---       LVL=0

      00FF019EH   BLOCK     CODE     ---       LVL=0
      00FF019EH   LINE      CODE     ---       #330
      00FF019EH   LINE      CODE     ---       #333
      00FF01A1H   LINE      CODE     ---       #336
      00FF01A4H   LINE      CODE     ---       #339
      ---         BLOCKEND  ---      ---       LVL=0

      ---         MODULE    ---      ---       task
      00FF7557H   PUBLIC    CODE     ---       position_error_calc
      00FF732CH   PUBLIC    CODE     ---       sdsd_control_with_sensor_check
      00FF0019H   PUBLIC    CODE     ---       get_control_mode
      00FF6B84H   PUBLIC    CODE     ---       motor_control_task
      00FF71FFH   PUBLIC    CODE     ---       pd_control_with_sensor_check
      00FF008EH   PUBLIC    CODE     ---       imu_update_task
      00FF0096H   PUBLIC    CODE     ---       pid_only_control
      00FF7268H   PUBLIC    CODE     ---       get_mode_name
      00FF6DCBH   PUBLIC    CODE     ---       sensor_check_valid
      000000D0H   SFRSYM    DATA     BYTE      PSW
      0000009DH   SFRSYM    DATA     BYTE      IRCBAND
      00000097H   SFRSYM    DATA     BYTE      AUXR2
      000000EFH   SFRSYM    DATA     BYTE      AUXINTIF
      000000FDH   SFRSYM    DATA     BYTE      S4CON
      000000ACH   SFRSYM    DATA     BYTE      S3CON
      0000009AH   SFRSYM    DATA     BYTE      S2CON
      000000B7H   SFRSYM    DATA     BYTE      IPH
      000000CDH   SFRSYM    DATA     BYTE      SPSTAT
      000000DDH   SFRSYM    DATA     BYTE      T4T3M
      000000C1H   SFRSYM    DATA     BYTE      WDT_CONTR
      000000DFH   SFRSYM    DATA     BYTE      IP3
      000000F4H   SFRSYM    DATA     BYTE      USBCON
      000000B5H   SFRSYM    DATA     BYTE      IP2
      000000FFH   SFRSYM    DATA     BYTE      RSTCFG
      000000C7H   SFRSYM    DATA     BYTE      IAP_CONTR
      000000F9H   SFRSYM    DATA     BYTE      LINICR
      0000008EH   SFRSYM    DATA     BYTE      AUXR
      000000AFH   SFRSYM    DATA     BYTE      IE2
      00000088H   SFRSYM    DATA     BYTE      TCON
      00000089H   SFRSYM    DATA     BYTE      TMOD
      00000098H   SFRSYM    DATA     BYTE      SCON
      000000F1H   SFRSYM    DATA     BYTE      CANICR
      00000087H   SFRSYM    DATA     BYTE      PCON
      000000BCH   SFRSYM    DATA     BYTE      ADC_CONTR
      000000E7H   SFRSYM    DATA     BYTE      CMPCR2
      000000E6H   SFRSYM    DATA     BYTE      CMPCR1
      000000DEH   SFRSYM    DATA     BYTE      ADCCFG
      000000B8H   SFRSYM    DATA     BYTE      IP
      0000008FH   SFRSYM    DATA     BYTE      INTCLKO
      000000EEH   SFRSYM    DATA     BYTE      IP3H
      000000B6H   SFRSYM    DATA     BYTE      IP2H
      000000A8H   SFRSYM    DATA     BYTE      IE
      000000BBH   SFRSYM    DATA     BYTE      P_SW3
      000000BAH   SFRSYM    DATA     BYTE      P_SW2
L251 LINKER/LOCATER V4.66.93.0                                                        01/24/2026  18:53:03  PAGE 119


      000000A2H   SFRSYM    DATA     BYTE      P_SW1
      000000CEH   SFRSYM    DATA     BYTE      SPCTL
      000000F8H   SFRSYM    DATA     BYTE      P7
      000000E8H   SFRSYM    DATA     BYTE      P6
      000000C8H   SFRSYM    DATA     BYTE      P5
      000000C0H   SFRSYM    DATA     BYTE      P4
      000000B0H   SFRSYM    DATA     BYTE      P3
      000000A0H   SFRSYM    DATA     BYTE      P2
      00000090H   SFRSYM    DATA     BYTE      P1
      00000080H   SFRSYM    DATA     BYTE      P0
      000109DFH   SYMBOL    XDATA    BYTE      current_control_mode

      00FF6DCBH   BLOCK     CODE     ---       LVL=0
      R10         REGSYM    ---      BYTE      sensor_valid
      00FF6DCBH   LINE      CODE     ---       #15
      00FF6DCBH   LINE      CODE     ---       #16
      00FF6DCBH   LINE      CODE     ---       #19
      00FF6DCEH   LINE      CODE     ---       #22
      00FF6DF2H   LINE      CODE     ---       #26
      00FF6DF4H   LINE      CODE     ---       #27
      00FF6DF4H   LINE      CODE     ---       #30
      00FF6E12H   LINE      CODE     ---       #34
      00FF6E14H   LINE      CODE     ---       #35
      00FF6E14H   LINE      CODE     ---       #37
      00FF6E16H   LINE      CODE     ---       #38
      ---         BLOCKEND  ---      ---       LVL=0

      00FF7557H   BLOCK     CODE     ---       LVL=0
      DR4         REGSYM    ---      FLOAT     error
      00FF7557H   LINE      CODE     ---       #49
      00FF7557H   LINE      CODE     ---       #50
      00FF7557H   LINE      CODE     ---       #53
      00FF756AH   LINE      CODE     ---       #55
      00FF756AH   LINE      CODE     ---       #56
      ---         BLOCKEND  ---      ---       LVL=0

      00FF0096H   BLOCK     CODE     ---       LVL=0
      00FF0096H   LINE      CODE     ---       #66
      00FF0096H   LINE      CODE     ---       #69
      00FF0098H   LINE      CODE     ---       #70
      ---         BLOCKEND  ---      ---       LVL=0

      00FF732CH   BLOCK     CODE     ---       LVL=0
      00FF732EH   BLOCK     CODE     NEAR LAB  LVL=1
      R11         REGSYM    ---      BYTE      sensor_valid
      DR4         REGSYM    ---      FLOAT     input_SDSD
      DR12        REGSYM    ---      FLOAT     output_SDSD
      ---         BLOCKEND  ---      ---       LVL=1
      00FF732CH   LINE      CODE     ---       #80
      00FF732EH   LINE      CODE     ---       #81
      00FF732EH   LINE      CODE     ---       #87
      00FF7331H   LINE      CODE     ---       #89
      00FF7333H   LINE      CODE     ---       #92
      00FF733EH   LINE      CODE     ---       #93
      00FF734BH   LINE      CODE     ---       #94
      00FF734DH   LINE      CODE     ---       #98
      00FF7357H   LINE      CODE     ---       #99
      00FF7357H   LINE      CODE     ---       #101
      00FF7359H   LINE      CODE     ---       #102
      ---         BLOCKEND  ---      ---       LVL=0

      00FF71FFH   BLOCK     CODE     ---       LVL=0
      00FF7201H   BLOCK     CODE     NEAR LAB  LVL=1
      0001063BH   SYMBOL    XDATA    BYTE      sensor_valid
      DR4         REGSYM    ---      FLOAT     position_error
L251 LINKER/LOCATER V4.66.93.0                                                        01/24/2026  18:53:03  PAGE 120


      DR12        REGSYM    ---      FLOAT     correction
      ---         BLOCKEND  ---      ---       LVL=1
      00FF71FFH   LINE      CODE     ---       #112
      00FF7201H   LINE      CODE     ---       #113
      00FF7201H   LINE      CODE     ---       #119
      00FF7208H   LINE      CODE     ---       #122
      00FF720BH   LINE      CODE     ---       #125
      00FF7211H   LINE      CODE     ---       #128
      00FF7216H   LINE      CODE     ---       #129
      00FF7218H   LINE      CODE     ---       #133
      00FF7230H   LINE      CODE     ---       #134
      00FF7230H   LINE      CODE     ---       #136
      00FF7232H   LINE      CODE     ---       #137
      ---         BLOCKEND  ---      ---       LVL=0

      00FF0019H   BLOCK     CODE     ---       LVL=0
      00FF0019H   LINE      CODE     ---       #146
      00FF0019H   LINE      CODE     ---       #149
      00FF001AH   LINE      CODE     ---       #153
      ---         BLOCKEND  ---      ---       LVL=0

      00FF7268H   BLOCK     CODE     ---       LVL=0
      R7          REGSYM    ---      BYTE      mode
      00FF7268H   LINE      CODE     ---       #162
      00FF726AH   LINE      CODE     ---       #164
      00FF7276H   LINE      CODE     ---       #166
      00FF7276H   LINE      CODE     ---       #167
      00FF727FH   LINE      CODE     ---       #168
      00FF727FH   LINE      CODE     ---       #169
      00FF7288H   LINE      CODE     ---       #170
      00FF7288H   LINE      CODE     ---       #171
      00FF7291H   LINE      CODE     ---       #172
      00FF7291H   LINE      CODE     ---       #173
      00FF7299H   LINE      CODE     ---       #174
      00FF7299H   LINE      CODE     ---       #175
      ---         BLOCKEND  ---      ---       LVL=0

      00FF6B84H   BLOCK     CODE     ---       LVL=0
      00FF6B86H   BLOCK     CODE     NEAR LAB  LVL=1
      DR12        REGSYM    ---      FLOAT     correction
      R11         REGSYM    ---      BYTE      mode
      ---         BLOCKEND  ---      ---       LVL=1
      00FF6B84H   LINE      CODE     ---       #186
      00FF6B86H   LINE      CODE     ---       #187
      00FF6B86H   LINE      CODE     ---       #192
      00FF6B89H   LINE      CODE     ---       #195
      00FF6B8CH   LINE      CODE     ---       #198
      00FF6B96H   LINE      CODE     ---       #200
      00FF6B96H   LINE      CODE     ---       #202
      00FF6B96H   LINE      CODE     ---       #203
      00FF6B98H   LINE      CODE     ---       #205
      00FF6B98H   LINE      CODE     ---       #207
      00FF6B9DH   LINE      CODE     ---       #208
      00FF6B9FH   LINE      CODE     ---       #210
      00FF6B9FH   LINE      CODE     ---       #212
      00FF6BA4H   LINE      CODE     ---       #213
      00FF6BA6H   LINE      CODE     ---       #215
      00FF6BA6H   LINE      CODE     ---       #217
      00FF6BABH   LINE      CODE     ---       #218
      00FF6BABH   LINE      CODE     ---       #219
      00FF6BABH   LINE      CODE     ---       #222
      00FF6BDAH   LINE      CODE     ---       #223
      ---         BLOCKEND  ---      ---       LVL=0

      00FF008EH   BLOCK     CODE     ---       LVL=0
L251 LINKER/LOCATER V4.66.93.0                                                        01/24/2026  18:53:03  PAGE 121


      00FF008EH   LINE      CODE     ---       #233
      00FF008EH   LINE      CODE     ---       #235
      ---         BLOCKEND  ---      ---       LVL=0

      ---         MODULE    ---      ---       isr
      00FF6306H   PUBLIC    CODE     ---       DMA_UART1_IRQHandler
      00FF6599H   PUBLIC    CODE     ---       DMA_UART2_IRQHandler
      00FF6612H   PUBLIC    CODE     ---       DMA_UART3_IRQHandler
      00FF668BH   PUBLIC    CODE     ---       DMA_UART4_IRQHandler
      00FF6F69H   PUBLIC    CODE     ---       TM0_IRQHandler
      00FF6FA7H   PUBLIC    CODE     ---       TM1_IRQHandler
      00FF6FE5H   PUBLIC    CODE     ---       TM2_IRQHandler
      00FF7023H   PUBLIC    CODE     ---       TM3_IRQHandler
      00FF7061H   PUBLIC    CODE     ---       TM4_IRQHandler
      000000D0H   SFRSYM    DATA     BYTE      PSW
      0000009DH   SFRSYM    DATA     BYTE      IRCBAND
      00000097H   SFRSYM    DATA     BYTE      AUXR2
      000000EFH   SFRSYM    DATA     BYTE      AUXINTIF
      000000FDH   SFRSYM    DATA     BYTE      S4CON
      000000ACH   SFRSYM    DATA     BYTE      S3CON
      0000009AH   SFRSYM    DATA     BYTE      S2CON
      000000B7H   SFRSYM    DATA     BYTE      IPH
      000000CDH   SFRSYM    DATA     BYTE      SPSTAT
      000000DDH   SFRSYM    DATA     BYTE      T4T3M
      000000C1H   SFRSYM    DATA     BYTE      WDT_CONTR
      000000DFH   SFRSYM    DATA     BYTE      IP3
      000000F4H   SFRSYM    DATA     BYTE      USBCON
      000000B5H   SFRSYM    DATA     BYTE      IP2
      000000FFH   SFRSYM    DATA     BYTE      RSTCFG
      000000C7H   SFRSYM    DATA     BYTE      IAP_CONTR
      000000F9H   SFRSYM    DATA     BYTE      LINICR
      0000008EH   SFRSYM    DATA     BYTE      AUXR
      000000AFH   SFRSYM    DATA     BYTE      IE2
      00000088H   SFRSYM    DATA     BYTE      TCON
      00000089H   SFRSYM    DATA     BYTE      TMOD
      00000098H   SFRSYM    DATA     BYTE      SCON
      000000F1H   SFRSYM    DATA     BYTE      CANICR
      00000087H   SFRSYM    DATA     BYTE      PCON
      000000BCH   SFRSYM    DATA     BYTE      ADC_CONTR
      000000E7H   SFRSYM    DATA     BYTE      CMPCR2
      000000E6H   SFRSYM    DATA     BYTE      CMPCR1
      000000DEH   SFRSYM    DATA     BYTE      ADCCFG
      000000B8H   SFRSYM    DATA     BYTE      IP
      0000008FH   SFRSYM    DATA     BYTE      INTCLKO
      000000EEH   SFRSYM    DATA     BYTE      IP3H
      000000B6H   SFRSYM    DATA     BYTE      IP2H
      000000A8H   SFRSYM    DATA     BYTE      IE
      000000BBH   SFRSYM    DATA     BYTE      P_SW3
      000000BAH   SFRSYM    DATA     BYTE      P_SW2
      000000A2H   SFRSYM    DATA     BYTE      P_SW1
      000000CEH   SFRSYM    DATA     BYTE      SPCTL
      000000F8H   SFRSYM    DATA     BYTE      P7
      000000E8H   SFRSYM    DATA     BYTE      P6
      000000C8H   SFRSYM    DATA     BYTE      P5
      000000C0H   SFRSYM    DATA     BYTE      P4
      000000B0H   SFRSYM    DATA     BYTE      P3
      000000A0H   SFRSYM    DATA     BYTE      P2
      00000090H   SFRSYM    DATA     BYTE      P1
      00000080H   SFRSYM    DATA     BYTE      P0

      00FF6306H   BLOCK     CODE     ---       LVL=0
      00FF631AH   BLOCK     CODE     NEAR LAB  LVL=1
      000109E0H   SYMBOL    XDATA    BYTE      dwon_count
      ---         BLOCKEND  ---      ---       LVL=1
      00FF6306H   LINE      CODE     ---       #38
L251 LINKER/LOCATER V4.66.93.0                                                        01/24/2026  18:53:03  PAGE 122


      00FF631AH   LINE      CODE     ---       #39
      00FF631AH   LINE      CODE     ---       #42
      00FF6328H   LINE      CODE     ---       #44
      00FF6330H   LINE      CODE     ---       #45
      00FF6335H   LINE      CODE     ---       #48
      00FF6340H   LINE      CODE     ---       #50
      00FF634FH   LINE      CODE     ---       #52
      00FF6352H   LINE      CODE     ---       #53
      00FF6354H   LINE      CODE     ---       #57
      00FF6359H   LINE      CODE     ---       #58
      00FF6359H   LINE      CODE     ---       #60
      00FF6363H   LINE      CODE     ---       #62
      00FF636DH   LINE      CODE     ---       #63
      00FF636DH   LINE      CODE     ---       #66
      00FF637BH   LINE      CODE     ---       #68
      00FF6383H   LINE      CODE     ---       #69
      00FF6388H   LINE      CODE     ---       #73
      ---         BLOCKEND  ---      ---       LVL=0

      00FF6599H   BLOCK     CODE     ---       LVL=0
      00FF6599H   LINE      CODE     ---       #76
      00FF65ADH   LINE      CODE     ---       #78
      00FF65BBH   LINE      CODE     ---       #80
      00FF65C3H   LINE      CODE     ---       #81
      00FF65CAH   LINE      CODE     ---       #83
      00FF65D4H   LINE      CODE     ---       #85
      00FF65E0H   LINE      CODE     ---       #86
      00FF65E0H   LINE      CODE     ---       #89
      00FF65EEH   LINE      CODE     ---       #91
      00FF65F6H   LINE      CODE     ---       #92
      00FF65FDH   LINE      CODE     ---       #96
      ---         BLOCKEND  ---      ---       LVL=0

      00FF6612H   BLOCK     CODE     ---       LVL=0
      00FF6612H   LINE      CODE     ---       #99
      00FF6626H   LINE      CODE     ---       #101
      00FF6634H   LINE      CODE     ---       #103
      00FF663CH   LINE      CODE     ---       #104
      00FF6643H   LINE      CODE     ---       #106
      00FF664DH   LINE      CODE     ---       #108
      00FF6659H   LINE      CODE     ---       #109
      00FF6659H   LINE      CODE     ---       #112
      00FF6667H   LINE      CODE     ---       #114
      00FF666FH   LINE      CODE     ---       #115
      00FF6676H   LINE      CODE     ---       #119
      ---         BLOCKEND  ---      ---       LVL=0

      00FF668BH   BLOCK     CODE     ---       LVL=0
      00FF668BH   LINE      CODE     ---       #122
      00FF669FH   LINE      CODE     ---       #124
      00FF66ADH   LINE      CODE     ---       #126
      00FF66B5H   LINE      CODE     ---       #127
      00FF66BCH   LINE      CODE     ---       #129
      00FF66C6H   LINE      CODE     ---       #131
      00FF66D2H   LINE      CODE     ---       #132
      00FF66D2H   LINE      CODE     ---       #135
      00FF66E0H   LINE      CODE     ---       #137
      00FF66E8H   LINE      CODE     ---       #138
      00FF66EFH   LINE      CODE     ---       #142
      ---         BLOCKEND  ---      ---       LVL=0

      00FF6F69H   BLOCK     CODE     ---       LVL=0
      00FF6F69H   LINE      CODE     ---       #145
      00FF6F7DH   LINE      CODE     ---       #147
      00FF6F80H   LINE      CODE     ---       #149
L251 LINKER/LOCATER V4.66.93.0                                                        01/24/2026  18:53:03  PAGE 123


      00FF6F8AH   LINE      CODE     ---       #151
      00FF6F92H   LINE      CODE     ---       #152
      ---         BLOCKEND  ---      ---       LVL=0

      00FF6FA7H   BLOCK     CODE     ---       LVL=0
      00FF6FA7H   LINE      CODE     ---       #155
      00FF6FBBH   LINE      CODE     ---       #157
      00FF6FBEH   LINE      CODE     ---       #159
      00FF6FC8H   LINE      CODE     ---       #161
      00FF6FD0H   LINE      CODE     ---       #162
      ---         BLOCKEND  ---      ---       LVL=0

      00FF6FE5H   BLOCK     CODE     ---       LVL=0
      00FF6FE5H   LINE      CODE     ---       #165
      00FF6FF9H   LINE      CODE     ---       #167
      00FF6FFCH   LINE      CODE     ---       #169
      00FF7006H   LINE      CODE     ---       #171
      00FF700EH   LINE      CODE     ---       #172
      ---         BLOCKEND  ---      ---       LVL=0

      00FF7023H   BLOCK     CODE     ---       LVL=0
      00FF7023H   LINE      CODE     ---       #175
      00FF7037H   LINE      CODE     ---       #177
      00FF703AH   LINE      CODE     ---       #179
      00FF7044H   LINE      CODE     ---       #181
      00FF704CH   LINE      CODE     ---       #182
      ---         BLOCKEND  ---      ---       LVL=0

      00FF7061H   BLOCK     CODE     ---       LVL=0
      00FF7061H   LINE      CODE     ---       #185
      00FF7075H   LINE      CODE     ---       #187
      00FF7078H   LINE      CODE     ---       #189
      00FF7082H   LINE      CODE     ---       #191
      00FF708AH   LINE      CODE     ---       #192
      ---         BLOCKEND  ---      ---       LVL=0

      ---         MODULE    ---      ---       main
      00FF009EH   PUBLIC    CODE     ---       pit_handler_1
      00FF01A7H   PUBLIC    CODE     ---       pit_handler_2
      00FF74D1H   PUBLIC    CODE     ---       main
      00FF4596H   PUBLIC    CODE     ---       _m
      00010996H   PUBLIC    XDATA    FLOAT     right_target
      0001099AH   PUBLIC    XDATA    FLOAT     left_target
      0001099EH   PUBLIC    XDATA    BYTE      imu_state
      000000D0H   SFRSYM    DATA     BYTE      PSW
      0000009DH   SFRSYM    DATA     BYTE      IRCBAND
      00000097H   SFRSYM    DATA     BYTE      AUXR2
      000000EFH   SFRSYM    DATA     BYTE      AUXINTIF
      000000FDH   SFRSYM    DATA     BYTE      S4CON
      000000ACH   SFRSYM    DATA     BYTE      S3CON
      0000009AH   SFRSYM    DATA     BYTE      S2CON
      000000B7H   SFRSYM    DATA     BYTE      IPH
      000000CDH   SFRSYM    DATA     BYTE      SPSTAT
      000000DDH   SFRSYM    DATA     BYTE      T4T3M
      000000C1H   SFRSYM    DATA     BYTE      WDT_CONTR
      000000DFH   SFRSYM    DATA     BYTE      IP3
      000000F4H   SFRSYM    DATA     BYTE      USBCON
      000000B5H   SFRSYM    DATA     BYTE      IP2
      000000FFH   SFRSYM    DATA     BYTE      RSTCFG
      000000C7H   SFRSYM    DATA     BYTE      IAP_CONTR
      000000F9H   SFRSYM    DATA     BYTE      LINICR
      0000008EH   SFRSYM    DATA     BYTE      AUXR
      000000AFH   SFRSYM    DATA     BYTE      IE2
      00000088H   SFRSYM    DATA     BYTE      TCON
      00000089H   SFRSYM    DATA     BYTE      TMOD
L251 LINKER/LOCATER V4.66.93.0                                                        01/24/2026  18:53:03  PAGE 124


      00000098H   SFRSYM    DATA     BYTE      SCON
      000000F1H   SFRSYM    DATA     BYTE      CANICR
      00000087H   SFRSYM    DATA     BYTE      PCON
      000000BCH   SFRSYM    DATA     BYTE      ADC_CONTR
      000000E7H   SFRSYM    DATA     BYTE      CMPCR2
      000000E6H   SFRSYM    DATA     BYTE      CMPCR1
      000000DEH   SFRSYM    DATA     BYTE      ADCCFG
      000000B8H   SFRSYM    DATA     BYTE      IP
      0000008FH   SFRSYM    DATA     BYTE      INTCLKO
      000000EEH   SFRSYM    DATA     BYTE      IP3H
      000000B6H   SFRSYM    DATA     BYTE      IP2H
      000000A8H   SFRSYM    DATA     BYTE      IE
      000000BBH   SFRSYM    DATA     BYTE      P_SW3
      000000BAH   SFRSYM    DATA     BYTE      P_SW2
      000000A2H   SFRSYM    DATA     BYTE      P_SW1
      000000CEH   SFRSYM    DATA     BYTE      SPCTL
      000000F8H   SFRSYM    DATA     BYTE      P7
      000000E8H   SFRSYM    DATA     BYTE      P6
      000000C8H   SFRSYM    DATA     BYTE      P5
      000000C0H   SFRSYM    DATA     BYTE      P4
      000000B0H   SFRSYM    DATA     BYTE      P3
      000000A0H   SFRSYM    DATA     BYTE      P2
      00000090H   SFRSYM    DATA     BYTE      P1
      00000080H   SFRSYM    DATA     BYTE      P0

      00FF74D1H   BLOCK     CODE     ---       LVL=0
      00FF74D1H   LINE      CODE     ---       #55
      ---         BLOCKEND  ---      ---       LVL=0

      00FF4596H   BLOCK     CODE     ---       LVL=0
      00FF4596H   LINE      CODE     ---       #55
      00FF4596H   LINE      CODE     ---       #57
      00FF45A1H   LINE      CODE     ---       #58
      00FF45A4H   LINE      CODE     ---       #60
      00FF45A7H   LINE      CODE     ---       #61
      00FF45AAH   LINE      CODE     ---       #62
      00FF45ADH   LINE      CODE     ---       #63
      00FF45B0H   LINE      CODE     ---       #66
      00FF45B7H   LINE      CODE     ---       #67
      00FF45B9H   LINE      CODE     ---       #69
      00FF45C1H   LINE      CODE     ---       #70
      00FF45C3H   LINE      CODE     ---       #73
      00FF45CEH   LINE      CODE     ---       #74
      00FF45CEH   LINE      CODE     ---       #79
      00FF45F3H   LINE      CODE     ---       #80
      00FF461CH   LINE      CODE     ---       #81
      00FF4629H   LINE      CODE     ---       #84
      00FF4660H   LINE      CODE     ---       #85
      00FF4691H   LINE      CODE     ---       #89
      00FF46A2H   LINE      CODE     ---       #90
      00FF46B3H   LINE      CODE     ---       #94
      00FF46F6H   LINE      CODE     ---       #97
      00FF4700H   LINE      CODE     ---       #98
      00FF470AH   LINE      CODE     ---       #100
      00FF472FH   LINE      CODE     ---       #101
      00FF4754H   LINE      CODE     ---       #103
      00FF4754H   LINE      CODE     ---       #108
      00FF4757H   LINE      CODE     ---       #109
      00FF475AH   LINE      CODE     ---       #112
      00FF47B1H   LINE      CODE     ---       #121
      00FF47D4H   LINE      CODE     ---       #124
      00FF481BH   LINE      CODE     ---       #128
      00FF4822H   LINE      CODE     ---       #129
      ---         BLOCKEND  ---      ---       LVL=0

L251 LINKER/LOCATER V4.66.93.0                                                        01/24/2026  18:53:03  PAGE 125


      00FF009EH   BLOCK     CODE     ---       LVL=0
      00FF009EH   LINE      CODE     ---       #138
      00FF009EH   LINE      CODE     ---       #142
      ---         BLOCKEND  ---      ---       LVL=0

      00FF01A7H   BLOCK     CODE     ---       LVL=0
      00FF01A7H   LINE      CODE     ---       #152
      00FF01A7H   LINE      CODE     ---       #156
      ---         BLOCKEND  ---      ---       LVL=0

      ---         MODULE    ---      ---       ?C?FPADD
      00FF21D4H   PUBLIC    CODE     ---       ?C?FPADD
      00FF21D1H   PUBLIC    CODE     ---       ?C?FPSUB

      ---         MODULE    ---      ---       ?C?FPMUL
      00FF228CH   PUBLIC    CODE     ---       ?C?FPMUL

      ---         MODULE    ---      ---       ?C?FPDIV
      00FF232CH   PUBLIC    CODE     ---       ?C?FPDIV

      ---         MODULE    ---      ---       ?C?FPCMP
      00FF23AFH   PUBLIC    CODE     ---       ?C?FPCMP
      00FF23ADH   PUBLIC    CODE     ---       ?C?FPCMP3

      ---         MODULE    ---      ---       ?C?FPNEG
      00FF23F3H   PUBLIC    CODE     ---       ?C?FPNEG

      ---         MODULE    ---      ---       ?C?FCAST
      00FF240BH   PUBLIC    CODE     NEAR LAB  ?C?FCASTC
      00FF2406H   PUBLIC    CODE     NEAR LAB  ?C?FCASTI
      00FF2401H   PUBLIC    CODE     NEAR LAB  ?C?FCASTL

      ---         MODULE    ---      ---       ?C?CASTF
      00FF243EH   PUBLIC    CODE     NEAR LAB  ?C?CASTF

      ---         MODULE    ---      ---       PRINTF
      00010685H   PUBLIC    XDATA    ---       ?PRINTF?BYTE
      00FF247BH   PUBLIC    CODE     NEAR LAB  PRINTF

      ---         MODULE    ---      ---       SPRINTF
      00010663H   PUBLIC    XDATA    ---       ?SPRINTF?BYTE
      00FF24A7H   PUBLIC    CODE     NEAR LAB  SPRINTF

      ---         MODULE    ---      ---       SQRT?_
      00FF24C7H   PUBLIC    CODE     ---       SQRT?_

      ---         MODULE    ---      ---       pow

      ---         MODULE    ---      ---       SIN?_
      00FF259FH   PUBLIC    CODE     ---       COS?_
      00FF25BCH   PUBLIC    CODE     ---       SIN?_
      00FF25E9H   PUBLIC    CODE     ---       TAN?_

      ---         MODULE    ---      ---       ATAN?_
      00FF26AFH   PUBLIC    CODE     ---       ATAN?_

      ---         MODULE    ---      ---       ASIN?_
      00FF2781H   PUBLIC    CODE     ---       ASIN?_

      ---         MODULE    ---      ---       ?C?FPGETOPN
      00FF27A1H   PUBLIC    CODE     ---       ?C?FPGETOPN2
      00FF27DEH   PUBLIC    CODE     ---       ?C?FPNANRESULT
      00FF27E6H   PUBLIC    CODE     ---       ?C?FPOVERFLOW
      00FF27BAH   PUBLIC    CODE     ---       ?C?FPRESULT
      00FF27D0H   PUBLIC    CODE     ---       ?C?FPRESULT2
L251 LINKER/LOCATER V4.66.93.0                                                        01/24/2026  18:53:03  PAGE 126


      00FF27E3H   PUBLIC    CODE     ---       ?C?FPUNDERFLOW

      ---         MODULE    ---      ---       _CHKFLOAT_?_
      00FF27F2H   PUBLIC    CODE     ---       _CHKFLOAT_?_

      ---         MODULE    ---      ---       ?C?PRNFMT
      00FF283CH   PUBLIC    CODE     ---       ?C?PRNFMT

      ---         MODULE    ---      ---       ?C?FPSERIES
      00FF2C4BH   PUBLIC    CODE     ---       ?C?FP2SERIES
      00FF2C54H   PUBLIC    CODE     ---       ?C?FPSERIES

      ---         MODULE    ---      ---       EXP?_
      00FF2CB1H   PUBLIC    CODE     ---       EXP?_

      ---         MODULE    ---      ---       LOG?_
      00FF2D40H   PUBLIC    CODE     NEAR LAB  LOG?_

      ---         MODULE    ---      ---       ?C?FPCONVERT
      00FF2E13H   PUBLIC    CODE     ---       ?C?FPCONVERT
      00FF2ECBH   PUBLIC    CODE     ---       ?C?FPROUND

      ---         MODULE    ---      ---       ?C?FTNPWR
      00FF2F3EH   PUBLIC    CODE     ---       ?C?FTNPWR

      ---         MODULE    ---      ---       ?C?INITHDATA
      00FF6C55H   PUBLIC    CODE     ---       ?C?INITHDATA

      ---         MODULE    ---      ---       ?C?SIDIV
      00FF2F75H   PUBLIC    CODE     ---       ?C?SIDIV

      ---         MODULE    ---      ---       ?C?LMUL
      00FF2FA7H   PUBLIC    CODE     ---       ?C?LMUL

      ---         MODULE    ---      ---       ?C?LIMUL
      00FF2FB8H   PUBLIC    CODE     ---       ?C?LIMUL

      ---         MODULE    ---      ---       ?C?ULDIV
      00FF2FC3H   PUBLIC    CODE     NEAR LAB  ?C?ULDIV
      00FF2FC1H   PUBLIC    CODE     NEAR LAB  ?C?ULIDIV

      ---         MODULE    ---      ---       ?C?SLDIV
      00FF3014H   PUBLIC    CODE     NEAR LAB  ?C?SLDIV

      ---         MODULE    ---      ---       ?C?BMOVEPP
      00FF304AH   PUBLIC    CODE     ---       ?C?BMOVEPP
      00FF3048H   PUBLIC    CODE     ---       ?C?BMOVEPP8

      ---         MODULE    ---      ---       STRNCMP

      ---         MODULE    ---      ---       STRNCPY

      ---         MODULE    ---      ---       STRLEN

      ---         MODULE    ---      ---       STRCHR

      ---         MODULE    ---      ---       memcpy
      00FF74ACH   PUBLIC    CODE     ---       memcpy?_

      ---         MODULE    ---      ---       memset

      ---         MODULE    ---      ---       ?C?INITHDATA_END
      00FF7AF6H   PUBLIC    HCONST   WORD      ?C?INITHDATA_END

Program Size: data=8.0 edata+hdata=2048 xdata=2529 const=4228 code=30115
L251 LINKER/LOCATER V4.66.93.0                                                        01/24/2026  18:53:03  PAGE 127


L251 RUN COMPLETE.  0 WARNING(S),  0 ERROR(S)
